TN:
SF:/usr/include/c++/9/iostream
end_of_record
SF:/usr/include/c++/9/bits/stl_uninitialized.h
FN:76,_ZNSt20__uninitialized_copyILb0EE13__uninit_copyISt13move_iteratorIPSt6vectorIiSaIiEEES6_EET0_T_S9_S8_
FNDA:0,_ZNSt20__uninitialized_copyILb0EE13__uninit_copyISt13move_iteratorIPSt6vectorIiSaIiEEES6_EET0_T_S9_S8_
FN:76,_ZNSt20__uninitialized_copyILb0EE13__uninit_copyIN9__gnu_cxx17__normal_iteratorIPKSt6vectorIiSaIiEES4_IS6_SaIS6_EEEEPS6_EET0_T_SE_SD_
FNDA:565,_ZNSt20__uninitialized_copyILb0EE13__uninit_copyIN9__gnu_cxx17__normal_iteratorIPKSt6vectorIiSaIiEES4_IS6_SaIS6_EEEEPS6_EET0_T_SE_SD_
FN:76,_ZNSt20__uninitialized_copyILb0EE13__uninit_copyISt13move_iteratorIPSt6vectorIS3_IiSaIiEESaIS5_EEES8_EET0_T_SB_SA_
FNDA:0,_ZNSt20__uninitialized_copyILb0EE13__uninit_copyISt13move_iteratorIPSt6vectorIS3_IiSaIiEESaIS5_EEES8_EET0_T_SB_SA_
FN:99,_ZNSt20__uninitialized_copyILb1EE13__uninit_copyIN9__gnu_cxx17__normal_iteratorIPKiSt6vectorIiSaIiEEEEPiEET0_T_SC_SB_
FNDA:7759,_ZNSt20__uninitialized_copyILb1EE13__uninit_copyIN9__gnu_cxx17__normal_iteratorIPKiSt6vectorIiSaIiEEEEPiEET0_T_SC_SB_
FN:99,_ZNSt20__uninitialized_copyILb1EE13__uninit_copyIPKiPiEET0_T_S6_S5_
FNDA:28545,_ZNSt20__uninitialized_copyILb1EE13__uninit_copyIPKiPiEET0_T_S6_S5_
FN:115,_ZSt18uninitialized_copyIN9__gnu_cxx17__normal_iteratorIPKiSt6vectorIiSaIiEEEEPiET0_T_SA_S9_
FNDA:7759,_ZSt18uninitialized_copyIN9__gnu_cxx17__normal_iteratorIPKiSt6vectorIiSaIiEEEEPiET0_T_SA_S9_
FN:115,_ZSt18uninitialized_copyIPKiPiET0_T_S4_S3_
FNDA:28545,_ZSt18uninitialized_copyIPKiPiET0_T_S4_S3_
FN:115,_ZSt18uninitialized_copyISt13move_iteratorIPSt6vectorIiSaIiEEES4_ET0_T_S7_S6_
FNDA:0,_ZSt18uninitialized_copyISt13move_iteratorIPSt6vectorIiSaIiEEES4_ET0_T_S7_S6_
FN:115,_ZSt18uninitialized_copyISt13move_iteratorIPSt6vectorIS1_IiSaIiEESaIS3_EEES6_ET0_T_S9_S8_
FNDA:0,_ZSt18uninitialized_copyISt13move_iteratorIPSt6vectorIS1_IiSaIiEESaIS3_EEES6_ET0_T_S9_S8_
FN:115,_ZSt18uninitialized_copyIN9__gnu_cxx17__normal_iteratorIPKSt6vectorIiSaIiEES2_IS4_SaIS4_EEEEPS4_ET0_T_SC_SB_
FNDA:565,_ZSt18uninitialized_copyIN9__gnu_cxx17__normal_iteratorIPKSt6vectorIiSaIiEES2_IS4_SaIS4_EEEEPS4_ET0_T_SC_SB_
FN:287,_ZSt22__uninitialized_copy_aIPKiPiiET0_T_S4_S3_RSaIT1_E
FNDA:28545,_ZSt22__uninitialized_copy_aIPKiPiiET0_T_S4_S3_RSaIT1_E
FN:287,_ZSt22__uninitialized_copy_aISt13move_iteratorIPSt6vectorIS1_IiSaIiEESaIS3_EEES6_S5_ET0_T_S9_S8_RSaIT1_E
FNDA:0,_ZSt22__uninitialized_copy_aISt13move_iteratorIPSt6vectorIS1_IiSaIiEESaIS3_EEES6_S5_ET0_T_S9_S8_RSaIT1_E
FN:287,_ZSt22__uninitialized_copy_aIN9__gnu_cxx17__normal_iteratorIPKSt6vectorIiSaIiEES2_IS4_SaIS4_EEEEPS4_S4_ET0_T_SC_SB_RSaIT1_E
FNDA:565,_ZSt22__uninitialized_copy_aIN9__gnu_cxx17__normal_iteratorIPKSt6vectorIiSaIiEES2_IS4_SaIS4_EEEEPS4_S4_ET0_T_SC_SB_RSaIT1_E
FN:287,_ZSt22__uninitialized_copy_aISt13move_iteratorIPSt6vectorIiSaIiEEES4_S3_ET0_T_S7_S6_RSaIT1_E
FNDA:0,_ZSt22__uninitialized_copy_aISt13move_iteratorIPSt6vectorIiSaIiEEES4_S3_ET0_T_S7_S6_RSaIT1_E
FN:287,_ZSt22__uninitialized_copy_aIN9__gnu_cxx17__normal_iteratorIPKiSt6vectorIiSaIiEEEEPiiET0_T_SA_S9_RSaIT1_E
FNDA:7759,_ZSt22__uninitialized_copy_aIN9__gnu_cxx17__normal_iteratorIPKiSt6vectorIiSaIiEEEEPiiET0_T_SA_S9_RSaIT1_E
FN:305,_ZSt34__uninitialized_move_if_noexcept_aIPSt6vectorIiSaIiEES3_SaIS2_EET0_T_S6_S5_RT1_
FNDA:0,_ZSt34__uninitialized_move_if_noexcept_aIPSt6vectorIiSaIiEES3_SaIS2_EET0_T_S6_S5_RT1_
FN:305,_ZSt34__uninitialized_move_if_noexcept_aIPSt6vectorIS0_IiSaIiEESaIS2_EES5_SaIS4_EET0_T_S8_S7_RT1_
FNDA:0,_ZSt34__uninitialized_move_if_noexcept_aIPSt6vectorIS0_IiSaIiEESaIS2_EES5_SaIS4_EET0_T_S8_S7_RT1_
FN:887,_ZSt19__relocate_object_aISt6vectorIS0_IiSaIiEESaIS2_EES4_SaIS4_EEvPT_PT0_RT1_
FNDA:99,_ZSt19__relocate_object_aISt6vectorIS0_IiSaIiEESaIS2_EES4_SaIS4_EEvPT_PT0_RT1_
FN:887,_ZSt19__relocate_object_aISt6vectorIiSaIiEES2_SaIS2_EEvPT_PT0_RT1_
FNDA:39414,_ZSt19__relocate_object_aISt6vectorIiSaIiEES2_SaIS2_EEvPT_PT0_RT1_
FN:918,_ZSt14__relocate_a_1IPSt6vectorIS0_IiSaIiEESaIS2_EES5_SaIS4_EET0_T_S8_S7_RT1_
FNDA:158,_ZSt14__relocate_a_1IPSt6vectorIS0_IiSaIiEESaIS2_EES5_SaIS4_EET0_T_S8_S7_RT1_
FN:918,_ZSt14__relocate_a_1IPSt6vectorIiSaIiEES3_SaIS2_EET0_T_S6_S5_RT1_
FNDA:28242,_ZSt14__relocate_a_1IPSt6vectorIiSaIiEES3_SaIS2_EET0_T_S6_S5_RT1_
FN:940,_ZSt12__relocate_aIPSt6vectorIS0_IiSaIiEESaIS2_EES5_SaIS4_EET0_T_S8_S7_RT1_
FNDA:158,_ZSt12__relocate_aIPSt6vectorIS0_IiSaIiEESaIS2_EES5_SaIS4_EET0_T_S8_S7_RT1_
FN:940,_ZSt12__relocate_aIPSt6vectorIiSaIiEES3_SaIS2_EET0_T_S6_S5_RT1_
FNDA:28242,_ZSt12__relocate_aIPSt6vectorIiSaIiEES3_SaIS2_EET0_T_S6_S5_RT1_
DA:76,0
DA:79,0
DA:82,0
DA:83,0
DA:84,0
DA:86,0
DA:88,0
DA:89,0
DA:76,565
DA:79,565
DA:82,6386
DA:83,5821
DA:84,565
DA:86,0
DA:88,0
DA:89,0
DA:76,0
DA:79,0
DA:82,0
DA:83,0
DA:84,0
DA:86,0
DA:88,0
DA:89,0
DA:99,7759
DA:101,7759
DA:99,28545
DA:101,28545
DA:115,7759
DA:128,7759
DA:134,7759
DA:115,0
DA:128,0
DA:134,0
DA:115,565
DA:128,565
DA:134,565
DA:115,0
DA:128,0
DA:134,0
DA:115,28545
DA:128,28545
DA:134,28545
DA:287,7759
DA:289,7759
DA:287,0
DA:289,0
DA:287,565
DA:289,565
DA:287,0
DA:289,0
DA:287,28545
DA:289,28545
DA:305,0
DA:311,0
DA:312,0
DA:305,0
DA:311,0
DA:312,0
DA:887,39414
DA:894,39414
DA:895,39414
DA:896,39414
DA:887,99
DA:894,99
DA:895,99
DA:896,99
DA:918,28242
DA:930,28242
DA:931,67656
DA:932,39414
DA:934,28242
DA:918,158
DA:930,158
DA:931,257
DA:932,99
DA:934,158
DA:940,28242
DA:946,28242
DA:948,28242
DA:940,158
DA:946,158
DA:948,158
end_of_record
SF:/usr/include/c++/9/new
FN:173,_ZnwmPv
FNDA:69749,_ZnwmPv
FN:179,_ZdlPvS_
FNDA:0,_ZdlPvS_
DA:173,69749
DA:174,69749
DA:179,0
end_of_record
SF:/usr/include/c++/9/tuple
FN:125,_ZNSt10_Head_baseILm0ERiLb0EEC2ES0_
FNDA:4,_ZNSt10_Head_baseILm0ERiLb0EEC2ES0_
FN:125,_ZNSt10_Head_baseILm1ERSt6vectorIS0_IiSaIiEESaIS2_EELb0EEC2ES5_
FNDA:4,_ZNSt10_Head_baseILm1ERSt6vectorIS0_IiSaIiEESaIS2_EELb0EEC2ES5_
FN:160,_ZNSt10_Head_baseILm1ESt6vectorIS0_IiSaIiEESaIS2_EELb0EE7_M_headERS5_
FNDA:65,_ZNSt10_Head_baseILm1ESt6vectorIS0_IiSaIiEESaIS2_EELb0EE7_M_headERS5_
FN:160,_ZNSt10_Head_baseILm0ERiLb0EE7_M_headERS1_
FNDA:4,_ZNSt10_Head_baseILm0ERiLb0EE7_M_headERS1_
FN:160,_ZNSt10_Head_baseILm0EiLb0EE7_M_headERS0_
FNDA:4,_ZNSt10_Head_baseILm0EiLb0EE7_M_headERS0_
FN:160,_ZNSt10_Head_baseILm1ERSt6vectorIS0_IiSaIiEESaIS2_EELb0EE7_M_headERS6_
FNDA:4,_ZNSt10_Head_baseILm1ERSt6vectorIS0_IiSaIiEESaIS2_EELb0EE7_M_headERS6_
FN:195,_ZNSt11_Tuple_implILm0EJRiRSt6vectorIS1_IiSaIiEESaIS3_EEEE7_M_headERS7_
FNDA:4,_ZNSt11_Tuple_implILm0EJRiRSt6vectorIS1_IiSaIiEESaIS3_EEEE7_M_headERS7_
FN:195,_ZNSt11_Tuple_implILm0EJiSt6vectorIS0_IiSaIiEESaIS2_EEEE7_M_headERS5_
FNDA:4,_ZNSt11_Tuple_implILm0EJiSt6vectorIS0_IiSaIiEESaIS2_EEEE7_M_headERS5_
FN:201,_ZNSt11_Tuple_implILm0EJRiRSt6vectorIS1_IiSaIiEESaIS3_EEEE7_M_tailERS7_
FNDA:4,_ZNSt11_Tuple_implILm0EJRiRSt6vectorIS1_IiSaIiEESaIS3_EEEE7_M_tailERS7_
FN:201,_ZNSt11_Tuple_implILm0EJiSt6vectorIS0_IiSaIiEESaIS2_EEEE7_M_tailERS5_
FNDA:4,_ZNSt11_Tuple_implILm0EJiSt6vectorIS0_IiSaIiEESaIS2_EEEE7_M_tailERS5_
FN:210,_ZNSt11_Tuple_implILm0EJRiRSt6vectorIS1_IiSaIiEESaIS3_EEEEC2ES0_S6_
FNDA:4,_ZNSt11_Tuple_implILm0EJRiRSt6vectorIS1_IiSaIiEESaIS3_EEEEC2ES0_S6_
FN:306,_ZNSt11_Tuple_implILm0EJRiRSt6vectorIS1_IiSaIiEESaIS3_EEEE9_M_assignIiJS5_EEEvOS_ILm0EJT_DpT0_EE
FNDA:4,_ZNSt11_Tuple_implILm0EJRiRSt6vectorIS1_IiSaIiEESaIS3_EEEE9_M_assignIiJS5_EEEvOS_ILm0EJT_DpT0_EE
FN:334,_ZNSt11_Tuple_implILm1EJSt6vectorIS0_IiSaIiEESaIS2_EEEE7_M_headERS5_
FNDA:65,_ZNSt11_Tuple_implILm1EJSt6vectorIS0_IiSaIiEESaIS2_EEEE7_M_headERS5_
FN:334,_ZNSt11_Tuple_implILm1EJRSt6vectorIS0_IiSaIiEESaIS2_EEEE7_M_headERS6_
FNDA:4,_ZNSt11_Tuple_implILm1EJRSt6vectorIS0_IiSaIiEESaIS2_EEEE7_M_headERS6_
FN:343,_ZNSt11_Tuple_implILm1EJRSt6vectorIS0_IiSaIiEESaIS2_EEEEC2ES5_
FNDA:4,_ZNSt11_Tuple_implILm1EJRSt6vectorIS0_IiSaIiEESaIS2_EEEEC2ES5_
FN:419,_ZNSt11_Tuple_implILm1EJRSt6vectorIS0_IiSaIiEESaIS2_EEEE9_M_assignIS4_EEvOS_ILm1EJT_EE
FNDA:4,_ZNSt11_Tuple_implILm1EJRSt6vectorIS0_IiSaIiEESaIS2_EEEE9_M_assignIS4_EEvOS_ILm1EJT_EE
FN:945,_ZNSt5tupleIJRiRSt6vectorIS1_IiSaIiEESaIS3_EEEEC2IvLb1EEES0_S6_
FNDA:4,_ZNSt5tupleIJRiRSt6vectorIS1_IiSaIiEESaIS3_EEEEC2IvLb1EEES0_S6_
FN:1235,_ZNSt5tupleIJRiRSt6vectorIS1_IiSaIiEESaIS3_EEEEaSIiS5_EENSt9enable_ifIXcl12__assignableIT_T0_EEERS7_E4typeEOS_IJSA_SB_EE
FNDA:4,_ZNSt5tupleIJRiRSt6vectorIS1_IiSaIiEESaIS3_EEEEaSIiS5_EENSt9enable_ifIXcl12__assignableIT_T0_EEERS7_E4typeEOS_IJSA_SB_EE
FN:1309,_ZSt12__get_helperILm1ESt6vectorIS0_IiSaIiEESaIS2_EEJEERT0_RSt11_Tuple_implIXT_EJS5_DpT1_EE
FNDA:61,_ZSt12__get_helperILm1ESt6vectorIS0_IiSaIiEESaIS2_EEJEERT0_RSt11_Tuple_implIXT_EJS5_DpT1_EE
FN:1320,_ZSt3getILm1EJiSt6vectorIS0_IiSaIiEESaIS2_EEEERNSt13tuple_elementIXT_ESt5tupleIJDpT0_EEE4typeERS9_
FNDA:61,_ZSt3getILm1EJiSt6vectorIS0_IiSaIiEESaIS2_EEEERNSt13tuple_elementIXT_ESt5tupleIJDpT0_EEE4typeERS9_
FN:1332,_ZSt3getILm1EJiSt6vectorIS0_IiSaIiEESaIS2_EEEEONSt13tuple_elementIXT_ESt5tupleIJDpT0_EEE4typeEOS9_
FNDA:61,_ZSt3getILm1EJiSt6vectorIS0_IiSaIiEESaIS2_EEEEONSt13tuple_elementIXT_ESt5tupleIJDpT0_EEE4typeEOS9_
FN:1611,_ZSt3tieIJiSt6vectorIS0_IiSaIiEESaIS2_EEEESt5tupleIJDpRT_EES8_
FNDA:4,_ZSt3tieIJiSt6vectorIS0_IiSaIiEESaIS2_EEEESt5tupleIJDpRT_EES8_
DA:125,4
DA:126,4
DA:125,4
DA:126,4
DA:160,4
DA:160,65
DA:160,4
DA:160,4
DA:195,4
DA:195,4
DA:201,4
DA:201,4
DA:210,4
DA:211,4
DA:306,4
DA:308,4
DA:309,4
DA:310,8
DA:311,4
DA:312,4
DA:334,4
DA:334,65
DA:343,4
DA:344,4
DA:419,4
DA:421,4
DA:422,8
DA:423,4
DA:945,4
DA:946,4
DA:1235,4
DA:1238,4
DA:1239,4
DA:1309,61
DA:1310,61
DA:1320,61
DA:1321,61
DA:1332,61
DA:1335,61
DA:1611,4
DA:1612,4
end_of_record
SF:/usr/include/c++/9/bits/cpp_type_traits.h
FN:428,_ZSt12__miter_baseIN9__gnu_cxx17__normal_iteratorIPKiSt6vectorIiSaIiEEEEET_S8_
FNDA:15518,_ZSt12__miter_baseIN9__gnu_cxx17__normal_iteratorIPKiSt6vectorIiSaIiEEEEET_S8_
FN:428,_ZSt12__miter_baseIPKiET_S2_
FNDA:57118,_ZSt12__miter_baseIPKiET_S2_
DA:428,15518
DA:429,15518
DA:428,57118
DA:429,57118
end_of_record
SF:/usr/include/c++/9/bits/stl_algobase.h
FN:198,_ZSt3minImERKT_S2_S2_
FNDA:57342,_ZSt3minImERKT_S2_S2_
FN:222,_ZSt3maxImERKT_S2_S2_
FNDA:14292,_ZSt3maxImERKT_S2_S2_
FN:280,_ZSt12__niter_baseIPSt6vectorIiSaIiEEET_S4_
FNDA:84726,_ZSt12__niter_baseIPSt6vectorIiSaIiEEET_S4_
FN:280,_ZSt12__niter_baseIPSt6vectorIS0_IiSaIiEESaIS2_EEET_S6_
FNDA:474,_ZSt12__niter_baseIPSt6vectorIS0_IiSaIiEESaIS2_EEET_S6_
FN:280,_ZSt12__niter_baseIPiET_S1_
FNDA:36682,_ZSt12__niter_baseIPiET_S1_
FN:280,_ZSt12__niter_baseIPKiET_S2_
FNDA:57118,_ZSt12__niter_baseIPKiET_S2_
FN:295,_ZSt12__niter_wrapIPiET_RKS1_S1_
FNDA:36322,_ZSt12__niter_wrapIPiET_RKS1_S1_
FN:375,_ZNSt11__copy_moveILb0ELb1ESt26random_access_iterator_tagE8__copy_mIiEEPT_PKS3_S6_S4_
FNDA:36318,_ZNSt11__copy_moveILb0ELb1ESt26random_access_iterator_tagE8__copy_mIiEEPT_PKS3_S6_S4_
FN:393,_ZSt13__copy_move_aILb0EPKiPiET1_T0_S4_S3_
FNDA:36318,_ZSt13__copy_move_aILb0EPKiPiET1_T0_S4_S3_
FN:438,_ZSt14__copy_move_a2ILb0EN9__gnu_cxx17__normal_iteratorIPKiSt6vectorIiSaIiEEEEPiET1_T0_SA_S9_
FNDA:7759,_ZSt14__copy_move_a2ILb0EN9__gnu_cxx17__normal_iteratorIPKiSt6vectorIiSaIiEEEEPiET1_T0_SA_S9_
FN:438,_ZSt14__copy_move_a2ILb0EPKiPiET1_T0_S4_S3_
FNDA:28559,_ZSt14__copy_move_a2ILb0EPKiPiET1_T0_S4_S3_
FN:465,_ZSt4copyIN9__gnu_cxx17__normal_iteratorIPKiSt6vectorIiSaIiEEEEPiET0_T_SA_S9_
FNDA:7759,_ZSt4copyIN9__gnu_cxx17__normal_iteratorIPKiSt6vectorIiSaIiEEEEPiET0_T_SA_S9_
FN:465,_ZSt4copyIPKiPiET0_T_S4_S3_
FNDA:28559,_ZSt4copyIPKiPiET0_T_S4_S3_
DA:198,57342
DA:203,57342
DA:204,0
DA:205,57342
DA:222,14292
DA:227,14292
DA:228,3160
DA:229,11132
DA:280,84726
DA:282,84726
DA:280,474
DA:282,474
DA:280,36682
DA:282,36682
DA:280,57118
DA:282,57118
DA:295,36322
DA:296,36322
DA:375,36318
DA:384,36318
DA:385,36318
DA:386,36317
DA:387,36318
DA:393,36318
DA:398,36318
DA:404,36318
DA:438,7759
DA:440,7759
DA:443,7759
DA:438,28559
DA:440,28559
DA:443,28559
DA:465,7759
DA:474,7759
DA:465,28559
DA:474,28559
end_of_record
SF:/usr/include/c++/9/ext/new_allocator.h
FN:80,_ZN9__gnu_cxx13new_allocatorIiEC2Ev
FNDA:28571,_ZN9__gnu_cxx13new_allocatorIiEC2Ev
FN:80,_ZN9__gnu_cxx13new_allocatorISt6vectorIiSaIiEEEC2Ev
FNDA:3691,_ZN9__gnu_cxx13new_allocatorISt6vectorIiSaIiEEEC2Ev
FN:80,_ZN9__gnu_cxx13new_allocatorISt6vectorIS1_IiSaIiEESaIS3_EEEC2Ev
FNDA:50,_ZN9__gnu_cxx13new_allocatorISt6vectorIS1_IiSaIiEESaIS3_EEEC2Ev
FN:83,_ZN9__gnu_cxx13new_allocatorISt6vectorIS1_IiSaIiEESaIS3_EEEC2ERKS6_
FNDA:28,_ZN9__gnu_cxx13new_allocatorISt6vectorIS1_IiSaIiEESaIS3_EEEC2ERKS6_
FN:83,_ZN9__gnu_cxx13new_allocatorIiEC2ERKS1_
FNDA:134916,_ZN9__gnu_cxx13new_allocatorIiEC2ERKS1_
FN:83,_ZN9__gnu_cxx13new_allocatorISt6vectorIiSaIiEEEC2ERKS4_
FNDA:7309,_ZN9__gnu_cxx13new_allocatorISt6vectorIiSaIiEEEC2ERKS4_
FN:89,_ZN9__gnu_cxx13new_allocatorISt6vectorIiSaIiEEED2Ev
FNDA:11000,_ZN9__gnu_cxx13new_allocatorISt6vectorIiSaIiEEED2Ev
FN:89,_ZN9__gnu_cxx13new_allocatorISt6vectorIS1_IiSaIiEESaIS3_EEED2Ev
FNDA:78,_ZN9__gnu_cxx13new_allocatorISt6vectorIS1_IiSaIiEESaIS3_EEED2Ev
FN:89,_ZN9__gnu_cxx13new_allocatorIiED2Ev
FNDA:163487,_ZN9__gnu_cxx13new_allocatorIiED2Ev
FN:102,_ZN9__gnu_cxx13new_allocatorISt6vectorIiSaIiEEE8allocateEmPKv
FNDA:14895,_ZN9__gnu_cxx13new_allocatorISt6vectorIiSaIiEEE8allocateEmPKv
FN:102,_ZN9__gnu_cxx13new_allocatorISt6vectorIS1_IiSaIiEESaIS3_EEE8allocateEmPKv
FNDA:79,_ZN9__gnu_cxx13new_allocatorISt6vectorIS1_IiSaIiEESaIS3_EEE8allocateEmPKv
FN:102,_ZN9__gnu_cxx13new_allocatorIiE8allocateEmPKv
FNDA:36367,_ZN9__gnu_cxx13new_allocatorIiE8allocateEmPKv
FN:119,_ZN9__gnu_cxx13new_allocatorIiE10deallocateEPim
FNDA:36367,_ZN9__gnu_cxx13new_allocatorIiE10deallocateEPim
FN:119,_ZN9__gnu_cxx13new_allocatorISt6vectorIS1_IiSaIiEESaIS3_EEE10deallocateEPS5_m
FNDA:79,_ZN9__gnu_cxx13new_allocatorISt6vectorIS1_IiSaIiEESaIS3_EEE10deallocateEPS5_m
FN:119,_ZN9__gnu_cxx13new_allocatorISt6vectorIiSaIiEEE10deallocateEPS3_m
FNDA:14895,_ZN9__gnu_cxx13new_allocatorISt6vectorIiSaIiEEE10deallocateEPS3_m
FN:132,_ZNK9__gnu_cxx13new_allocatorISt6vectorIiSaIiEEE8max_sizeEv
FNDA:43346,_ZNK9__gnu_cxx13new_allocatorISt6vectorIiSaIiEEE8max_sizeEv
FN:132,_ZNK9__gnu_cxx13new_allocatorIiE8max_sizeEv
FNDA:65036,_ZNK9__gnu_cxx13new_allocatorIiE8max_sizeEv
FN:132,_ZNK9__gnu_cxx13new_allocatorISt6vectorIS1_IiSaIiEESaIS3_EEE8max_sizeEv
FNDA:237,_ZNK9__gnu_cxx13new_allocatorISt6vectorIS1_IiSaIiEESaIS3_EEE8max_sizeEv
FN:144,_ZN9__gnu_cxx13new_allocatorISt6vectorIS1_IiSaIiEESaIS3_EEE9constructIS5_JRKS5_EEEvPT_DpOT0_
FNDA:96,_ZN9__gnu_cxx13new_allocatorISt6vectorIS1_IiSaIiEESaIS3_EEE9constructIS5_JRKS5_EEEvPT_DpOT0_
FN:144,_ZN9__gnu_cxx13new_allocatorISt6vectorIiSaIiEEE9constructIS3_JS3_EEEvPT_DpOT0_
FNDA:61656,_ZN9__gnu_cxx13new_allocatorISt6vectorIiSaIiEEE9constructIS3_JS3_EEEvPT_DpOT0_
FN:144,_ZN9__gnu_cxx13new_allocatorISt6vectorIS1_IiSaIiEESaIS3_EEE9constructIS5_JS5_EEEvPT_DpOT0_
FNDA:99,_ZN9__gnu_cxx13new_allocatorISt6vectorIS1_IiSaIiEESaIS3_EEE9constructIS5_JS5_EEEvPT_DpOT0_
FN:151,_ZN9__gnu_cxx13new_allocatorISt6vectorIS1_IiSaIiEESaIS3_EEE7destroyIS5_EEvPT_
FNDA:99,_ZN9__gnu_cxx13new_allocatorISt6vectorIS1_IiSaIiEESaIS3_EEE7destroyIS5_EEvPT_
FN:151,_ZN9__gnu_cxx13new_allocatorISt6vectorIiSaIiEEE7destroyIS3_EEvPT_
FNDA:39414,_ZN9__gnu_cxx13new_allocatorISt6vectorIiSaIiEEE7destroyIS3_EEvPT_
DA:80,50
DA:80,3691
DA:80,28571
DA:83,28
DA:83,134916
DA:83,7309
DA:89,163487
DA:89,78
DA:89,11000
DA:102,14895
DA:104,14895
DA:105,0
DA:114,14895
DA:102,79
DA:104,79
DA:105,0
DA:114,79
DA:102,36367
DA:104,36367
DA:105,0
DA:114,36367
DA:119,36367
DA:128,36367
DA:129,36367
DA:119,79
DA:128,79
DA:129,79
DA:119,14895
DA:128,14895
DA:129,14895
DA:132,43346
DA:135,43346
DA:132,237
DA:135,237
DA:132,65036
DA:135,65036
DA:144,99
DA:147,99
DA:144,61656
DA:147,61656
DA:144,96
DA:147,96
DA:151,39414
DA:153,39414
DA:151,99
DA:153,99
end_of_record
SF:/usr/include/c++/9/bits/stl_construct.h
FN:74,_ZSt10_ConstructISt6vectorIiSaIiEEJS2_EEvPT_DpOT0_
FNDA:0,_ZSt10_ConstructISt6vectorIiSaIiEEJS2_EEvPT_DpOT0_
FN:74,_ZSt10_ConstructISt6vectorIiSaIiEEJRKS2_EEvPT_DpOT0_
FNDA:6657,_ZSt10_ConstructISt6vectorIiSaIiEEJRKS2_EEvPT_DpOT0_
FN:74,_ZSt10_ConstructISt6vectorIS0_IiSaIiEESaIS2_EEJS4_EEvPT_DpOT0_
FNDA:0,_ZSt10_ConstructISt6vectorIS0_IiSaIiEESaIS2_EEJS4_EEvPT_DpOT0_
FN:97,_ZSt8_DestroyISt6vectorIS0_IiSaIiEESaIS2_EEEvPT_
FNDA:96,_ZSt8_DestroyISt6vectorIS0_IiSaIiEESaIS2_EEEvPT_
FN:97,_ZSt8_DestroyISt6vectorIiSaIiEEEvPT_
FNDA:29936,_ZSt8_DestroyISt6vectorIiSaIiEEEvPT_
FN:105,_ZNSt12_Destroy_auxILb0EE9__destroyIPSt6vectorIS2_IiSaIiEESaIS4_EEEEvT_S8_
FNDA:64,_ZNSt12_Destroy_auxILb0EE9__destroyIPSt6vectorIS2_IiSaIiEESaIS4_EEEEvT_S8_
FN:105,_ZNSt12_Destroy_auxILb0EE9__destroyIPSt6vectorIiSaIiEEEEvT_S6_
FNDA:7553,_ZNSt12_Destroy_auxILb0EE9__destroyIPSt6vectorIiSaIiEEEEvT_S6_
FN:117,_ZNSt12_Destroy_auxILb1EE9__destroyIPiEEvT_S3_
FNDA:98404,_ZNSt12_Destroy_auxILb1EE9__destroyIPiEEvT_S3_
FN:127,_ZSt8_DestroyIPiEvT_S1_
FNDA:98404,_ZSt8_DestroyIPiEvT_S1_
FN:127,_ZSt8_DestroyIPSt6vectorIS0_IiSaIiEESaIS2_EEEvT_S6_
FNDA:64,_ZSt8_DestroyIPSt6vectorIS0_IiSaIiEESaIS2_EEEvT_S6_
FN:127,_ZSt8_DestroyIPSt6vectorIiSaIiEEEvT_S4_
FNDA:7553,_ZSt8_DestroyIPSt6vectorIiSaIiEEEvT_S4_
FN:203,_ZSt8_DestroyIPiiEvT_S1_RSaIT0_E
FNDA:98404,_ZSt8_DestroyIPiiEvT_S1_RSaIT0_E
FN:203,_ZSt8_DestroyIPSt6vectorIS0_IiSaIiEESaIS2_EES4_EvT_S6_RSaIT0_E
FNDA:64,_ZSt8_DestroyIPSt6vectorIS0_IiSaIiEESaIS2_EES4_EvT_S6_RSaIT0_E
FN:203,_ZSt8_DestroyIPSt6vectorIiSaIiEES2_EvT_S4_RSaIT0_E
FNDA:7553,_ZSt8_DestroyIPSt6vectorIiSaIiEES2_EvT_S4_RSaIT0_E
DA:74,0
DA:75,0
DA:74,6657
DA:75,6657
DA:74,0
DA:75,0
DA:97,96
DA:98,96
DA:97,29936
DA:98,29936
DA:105,160
DA:107,160
DA:108,96
DA:109,64
DA:105,37489
DA:107,37489
DA:108,29936
DA:109,7553
DA:117,98404
DA:127,98404
DA:137,98404
DA:138,98404
DA:127,64
DA:137,64
DA:138,64
DA:127,7553
DA:137,7553
DA:138,7553
DA:203,98404
DA:206,98404
DA:207,98404
DA:203,64
DA:206,64
DA:207,64
DA:203,7553
DA:206,7553
DA:207,7553
end_of_record
SF:/home/pato/TPIMorfMat/template-alumnos/ejercicios.cpp
FN:8,_Z14esImagenValidaRKSt6vectorIS_IiSaIiEESaIS1_EE
FNDA:10,_Z14esImagenValidaRKSt6vectorIS_IiSaIiEESaIS1_EE
FN:14,_Z20sonPixelesConectadosRKSt6vectorIS_IiSaIiEESaIS1_EERKS1_S7_i
FNDA:21,_Z20sonPixelesConectadosRKSt6vectorIS_IiSaIiEESaIS1_EERKS1_S7_i
FN:20,_Z21devolverPromedioAreasRKSt6vectorIS_IiSaIiEESaIS1_EEi
FNDA:18,_Z21devolverPromedioAreasRKSt6vectorIS_IiSaIiEESaIS1_EEi
FN:51,_Z16calcularContornoRKSt6vectorIS_IiSaIiEESaIS1_EEi
FNDA:8,_Z16calcularContornoRKSt6vectorIS_IiSaIiEESaIS1_EEi
FN:67,_Z11cerrarFormaRSt6vectorIS_IiSaIiEESaIS1_EERKS3_
FNDA:2,_Z11cerrarFormaRSt6vectorIS_IiSaIiEESaIS1_EERKS3_
FN:89,_Z22obtenerRegionConectadaRSt6vectorIS_IiSaIiEESaIS1_EERKS1_
FNDA:4,_Z22obtenerRegionConectadaRSt6vectorIS_IiSaIiEESaIS1_EERKS1_
DA:8,10
DA:9,10
DA:14,21
DA:15,21
DA:20,18
DA:21,18
DA:22,36
DA:23,36
DA:24,18
DA:26,69
DA:27,194
DA:28,143
DA:29,61
DA:30,61
DA:34,18
DA:35,4
DA:37,14
DA:38,14
DA:39,49
DA:40,35
DA:42,14
DA:46,36
DA:51,8
DA:52,8
DA:53,52
DA:54,292
DA:55,248
DA:56,132
DA:57,104
DA:62,8
DA:67,2
DA:68,4
DA:69,4
DA:70,2
DA:72,16
DA:73,14
DA:76,4
DA:77,4
DA:79,16
DA:80,98
DA:81,84
DA:85,2
DA:89,4
DA:91,4
DA:92,4
DA:93,4
DA:95,8
end_of_record
SF:/usr/include/c++/9/bits/stl_vector.h
FN:94,_ZNSt12_Vector_baseIiSaIiEE17_Vector_impl_dataC2Ev
FNDA:37010,_ZNSt12_Vector_baseIiSaIiEE17_Vector_impl_dataC2Ev
FN:94,_ZNSt12_Vector_baseISt6vectorIS0_IiSaIiEESaIS2_EESaIS4_EE17_Vector_impl_dataC2Ev
FNDA:92,_ZNSt12_Vector_baseISt6vectorIS0_IiSaIiEESaIS2_EESaIS4_EE17_Vector_impl_dataC2Ev
FN:94,_ZNSt12_Vector_baseISt6vectorIiSaIiEESaIS2_EE17_Vector_impl_dataC2Ev
FNDA:13288,_ZNSt12_Vector_baseISt6vectorIiSaIiEESaIS2_EE17_Vector_impl_dataC2Ev
FN:99,_ZNSt12_Vector_baseIiSaIiEE17_Vector_impl_dataC2EOS2_
FNDA:61848,_ZNSt12_Vector_baseIiSaIiEE17_Vector_impl_dataC2EOS2_
FN:99,_ZNSt12_Vector_baseISt6vectorIiSaIiEESaIS2_EE17_Vector_impl_dataC2EOS5_
FNDA:99,_ZNSt12_Vector_baseISt6vectorIiSaIiEESaIS2_EE17_Vector_impl_dataC2EOS5_
FN:106,_ZNSt12_Vector_baseISt6vectorIiSaIiEESaIS2_EE17_Vector_impl_data12_M_copy_dataERKS5_
FNDA:18408,_ZNSt12_Vector_baseISt6vectorIiSaIiEESaIS2_EE17_Vector_impl_data12_M_copy_dataERKS5_
FN:106,_ZNSt12_Vector_baseISt6vectorIS0_IiSaIiEESaIS2_EESaIS4_EE17_Vector_impl_data12_M_copy_dataERKS7_
FNDA:84,_ZNSt12_Vector_baseISt6vectorIS0_IiSaIiEESaIS2_EESaIS4_EE17_Vector_impl_data12_M_copy_dataERKS7_
FN:114,_ZNSt12_Vector_baseISt6vectorIS0_IiSaIiEESaIS2_EESaIS4_EE17_Vector_impl_data12_M_swap_dataERS7_
FNDA:28,_ZNSt12_Vector_baseISt6vectorIS0_IiSaIiEESaIS2_EESaIS4_EE17_Vector_impl_data12_M_swap_dataERS7_
FN:114,_ZNSt12_Vector_baseISt6vectorIiSaIiEESaIS2_EE17_Vector_impl_data12_M_swap_dataERS5_
FNDA:6136,_ZNSt12_Vector_baseISt6vectorIiSaIiEESaIS2_EE17_Vector_impl_data12_M_swap_dataERS5_
FN:128,_ZNSt12_Vector_baseISt6vectorIS0_IiSaIiEESaIS2_EESaIS4_EE12_Vector_implC2Ev
FNDA:50,_ZNSt12_Vector_baseISt6vectorIS0_IiSaIiEESaIS2_EESaIS4_EE12_Vector_implC2Ev
FN:128,_ZNSt12_Vector_baseISt6vectorIiSaIiEESaIS2_EE12_Vector_implC2Ev
FNDA:3612,_ZNSt12_Vector_baseISt6vectorIiSaIiEESaIS2_EE12_Vector_implC2Ev
FN:133,_ZNSt12_Vector_baseISt6vectorIS0_IiSaIiEESaIS2_EESaIS4_EE12_Vector_implC2ERKS5_
FNDA:14,_ZNSt12_Vector_baseISt6vectorIS0_IiSaIiEESaIS2_EESaIS4_EE12_Vector_implC2ERKS5_
FN:133,_ZNSt12_Vector_baseIiSaIiEE12_Vector_implC2ERKS0_
FNDA:36534,_ZNSt12_Vector_baseIiSaIiEE12_Vector_implC2ERKS0_
FN:133,_ZNSt12_Vector_baseISt6vectorIiSaIiEESaIS2_EE12_Vector_implC2ERKS3_
FNDA:3540,_ZNSt12_Vector_baseISt6vectorIiSaIiEESaIS2_EE12_Vector_implC2ERKS3_
FN:140,_ZNSt12_Vector_baseIiSaIiEE12_Vector_implC2EOS2_
FNDA:61848,_ZNSt12_Vector_baseIiSaIiEE12_Vector_implC2EOS2_
FN:140,_ZNSt12_Vector_baseISt6vectorIiSaIiEESaIS2_EE12_Vector_implC2EOS5_
FNDA:99,_ZNSt12_Vector_baseISt6vectorIiSaIiEESaIS2_EE12_Vector_implC2EOS5_
FN:273,_ZNSt12_Vector_baseISt6vectorIS0_IiSaIiEESaIS2_EESaIS4_EE19_M_get_Tp_allocatorEv
FNDA:250,_ZNSt12_Vector_baseISt6vectorIS0_IiSaIiEESaIS2_EESaIS4_EE19_M_get_Tp_allocatorEv
FN:273,_ZNSt12_Vector_baseIiSaIiEE19_M_get_Tp_allocatorEv
FNDA:163833,_ZNSt12_Vector_baseIiSaIiEE19_M_get_Tp_allocatorEv
FN:273,_ZNSt12_Vector_baseISt6vectorIiSaIiEESaIS2_EE19_M_get_Tp_allocatorEv
FNDA:42910,_ZNSt12_Vector_baseISt6vectorIiSaIiEESaIS2_EE19_M_get_Tp_allocatorEv
FN:277,_ZNKSt12_Vector_baseISt6vectorIS0_IiSaIiEESaIS2_EESaIS4_EE19_M_get_Tp_allocatorEv
FNDA:172,_ZNKSt12_Vector_baseISt6vectorIS0_IiSaIiEESaIS2_EESaIS4_EE19_M_get_Tp_allocatorEv
FN:277,_ZNKSt12_Vector_baseISt6vectorIiSaIiEESaIS2_EE19_M_get_Tp_allocatorEv
FNDA:31703,_ZNKSt12_Vector_baseISt6vectorIiSaIiEESaIS2_EE19_M_get_Tp_allocatorEv
FN:277,_ZNKSt12_Vector_baseIiSaIiEE19_M_get_Tp_allocatorEv
FNDA:8105,_ZNKSt12_Vector_baseIiSaIiEE19_M_get_Tp_allocatorEv
FN:281,_ZNKSt12_Vector_baseISt6vectorIS0_IiSaIiEESaIS2_EESaIS4_EE13get_allocatorEv
FNDA:14,_ZNKSt12_Vector_baseISt6vectorIS0_IiSaIiEESaIS2_EESaIS4_EE13get_allocatorEv
FN:281,_ZNKSt12_Vector_baseISt6vectorIiSaIiEESaIS2_EE13get_allocatorEv
FNDA:3068,_ZNKSt12_Vector_baseISt6vectorIiSaIiEESaIS2_EE13get_allocatorEv
FN:285,_ZNSt12_Vector_baseISt6vectorIiSaIiEESaIS2_EEC2Ev
FNDA:3612,_ZNSt12_Vector_baseISt6vectorIiSaIiEESaIS2_EEC2Ev
FN:285,_ZNSt12_Vector_baseISt6vectorIS0_IiSaIiEESaIS2_EESaIS4_EEC2Ev
FNDA:50,_ZNSt12_Vector_baseISt6vectorIS0_IiSaIiEESaIS2_EESaIS4_EEC2Ev
FN:290,_ZNSt12_Vector_baseIiSaIiEEC2ERKS0_
FNDA:28771,_ZNSt12_Vector_baseIiSaIiEEC2ERKS0_
FN:290,_ZNSt12_Vector_baseISt6vectorIS0_IiSaIiEESaIS2_EESaIS4_EEC2ERKS5_
FNDA:14,_ZNSt12_Vector_baseISt6vectorIS0_IiSaIiEESaIS2_EESaIS4_EEC2ERKS5_
FN:290,_ZNSt12_Vector_baseISt6vectorIiSaIiEESaIS2_EEC2ERKS3_
FNDA:3143,_ZNSt12_Vector_baseISt6vectorIiSaIiEESaIS2_EEC2ERKS3_
FN:300,_ZNSt12_Vector_baseIiSaIiEEC2EmRKS0_
FNDA:7763,_ZNSt12_Vector_baseIiSaIiEEC2EmRKS0_
FN:300,_ZNSt12_Vector_baseISt6vectorIiSaIiEESaIS2_EEC2EmRKS3_
FNDA:397,_ZNSt12_Vector_baseISt6vectorIiSaIiEESaIS2_EEC2EmRKS3_
FN:305,_ZNSt12_Vector_baseISt6vectorIiSaIiEESaIS2_EEC2EOS4_
FNDA:99,_ZNSt12_Vector_baseISt6vectorIiSaIiEESaIS2_EEC2EOS4_
FN:305,_ZNSt12_Vector_baseIiSaIiEEC2EOS1_
FNDA:61848,_ZNSt12_Vector_baseIiSaIiEEC2EOS1_
FN:330,_ZNSt12_Vector_baseISt6vectorIiSaIiEESaIS2_EED2Ev
FNDA:7251,_ZNSt12_Vector_baseISt6vectorIiSaIiEESaIS2_EED2Ev
FN:330,_ZNSt12_Vector_baseISt6vectorIS0_IiSaIiEESaIS2_EESaIS4_EED2Ev
FNDA:64,_ZNSt12_Vector_baseISt6vectorIS0_IiSaIiEESaIS2_EESaIS4_EED2Ev
FN:330,_ZNSt12_Vector_baseIiSaIiEED2Ev
FNDA:98404,_ZNSt12_Vector_baseIiSaIiEED2Ev
FN:340,_ZNSt12_Vector_baseISt6vectorIS0_IiSaIiEESaIS2_EESaIS4_EE11_M_allocateEm
FNDA:79,_ZNSt12_Vector_baseISt6vectorIS0_IiSaIiEESaIS2_EESaIS4_EE11_M_allocateEm
FN:340,_ZNSt12_Vector_baseIiSaIiEE11_M_allocateEm
FNDA:36368,_ZNSt12_Vector_baseIiSaIiEE11_M_allocateEm
FN:340,_ZNSt12_Vector_baseISt6vectorIiSaIiEESaIS2_EE11_M_allocateEm
FNDA:14895,_ZNSt12_Vector_baseISt6vectorIiSaIiEESaIS2_EE11_M_allocateEm
FN:347,_ZNSt12_Vector_baseISt6vectorIS0_IiSaIiEESaIS2_EESaIS4_EE13_M_deallocateEPS4_m
FNDA:143,_ZNSt12_Vector_baseISt6vectorIS0_IiSaIiEESaIS2_EESaIS4_EE13_M_deallocateEPS4_m
FN:347,_ZNSt12_Vector_baseISt6vectorIiSaIiEESaIS2_EE13_M_deallocateEPS2_m
FNDA:21674,_ZNSt12_Vector_baseISt6vectorIiSaIiEESaIS2_EE13_M_deallocateEPS2_m
FN:347,_ZNSt12_Vector_baseIiSaIiEE13_M_deallocateEPim
FNDA:98464,_ZNSt12_Vector_baseIiSaIiEE13_M_deallocateEPim
FN:356,_ZNSt12_Vector_baseIiSaIiEE17_M_create_storageEm
FNDA:7763,_ZNSt12_Vector_baseIiSaIiEE17_M_create_storageEm
FN:356,_ZNSt12_Vector_baseISt6vectorIiSaIiEESaIS2_EE17_M_create_storageEm
FNDA:397,_ZNSt12_Vector_baseISt6vectorIiSaIiEESaIS2_EE17_M_create_storageEm
FN:428,_ZNSt6vectorIS_IiSaIiEESaIS1_EE19_S_nothrow_relocateESt17integral_constantIbLb1EE
FNDA:28242,_ZNSt6vectorIS_IiSaIiEESaIS1_EE19_S_nothrow_relocateESt17integral_constantIbLb1EE
FN:428,_ZNSt6vectorIS_IS_IiSaIiEESaIS1_EESaIS3_EE19_S_nothrow_relocateESt17integral_constantIbLb1EE
FNDA:158,_ZNSt6vectorIS_IS_IiSaIiEESaIS1_EESaIS3_EE19_S_nothrow_relocateESt17integral_constantIbLb1EE
FN:441,_ZNSt6vectorIS_IiSaIiEESaIS1_EE15_S_use_relocateEv
FNDA:28242,_ZNSt6vectorIS_IiSaIiEESaIS1_EE15_S_use_relocateEv
FN:441,_ZNSt6vectorIS_IS_IiSaIiEESaIS1_EESaIS3_EE15_S_use_relocateEv
FNDA:158,_ZNSt6vectorIS_IS_IiSaIiEESaIS1_EESaIS3_EE15_S_use_relocateEv
FN:450,_ZNSt6vectorIS_IiSaIiEESaIS1_EE14_S_do_relocateEPS1_S4_S4_RS2_St17integral_constantIbLb1EE
FNDA:28242,_ZNSt6vectorIS_IiSaIiEESaIS1_EE14_S_do_relocateEPS1_S4_S4_RS2_St17integral_constantIbLb1EE
FN:450,_ZNSt6vectorIS_IS_IiSaIiEESaIS1_EESaIS3_EE14_S_do_relocateEPS3_S6_S6_RS4_St17integral_constantIbLb1EE
FNDA:158,_ZNSt6vectorIS_IS_IiSaIiEESaIS1_EESaIS3_EE14_S_do_relocateEPS3_S6_S6_RS4_St17integral_constantIbLb1EE
FN:462,_ZNSt6vectorIS_IiSaIiEESaIS1_EE11_S_relocateEPS1_S4_S4_RS2_
FNDA:28242,_ZNSt6vectorIS_IiSaIiEESaIS1_EE11_S_relocateEPS1_S4_S4_RS2_
FN:462,_ZNSt6vectorIS_IS_IiSaIiEESaIS1_EESaIS3_EE11_S_relocateEPS3_S6_S6_RS4_
FNDA:158,_ZNSt6vectorIS_IS_IiSaIiEESaIS1_EESaIS3_EE11_S_relocateEPS3_S6_S6_RS4_
FN:484,_ZNSt6vectorIS_IiSaIiEESaIS1_EEC2Ev
FNDA:3612,_ZNSt6vectorIS_IiSaIiEESaIS1_EEC2Ev
FN:484,_ZNSt6vectorIS_IS_IiSaIiEESaIS1_EESaIS3_EEC2Ev
FNDA:50,_ZNSt6vectorIS_IS_IiSaIiEESaIS1_EESaIS3_EEC2Ev
FN:494,_ZNSt6vectorIS_IiSaIiEESaIS1_EEC2ERKS2_
FNDA:3068,_ZNSt6vectorIS_IiSaIiEESaIS1_EEC2ERKS2_
FN:494,_ZNSt6vectorIS_IS_IiSaIiEESaIS1_EESaIS3_EEC2ERKS4_
FNDA:14,_ZNSt6vectorIS_IS_IiSaIiEESaIS1_EESaIS3_EEC2ERKS4_
FN:550,_ZNSt6vectorIiSaIiEEC2ERKS1_
FNDA:7759,_ZNSt6vectorIiSaIiEEC2ERKS1_
FN:550,_ZNSt6vectorIS_IiSaIiEESaIS1_EEC2ERKS3_
FNDA:393,_ZNSt6vectorIS_IiSaIiEESaIS1_EEC2ERKS3_
FN:569,_ZNSt6vectorIiSaIiEEC2EOS1_
FNDA:61848,_ZNSt6vectorIiSaIiEEC2EOS1_
FN:569,_ZNSt6vectorIS_IiSaIiEESaIS1_EEC2EOS3_
FNDA:99,_ZNSt6vectorIS_IiSaIiEESaIS1_EEC2EOS3_
FN:622,_ZNSt6vectorIiSaIiEEC2ESt16initializer_listIiERKS0_
FNDA:28545,_ZNSt6vectorIiSaIiEEC2ESt16initializer_listIiERKS0_
FN:675,_ZNSt6vectorIS_IS_IiSaIiEESaIS1_EESaIS3_EED2Ev
FNDA:64,_ZNSt6vectorIS_IS_IiSaIiEESaIS1_EESaIS3_EED2Ev
FN:675,_ZNSt6vectorIiSaIiEED2Ev
FNDA:98404,_ZNSt6vectorIiSaIiEED2Ev
FN:675,_ZNSt6vectorIS_IiSaIiEESaIS1_EED2Ev
FNDA:7251,_ZNSt6vectorIS_IiSaIiEESaIS1_EED2Ev
FN:706,_ZNSt6vectorIS_IiSaIiEESaIS1_EEaSEOS3_
FNDA:3068,_ZNSt6vectorIS_IiSaIiEESaIS1_EEaSEOS3_
FN:706,_ZNSt6vectorIS_IS_IiSaIiEESaIS1_EESaIS3_EEaSEOS5_
FNDA:14,_ZNSt6vectorIS_IS_IiSaIiEESaIS1_EESaIS3_EEaSEOS5_
FN:727,_ZNSt6vectorIiSaIiEEaSESt16initializer_listIiE
FNDA:14,_ZNSt6vectorIiSaIiEEaSESt16initializer_listIiE
FN:808,_ZNSt6vectorIS_IS_IiSaIiEESaIS1_EESaIS3_EE5beginEv
FNDA:79,_ZNSt6vectorIS_IS_IiSaIiEESaIS1_EESaIS3_EE5beginEv
FN:808,_ZNSt6vectorIS_IiSaIiEESaIS1_EE5beginEv
FNDA:14137,_ZNSt6vectorIS_IiSaIiEESaIS1_EE5beginEv
FN:817,_ZNKSt6vectorIiSaIiEE5beginEv
FNDA:406423,_ZNKSt6vectorIiSaIiEE5beginEv
FN:817,_ZNKSt6vectorIS_IiSaIiEESaIS1_EE5beginEv
FNDA:589,_ZNKSt6vectorIS_IiSaIiEESaIS1_EE5beginEv
FN:817,_ZNKSt6vectorIS_IS_IiSaIiEESaIS1_EESaIS3_EE5beginEv
FNDA:18,_ZNKSt6vectorIS_IS_IiSaIiEESaIS1_EESaIS3_EE5beginEv
FN:826,_ZNSt6vectorIS_IiSaIiEESaIS1_EE3endEv
FNDA:14137,_ZNSt6vectorIS_IiSaIiEESaIS1_EE3endEv
FN:826,_ZNSt6vectorIS_IS_IiSaIiEESaIS1_EESaIS3_EE3endEv
FNDA:79,_ZNSt6vectorIS_IS_IiSaIiEESaIS1_EESaIS3_EE3endEv
FN:835,_ZNKSt6vectorIS_IiSaIiEESaIS1_EE3endEv
FNDA:577,_ZNKSt6vectorIS_IiSaIiEESaIS1_EE3endEv
FN:835,_ZNKSt6vectorIiSaIiEE3endEv
FNDA:207523,_ZNKSt6vectorIiSaIiEE3endEv
FN:835,_ZNKSt6vectorIS_IS_IiSaIiEESaIS1_EESaIS3_EE3endEv
FNDA:18,_ZNKSt6vectorIS_IS_IiSaIiEESaIS1_EESaIS3_EE3endEv
FN:915,_ZNKSt6vectorIS_IiSaIiEESaIS1_EE4sizeEv
FNDA:347858,_ZNKSt6vectorIS_IiSaIiEESaIS1_EE4sizeEv
FN:915,_ZNKSt6vectorIS_IS_IiSaIiEESaIS1_EESaIS3_EE4sizeEv
FNDA:711,_ZNKSt6vectorIS_IS_IiSaIiEESaIS1_EESaIS3_EE4sizeEv
FN:915,_ZNKSt6vectorIiSaIiEE4sizeEv
FNDA:410005,_ZNKSt6vectorIiSaIiEE4sizeEv
FN:920,_ZNKSt6vectorIS_IS_IiSaIiEESaIS1_EESaIS3_EE8max_sizeEv
FNDA:158,_ZNKSt6vectorIS_IS_IiSaIiEESaIS1_EESaIS3_EE8max_sizeEv
FN:920,_ZNKSt6vectorIS_IiSaIiEESaIS1_EE8max_sizeEv
FNDA:28242,_ZNKSt6vectorIS_IiSaIiEESaIS1_EE8max_sizeEv
FN:995,_ZNKSt6vectorIiSaIiEE8capacityEv
FNDA:14,_ZNKSt6vectorIiSaIiEE8capacityEv
FN:1004,_ZNKSt6vectorIS_IS_IiSaIiEESaIS1_EESaIS3_EE5emptyEv
FNDA:18,_ZNKSt6vectorIS_IS_IiSaIiEESaIS1_EESaIS3_EE5emptyEv
FN:1040,_ZNSt6vectorIS_IS_IiSaIiEESaIS1_EESaIS3_EEixEm
FNDA:35,_ZNSt6vectorIS_IS_IiSaIiEESaIS1_EESaIS3_EEixEm
FN:1040,_ZNSt6vectorIiSaIiEEixEm
FNDA:465,_ZNSt6vectorIiSaIiEEixEm
FN:1040,_ZNSt6vectorIS_IiSaIiEESaIS1_EEixEm
FNDA:516,_ZNSt6vectorIS_IiSaIiEESaIS1_EEixEm
FN:1058,_ZNKSt6vectorIiSaIiEEixEm
FNDA:98867,_ZNKSt6vectorIiSaIiEEixEm
FN:1058,_ZNKSt6vectorIS_IiSaIiEESaIS1_EEixEm
FNDA:271313,_ZNKSt6vectorIS_IiSaIiEESaIS1_EEixEm
FN:1184,_ZNSt6vectorIS_IS_IiSaIiEESaIS1_EESaIS3_EE9push_backERKS3_
FNDA:96,_ZNSt6vectorIS_IS_IiSaIiEESaIS1_EESaIS3_EE9push_backERKS3_
FN:1200,_ZNSt6vectorIS_IiSaIiEESaIS1_EE9push_backEOS1_
FNDA:22242,_ZNSt6vectorIS_IiSaIiEESaIS1_EE9push_backEOS1_
FN:1505,_ZNSt6vectorIiSaIiEE20_M_allocate_and_copyIPKiEEPimT_S6_
FNDA:0,_ZNSt6vectorIiSaIiEE20_M_allocate_and_copyIPKiEEPimT_S6_
FN:1574,_ZNSt6vectorIiSaIiEE19_M_range_initializeIPKiEEvT_S5_St20forward_iterator_tag
FNDA:28545,_ZNSt6vectorIiSaIiEE19_M_range_initializeIPKiEEvT_S5_St20forward_iterator_tag
FN:1753,_ZNKSt6vectorIS_IS_IiSaIiEESaIS1_EESaIS3_EE12_M_check_lenEmPKc
FNDA:79,_ZNKSt6vectorIS_IS_IiSaIiEESaIS1_EESaIS3_EE12_M_check_lenEmPKc
FN:1753,_ZNKSt6vectorIS_IiSaIiEESaIS1_EE12_M_check_lenEmPKc
FNDA:14121,_ZNKSt6vectorIS_IiSaIiEESaIS1_EE12_M_check_lenEmPKc
FN:1764,_ZNSt6vectorIiSaIiEE17_S_check_init_lenEmRKS0_
FNDA:28549,_ZNSt6vectorIiSaIiEE17_S_check_init_lenEmRKS0_
FN:1773,_ZNSt6vectorIS_IiSaIiEESaIS1_EE11_S_max_sizeERKS2_
FNDA:28451,_ZNSt6vectorIS_IiSaIiEESaIS1_EE11_S_max_sizeERKS2_
FN:1773,_ZNSt6vectorIiSaIiEE11_S_max_sizeERKS0_
FNDA:28669,_ZNSt6vectorIiSaIiEE11_S_max_sizeERKS0_
FN:1773,_ZNSt6vectorIS_IS_IiSaIiEESaIS1_EESaIS3_EE11_S_max_sizeERKS4_
FNDA:158,_ZNSt6vectorIS_IS_IiSaIiEESaIS1_EESaIS3_EE11_S_max_sizeERKS4_
FN:1789,_ZNSt6vectorIiSaIiEE15_M_erase_at_endEPi
FNDA:14,_ZNSt6vectorIiSaIiEE15_M_erase_at_endEPi
FN:1812,_ZNSt6vectorIS_IS_IiSaIiEESaIS1_EESaIS3_EE14_M_move_assignEOS5_St17integral_constantIbLb1EE
FNDA:14,_ZNSt6vectorIS_IS_IiSaIiEESaIS1_EESaIS3_EE14_M_move_assignEOS5_St17integral_constantIbLb1EE
FN:1812,_ZNSt6vectorIS_IiSaIiEESaIS1_EE14_M_move_assignEOS3_St17integral_constantIbLb1EE
FNDA:3068,_ZNSt6vectorIS_IiSaIiEESaIS1_EE14_M_move_assignEOS3_St17integral_constantIbLb1EE
DA:94,37010
DA:95,37010
DA:96,37010
DA:94,92
DA:95,92
DA:96,92
DA:94,13288
DA:95,13288
DA:96,13288
DA:99,61848
DA:100,61848
DA:101,61848
DA:102,61848
DA:99,99
DA:100,99
DA:101,99
DA:102,99
DA:106,84
DA:108,84
DA:109,84
DA:110,84
DA:111,84
DA:106,18408
DA:108,18408
DA:109,18408
DA:110,18408
DA:111,18408
DA:114,28
DA:118,28
DA:119,28
DA:120,28
DA:121,28
DA:122,28
DA:114,6136
DA:118,6136
DA:119,6136
DA:120,6136
DA:121,6136
DA:122,6136
DA:128,50
DA:130,50
DA:131,50
DA:128,3612
DA:130,3612
DA:131,3612
DA:133,14
DA:134,14
DA:135,14
DA:133,3540
DA:134,3540
DA:135,3540
DA:133,36534
DA:134,36534
DA:135,36534
DA:140,61848
DA:141,61848
DA:142,61848
DA:140,99
DA:141,99
DA:142,99
DA:273,163833
DA:274,163833
DA:273,250
DA:274,250
DA:273,42910
DA:274,42910
DA:277,8105
DA:278,8105
DA:277,172
DA:278,172
DA:277,31703
DA:278,31703
DA:281,14
DA:282,14
DA:281,3068
DA:282,3068
DA:285,50
DA:285,3612
DA:290,14
DA:291,14
DA:290,3143
DA:291,3143
DA:290,28771
DA:291,28771
DA:300,7763
DA:301,7763
DA:302,7763
DA:300,397
DA:301,397
DA:302,397
DA:305,61848
DA:305,99
DA:330,98404
DA:332,98404
DA:333,98404
DA:334,98404
DA:330,64
DA:332,64
DA:333,64
DA:334,64
DA:330,7251
DA:332,7251
DA:333,7251
DA:334,7251
DA:340,14895
DA:343,14895
DA:340,79
DA:343,79
DA:340,36368
DA:343,36368
DA:347,98464
DA:350,98464
DA:351,36367
DA:352,98464
DA:347,143
DA:350,143
DA:351,79
DA:352,143
DA:347,21674
DA:350,21674
DA:351,14895
DA:352,21674
DA:356,7763
DA:358,7763
DA:359,7763
DA:360,7763
DA:361,7763
DA:356,397
DA:358,397
DA:359,397
DA:360,397
DA:361,397
DA:428,28242
DA:433,28242
DA:428,158
DA:433,158
DA:441,28242
DA:446,28242
DA:441,158
DA:446,158
DA:450,28242
DA:453,28242
DA:450,158
DA:453,158
DA:462,28242
DA:466,28242
DA:462,158
DA:466,158
DA:484,50
DA:484,3612
DA:494,14
DA:495,14
DA:494,3068
DA:495,3068
DA:550,7759
DA:552,7759
DA:554,7759
DA:555,7759
DA:557,7759
DA:558,7759
DA:550,393
DA:552,393
DA:554,393
DA:555,393
DA:557,393
DA:558,393
DA:569,61848
DA:569,99
DA:622,28545
DA:624,28545
DA:626,28545
DA:628,28545
DA:675,98404
DA:677,98404
DA:678,98404
DA:680,98404
DA:675,64
DA:677,64
DA:678,64
DA:680,64
DA:675,7251
DA:677,7251
DA:678,7251
DA:680,7251
DA:706,14
DA:708,14
DA:711,14
DA:712,14
DA:706,3068
DA:708,3068
DA:711,3068
DA:712,3068
DA:727,14
DA:729,14
DA:731,14
DA:808,14137
DA:809,14137
DA:808,79
DA:809,79
DA:817,406423
DA:818,406423
DA:817,589
DA:818,589
DA:817,18
DA:818,18
DA:826,14137
DA:827,14137
DA:826,79
DA:827,79
DA:835,207523
DA:836,207523
DA:835,577
DA:836,577
DA:835,18
DA:836,18
DA:915,711
DA:916,711
DA:915,410005
DA:916,410005
DA:915,347858
DA:916,347858
DA:920,28242
DA:921,28242
DA:920,158
DA:921,158
DA:995,14
DA:996,14
DA:997,14
DA:1004,18
DA:1005,18
DA:1040,465
DA:1043,465
DA:1040,516
DA:1043,516
DA:1040,35
DA:1043,35
DA:1058,98867
DA:1061,98867
DA:1058,271313
DA:1061,271313
DA:1184,96
DA:1186,96
DA:1189,17
DA:1191,17
DA:1195,79
DA:1196,96
DA:1200,22242
DA:1201,22242
DA:1505,0
DA:1508,0
DA:1511,0
DA:1512,0
DA:1513,0
DA:1515,0
DA:1517,0
DA:1518,0
DA:1574,28545
DA:1577,28545
DA:1578,28545
DA:1579,28545
DA:1580,28545
DA:1581,28545
DA:1582,28545
DA:1584,28545
DA:1585,28545
DA:1753,14121
DA:1755,14121
DA:1756,0
DA:1758,14121
DA:1759,14121
DA:1753,79
DA:1755,79
DA:1756,0
DA:1758,79
DA:1759,79
DA:1764,28549
DA:1766,28549
DA:1767,0
DA:1769,28549
DA:1773,28451
DA:1778,28451
DA:1780,28451
DA:1781,28451
DA:1773,158
DA:1778,158
DA:1780,158
DA:1781,158
DA:1773,28669
DA:1778,28669
DA:1780,28669
DA:1781,28669
DA:1789,14
DA:1791,14
DA:1793,0
DA:1794,0
DA:1795,0
DA:1798,14
DA:1812,14
DA:1814,28
DA:1815,14
DA:1816,14
DA:1817,14
DA:1818,14
DA:1812,3068
DA:1814,6136
DA:1815,3068
DA:1816,3068
DA:1817,3068
DA:1818,3068
end_of_record
SF:/usr/include/c++/9/bits/stl_iterator.h
FN:806,_ZN9__gnu_cxx17__normal_iteratorIPKSt6vectorIS1_IiSaIiEESaIS3_EES1_IS5_SaIS5_EEEC2ERKS7_
FNDA:36,_ZN9__gnu_cxx17__normal_iteratorIPKSt6vectorIS1_IiSaIiEESaIS3_EES1_IS5_SaIS5_EEEC2ERKS7_
FN:806,_ZN9__gnu_cxx17__normal_iteratorIPKSt6vectorIiSaIiEES1_IS3_SaIS3_EEEC2ERKS5_
FNDA:1166,_ZN9__gnu_cxx17__normal_iteratorIPKSt6vectorIiSaIiEES1_IS3_SaIS3_EEEC2ERKS5_
FN:806,_ZN9__gnu_cxx17__normal_iteratorIPSt6vectorIiSaIiEES1_IS3_SaIS3_EEEC2ERKS4_
FNDA:28310,_ZN9__gnu_cxx17__normal_iteratorIPSt6vectorIiSaIiEES1_IS3_SaIS3_EEEC2ERKS4_
FN:806,_ZN9__gnu_cxx17__normal_iteratorIPSt6vectorIS1_IiSaIiEESaIS3_EES1_IS5_SaIS5_EEEC2ERKS6_
FNDA:158,_ZN9__gnu_cxx17__normal_iteratorIPSt6vectorIS1_IiSaIiEESaIS3_EES1_IS5_SaIS5_EEEC2ERKS6_
FN:806,_ZN9__gnu_cxx17__normal_iteratorIPKiSt6vectorIiSaIiEEEC2ERKS2_
FNDA:613946,_ZN9__gnu_cxx17__normal_iteratorIPKiSt6vectorIiSaIiEEEC2ERKS2_
FN:819,_ZNK9__gnu_cxx17__normal_iteratorIPKSt6vectorIiSaIiEES1_IS3_SaIS3_EEEdeEv
FNDA:5821,_ZNK9__gnu_cxx17__normal_iteratorIPKSt6vectorIiSaIiEES1_IS3_SaIS3_EEEdeEv
FN:827,_ZN9__gnu_cxx17__normal_iteratorIPKSt6vectorIiSaIiEES1_IS3_SaIS3_EEEppEv
FNDA:5821,_ZN9__gnu_cxx17__normal_iteratorIPKSt6vectorIiSaIiEES1_IS3_SaIS3_EEEppEv
FN:871,_ZNK9__gnu_cxx17__normal_iteratorIPKSt6vectorIiSaIiEES1_IS3_SaIS3_EEE4baseEv
FNDA:12808,_ZNK9__gnu_cxx17__normal_iteratorIPKSt6vectorIiSaIiEES1_IS3_SaIS3_EEE4baseEv
FN:871,_ZNK9__gnu_cxx17__normal_iteratorIPSt6vectorIS1_IiSaIiEESaIS3_EES1_IS5_SaIS5_EEE4baseEv
FNDA:316,_ZNK9__gnu_cxx17__normal_iteratorIPSt6vectorIS1_IiSaIiEESaIS3_EES1_IS5_SaIS5_EEE4baseEv
FN:871,_ZNK9__gnu_cxx17__normal_iteratorIPKSt6vectorIS1_IiSaIiEESaIS3_EES1_IS5_SaIS5_EEE4baseEv
FNDA:36,_ZNK9__gnu_cxx17__normal_iteratorIPKSt6vectorIS1_IiSaIiEESaIS3_EES1_IS5_SaIS5_EEE4baseEv
FN:871,_ZNK9__gnu_cxx17__normal_iteratorIPSt6vectorIiSaIiEES1_IS3_SaIS3_EEE4baseEv
FNDA:57096,_ZNK9__gnu_cxx17__normal_iteratorIPSt6vectorIiSaIiEES1_IS3_SaIS3_EEE4baseEv
FN:871,_ZNK9__gnu_cxx17__normal_iteratorIPKiSt6vectorIiSaIiEEE4baseEv
FNDA:613946,_ZNK9__gnu_cxx17__normal_iteratorIPKiSt6vectorIiSaIiEEE4baseEv
FN:893,_ZN9__gnu_cxxeqIPKSt6vectorIS1_IiSaIiEESaIS3_EES1_IS5_SaIS5_EEEEbRKNS_17__normal_iteratorIT_T0_EESF_
FNDA:18,_ZN9__gnu_cxxeqIPKSt6vectorIS1_IiSaIiEESaIS3_EES1_IS5_SaIS5_EEEEbRKNS_17__normal_iteratorIT_T0_EESF_
FN:907,_ZN9__gnu_cxxneIPKSt6vectorIiSaIiEES1_IS3_SaIS3_EEEEbRKNS_17__normal_iteratorIT_T0_EESD_
FNDA:6386,_ZN9__gnu_cxxneIPKSt6vectorIiSaIiEES1_IS3_SaIS3_EEEEbRKNS_17__normal_iteratorIT_T0_EESD_
FN:989,_ZN9__gnu_cxxmiIPSt6vectorIS1_IiSaIiEESaIS3_EES1_IS5_SaIS5_EEEENS_17__normal_iteratorIT_T0_E15difference_typeERKSC_SF_
FNDA:79,_ZN9__gnu_cxxmiIPSt6vectorIS1_IiSaIiEESaIS3_EES1_IS5_SaIS5_EEEENS_17__normal_iteratorIT_T0_E15difference_typeERKSC_SF_
FN:989,_ZN9__gnu_cxxmiIPSt6vectorIiSaIiEES1_IS3_SaIS3_EEEENS_17__normal_iteratorIT_T0_E15difference_typeERKSA_SD_
FNDA:14175,_ZN9__gnu_cxxmiIPSt6vectorIiSaIiEES1_IS3_SaIS3_EEEENS_17__normal_iteratorIT_T0_E15difference_typeERKSA_SD_
FN:1010,_ZSt12__niter_baseIPKiSt6vectorIiSaIiEEET_N9__gnu_cxx17__normal_iteratorIS5_T0_EE
FNDA:613946,_ZSt12__niter_baseIPKiSt6vectorIiSaIiEEET_N9__gnu_cxx17__normal_iteratorIS5_T0_EE
FN:1057,_ZNSt13move_iteratorIPSt6vectorIiSaIiEEEC2ES3_
FNDA:0,_ZNSt13move_iteratorIPSt6vectorIiSaIiEEEC2ES3_
FN:1057,_ZNSt13move_iteratorIPSt6vectorIS0_IiSaIiEESaIS2_EEEC2ES5_
FNDA:0,_ZNSt13move_iteratorIPSt6vectorIS0_IiSaIiEESaIS2_EEEC2ES5_
FN:1066,_ZNKSt13move_iteratorIPSt6vectorIS0_IiSaIiEESaIS2_EEE4baseEv
FNDA:0,_ZNKSt13move_iteratorIPSt6vectorIS0_IiSaIiEESaIS2_EEE4baseEv
FN:1066,_ZNKSt13move_iteratorIPSt6vectorIiSaIiEEE4baseEv
FNDA:0,_ZNKSt13move_iteratorIPSt6vectorIiSaIiEEE4baseEv
FN:1070,_ZNKSt13move_iteratorIPSt6vectorIS0_IiSaIiEESaIS2_EEEdeEv
FNDA:0,_ZNKSt13move_iteratorIPSt6vectorIS0_IiSaIiEESaIS2_EEEdeEv
FN:1070,_ZNKSt13move_iteratorIPSt6vectorIiSaIiEEEdeEv
FNDA:0,_ZNKSt13move_iteratorIPSt6vectorIiSaIiEEEdeEv
FN:1078,_ZNSt13move_iteratorIPSt6vectorIS0_IiSaIiEESaIS2_EEEppEv
FNDA:0,_ZNSt13move_iteratorIPSt6vectorIS0_IiSaIiEESaIS2_EEEppEv
FN:1078,_ZNSt13move_iteratorIPSt6vectorIiSaIiEEEppEv
FNDA:0,_ZNSt13move_iteratorIPSt6vectorIiSaIiEEEppEv
FN:1145,_ZSteqIPSt6vectorIS0_IiSaIiEESaIS2_EEEbRKSt13move_iteratorIT_ESA_
FNDA:0,_ZSteqIPSt6vectorIS0_IiSaIiEESaIS2_EEEbRKSt13move_iteratorIT_ESA_
FN:1145,_ZSteqIPSt6vectorIiSaIiEEEbRKSt13move_iteratorIT_ES8_
FNDA:0,_ZSteqIPSt6vectorIiSaIiEEEbRKSt13move_iteratorIT_ES8_
FN:1157,_ZStneIPSt6vectorIS0_IiSaIiEESaIS2_EEEbRKSt13move_iteratorIT_ESA_
FNDA:0,_ZStneIPSt6vectorIS0_IiSaIiEESaIS2_EEEbRKSt13move_iteratorIT_ESA_
FN:1157,_ZStneIPSt6vectorIiSaIiEEEbRKSt13move_iteratorIT_ES8_
FNDA:0,_ZStneIPSt6vectorIiSaIiEEEbRKSt13move_iteratorIT_ES8_
FN:1242,_ZSt32__make_move_if_noexcept_iteratorISt6vectorIiSaIiEESt13move_iteratorIPS2_EET0_PT_
FNDA:0,_ZSt32__make_move_if_noexcept_iteratorISt6vectorIiSaIiEESt13move_iteratorIPS2_EET0_PT_
FN:1242,_ZSt32__make_move_if_noexcept_iteratorISt6vectorIS0_IiSaIiEESaIS2_EESt13move_iteratorIPS4_EET0_PT_
FNDA:0,_ZSt32__make_move_if_noexcept_iteratorISt6vectorIS0_IiSaIiEESaIS2_EESt13move_iteratorIPS4_EET0_PT_
DA:806,613946
DA:807,613946
DA:806,1166
DA:807,1166
DA:806,28310
DA:807,28310
DA:806,36
DA:807,36
DA:806,158
DA:807,158
DA:819,5821
DA:820,5821
DA:827,5821
DA:829,5821
DA:830,5821
DA:871,613946
DA:872,613946
DA:871,12808
DA:872,12808
DA:871,57096
DA:872,57096
DA:871,36
DA:872,36
DA:871,316
DA:872,316
DA:893,18
DA:896,18
DA:907,6386
DA:910,6386
DA:989,14175
DA:992,14175
DA:989,79
DA:992,79
DA:1010,613946
DA:1012,613946
DA:1057,0
DA:1058,0
DA:1057,0
DA:1058,0
DA:1066,0
DA:1067,0
DA:1066,0
DA:1067,0
DA:1070,0
DA:1071,0
DA:1070,0
DA:1071,0
DA:1078,0
DA:1080,0
DA:1081,0
DA:1078,0
DA:1080,0
DA:1081,0
DA:1145,0
DA:1147,0
DA:1145,0
DA:1147,0
DA:1157,0
DA:1159,0
DA:1157,0
DA:1159,0
DA:1242,0
DA:1243,0
DA:1242,0
DA:1243,0
end_of_record
SF:/usr/include/c++/9/initializer_list
FN:71,_ZNKSt16initializer_listIiE4sizeEv
FNDA:28559,_ZNKSt16initializer_listIiE4sizeEv
FN:75,_ZNKSt16initializer_listIiE5beginEv
FNDA:57118,_ZNKSt16initializer_listIiE5beginEv
FN:79,_ZNKSt16initializer_listIiE3endEv
FNDA:28559,_ZNKSt16initializer_listIiE3endEv
DA:71,28559
DA:75,57118
DA:79,28559
end_of_record
SF:/usr/include/c++/9/bits/stl_iterator_base_types.h
FN:205,_ZSt19__iterator_categoryIPKiENSt15iterator_traitsIT_E17iterator_categoryERKS3_
FNDA:28559,_ZSt19__iterator_categoryIPKiENSt15iterator_traitsIT_E17iterator_categoryERKS3_
DA:205,28559
DA:206,28559
end_of_record
SF:/usr/include/c++/9/bits/allocator.h
FN:138,_ZNSaISt6vectorIS_IiSaIiEESaIS1_EEEC2Ev
FNDA:50,_ZNSaISt6vectorIS_IiSaIiEESaIS1_EEEC2Ev
FN:138,_ZNSaISt6vectorIiSaIiEEEC2Ev
FNDA:3691,_ZNSaISt6vectorIiSaIiEEEC2Ev
FN:138,_ZNSaIiEC2Ev
FNDA:28571,_ZNSaIiEC2Ev
FN:141,_ZNSaISt6vectorIS_IiSaIiEESaIS1_EEEC2ERKS4_
FNDA:28,_ZNSaISt6vectorIS_IiSaIiEESaIS1_EEEC2ERKS4_
FN:141,_ZNSaIiEC2ERKS_
FNDA:134916,_ZNSaIiEC2ERKS_
FN:141,_ZNSaISt6vectorIiSaIiEEEC2ERKS2_
FNDA:7309,_ZNSaISt6vectorIiSaIiEEEC2ERKS2_
FN:153,_ZNSaIiED2Ev
FNDA:163487,_ZNSaIiED2Ev
FN:153,_ZNSaISt6vectorIS_IiSaIiEESaIS1_EEED2Ev
FNDA:78,_ZNSaISt6vectorIS_IiSaIiEESaIS1_EEED2Ev
FN:153,_ZNSaISt6vectorIiSaIiEEED2Ev
FNDA:11000,_ZNSaISt6vectorIiSaIiEEED2Ev
DA:138,50
DA:138,3691
DA:138,28571
DA:141,28
DA:142,28
DA:141,134916
DA:142,134916
DA:141,7309
DA:142,7309
DA:153,163487
DA:153,78
DA:153,11000
end_of_record
SF:/usr/include/c++/9/bits/vector.tcc
FN:109,_ZNSt6vectorIS_IiSaIiEESaIS1_EE12emplace_backIJS1_EEEvDpOT_
FNDA:22242,_ZNSt6vectorIS_IiSaIiEESaIS1_EE12emplace_backIJS1_EEEvDpOT_
FN:300,_ZNSt6vectorIiSaIiEE13_M_assign_auxIPKiEEvT_S5_St20forward_iterator_tag
FNDA:14,_ZNSt6vectorIiSaIiEE13_M_assign_auxIPKiEEvT_S5_St20forward_iterator_tag
FN:426,_ZNSt6vectorIS_IiSaIiEESaIS1_EE17_M_realloc_insertIJS1_EEEvN9__gnu_cxx17__normal_iteratorIPS1_S3_EEDpOT_
FNDA:13401,_ZNSt6vectorIS_IiSaIiEESaIS1_EE17_M_realloc_insertIJS1_EEEvN9__gnu_cxx17__normal_iteratorIPS1_S3_EEDpOT_
FN:426,_ZNSt6vectorIS_IS_IiSaIiEESaIS1_EESaIS3_EE17_M_realloc_insertIJRKS3_EEEvN9__gnu_cxx17__normal_iteratorIPS3_S5_EEDpOT_
FNDA:79,_ZNSt6vectorIS_IS_IiSaIiEESaIS1_EESaIS3_EE17_M_realloc_insertIJRKS3_EEEvN9__gnu_cxx17__normal_iteratorIPS3_S5_EEDpOT_
DA:109,22242
DA:112,22242
DA:115,8841
DA:117,8841
DA:121,13401
DA:125,22242
DA:300,14
DA:304,14
DA:306,14
DA:308,0
DA:309,0
DA:310,0
DA:311,0
DA:313,0
DA:314,0
DA:315,0
DA:316,0
DA:317,0
DA:318,0
DA:320,14
DA:321,14
DA:324,0
DA:325,0
DA:326,0
DA:327,0
DA:329,0
DA:330,0
DA:332,0
DA:335,14
DA:426,13401
DA:435,13401
DA:437,13401
DA:438,13401
DA:439,13401
DA:440,13401
DA:441,13401
DA:449,13401
DA:450,13401
DA:456,13401
DA:459,13401
DA:461,13401
DA:462,13401
DA:464,13401
DA:466,13401
DA:467,13401
DA:474,0
DA:475,0
DA:477,0
DA:481,0
DA:482,0
DA:485,0
DA:487,0
DA:488,0
DA:489,0
DA:491,0
DA:492,0
DA:493,0
DA:496,13401
DA:498,0
DA:500,13401
DA:501,13401
DA:502,13401
DA:503,13401
DA:504,13401
DA:505,13401
DA:426,79
DA:435,79
DA:437,79
DA:438,79
DA:439,79
DA:440,79
DA:441,79
DA:449,79
DA:450,79
DA:456,79
DA:459,79
DA:461,79
DA:462,79
DA:464,79
DA:466,79
DA:467,79
DA:474,0
DA:475,0
DA:477,0
DA:481,0
DA:482,0
DA:485,0
DA:487,0
DA:488,0
DA:489,0
DA:491,0
DA:492,0
DA:493,0
DA:496,79
DA:498,0
DA:500,79
DA:501,79
DA:502,79
DA:503,79
DA:504,79
DA:505,79
end_of_record
SF:/usr/include/c++/9/ext/alloc_traits.h
FN:97,_ZN9__gnu_cxx14__alloc_traitsISaIiEiE17_S_select_on_copyERKS1_
FNDA:7759,_ZN9__gnu_cxx14__alloc_traitsISaIiEiE17_S_select_on_copyERKS1_
FN:97,_ZN9__gnu_cxx14__alloc_traitsISaISt6vectorIiSaIiEEES3_E17_S_select_on_copyERKS4_
FNDA:393,_ZN9__gnu_cxx14__alloc_traitsISaISt6vectorIiSaIiEEES3_E17_S_select_on_copyERKS4_
DA:97,7759
DA:98,7759
DA:97,393
DA:98,393
end_of_record
SF:/usr/include/c++/9/bits/alloc_traits.h
FN:443,_ZNSt16allocator_traitsISaISt6vectorIiSaIiEEEE8allocateERS3_m
FNDA:14895,_ZNSt16allocator_traitsISaISt6vectorIiSaIiEEEE8allocateERS3_m
FN:443,_ZNSt16allocator_traitsISaIiEE8allocateERS0_m
FNDA:36367,_ZNSt16allocator_traitsISaIiEE8allocateERS0_m
FN:443,_ZNSt16allocator_traitsISaISt6vectorIS0_IiSaIiEESaIS2_EEEE8allocateERS5_m
FNDA:79,_ZNSt16allocator_traitsISaISt6vectorIS0_IiSaIiEESaIS2_EEEE8allocateERS5_m
FN:469,_ZNSt16allocator_traitsISaISt6vectorIiSaIiEEEE10deallocateERS3_PS2_m
FNDA:14895,_ZNSt16allocator_traitsISaISt6vectorIiSaIiEEEE10deallocateERS3_PS2_m
FN:469,_ZNSt16allocator_traitsISaISt6vectorIS0_IiSaIiEESaIS2_EEEE10deallocateERS5_PS4_m
FNDA:79,_ZNSt16allocator_traitsISaISt6vectorIS0_IiSaIiEESaIS2_EEEE10deallocateERS5_PS4_m
FN:469,_ZNSt16allocator_traitsISaIiEE10deallocateERS0_Pim
FNDA:36367,_ZNSt16allocator_traitsISaIiEE10deallocateERS0_Pim
FN:482,_ZNSt16allocator_traitsISaISt6vectorIS0_IiSaIiEESaIS2_EEEE9constructIS4_JS4_EEEvRS5_PT_DpOT0_
FNDA:99,_ZNSt16allocator_traitsISaISt6vectorIS0_IiSaIiEESaIS2_EEEE9constructIS4_JS4_EEEvRS5_PT_DpOT0_
FN:482,_ZNSt16allocator_traitsISaISt6vectorIS0_IiSaIiEESaIS2_EEEE9constructIS4_JRKS4_EEEvRS5_PT_DpOT0_
FNDA:96,_ZNSt16allocator_traitsISaISt6vectorIS0_IiSaIiEESaIS2_EEEE9constructIS4_JRKS4_EEEvRS5_PT_DpOT0_
FN:482,_ZNSt16allocator_traitsISaISt6vectorIiSaIiEEEE9constructIS2_JS2_EEEvRS3_PT_DpOT0_
FNDA:61656,_ZNSt16allocator_traitsISaISt6vectorIiSaIiEEEE9constructIS2_JS2_EEEvRS3_PT_DpOT0_
FN:495,_ZNSt16allocator_traitsISaISt6vectorIiSaIiEEEE7destroyIS2_EEvRS3_PT_
FNDA:39414,_ZNSt16allocator_traitsISaISt6vectorIiSaIiEEEE7destroyIS2_EEvRS3_PT_
FN:495,_ZNSt16allocator_traitsISaISt6vectorIS0_IiSaIiEESaIS2_EEEE7destroyIS4_EEvRS5_PT_
FNDA:99,_ZNSt16allocator_traitsISaISt6vectorIS0_IiSaIiEESaIS2_EEEE7destroyIS4_EEvRS5_PT_
FN:505,_ZNSt16allocator_traitsISaIiEE8max_sizeERKS0_
FNDA:28669,_ZNSt16allocator_traitsISaIiEE8max_sizeERKS0_
FN:505,_ZNSt16allocator_traitsISaISt6vectorIS0_IiSaIiEESaIS2_EEEE8max_sizeERKS5_
FNDA:158,_ZNSt16allocator_traitsISaISt6vectorIS0_IiSaIiEESaIS2_EEEE8max_sizeERKS5_
FN:505,_ZNSt16allocator_traitsISaISt6vectorIiSaIiEEEE8max_sizeERKS3_
FNDA:28451,_ZNSt16allocator_traitsISaISt6vectorIiSaIiEEEE8max_sizeERKS3_
FN:514,_ZNSt16allocator_traitsISaISt6vectorIiSaIiEEEE37select_on_container_copy_constructionERKS3_
FNDA:393,_ZNSt16allocator_traitsISaISt6vectorIiSaIiEEEE37select_on_container_copy_constructionERKS3_
FN:514,_ZNSt16allocator_traitsISaIiEE37select_on_container_copy_constructionERKS0_
FNDA:7759,_ZNSt16allocator_traitsISaIiEE37select_on_container_copy_constructionERKS0_
FN:545,_ZSt18__do_alloc_on_moveISaISt6vectorIS0_IiSaIiEESaIS2_EEEEvRT_S7_St17integral_constantIbLb1EE
FNDA:14,_ZSt18__do_alloc_on_moveISaISt6vectorIS0_IiSaIiEESaIS2_EEEEvRT_S7_St17integral_constantIbLb1EE
FN:545,_ZSt18__do_alloc_on_moveISaISt6vectorIiSaIiEEEEvRT_S5_St17integral_constantIbLb1EE
FNDA:3068,_ZSt18__do_alloc_on_moveISaISt6vectorIiSaIiEEEEvRT_S5_St17integral_constantIbLb1EE
FN:553,_ZSt15__alloc_on_moveISaISt6vectorIS0_IiSaIiEESaIS2_EEEEvRT_S7_
FNDA:14,_ZSt15__alloc_on_moveISaISt6vectorIS0_IiSaIiEESaIS2_EEEEvRT_S7_
FN:553,_ZSt15__alloc_on_moveISaISt6vectorIiSaIiEEEEvRT_S5_
FNDA:3068,_ZSt15__alloc_on_moveISaISt6vectorIiSaIiEEEEvRT_S5_
DA:443,14895
DA:444,14895
DA:443,79
DA:444,79
DA:443,36367
DA:444,36367
DA:469,36367
DA:470,36367
DA:469,79
DA:470,79
DA:469,14895
DA:470,14895
DA:482,99
DA:484,99
DA:482,61656
DA:484,61656
DA:482,96
DA:484,96
DA:495,39414
DA:497,39414
DA:495,99
DA:497,99
DA:505,28451
DA:506,28451
DA:505,158
DA:506,158
DA:505,28669
DA:506,28669
DA:514,7759
DA:515,7759
DA:514,393
DA:515,393
DA:545,14
DA:546,14
DA:545,3068
DA:546,3068
DA:553,14
DA:557,14
DA:558,14
DA:553,3068
DA:557,3068
DA:558,3068
end_of_record
SF:/usr/include/c++/9/bits/move.h
FN:47,_ZSt11__addressofISt6vectorIS0_IiSaIiEESaIS2_EEEPT_RS5_
FNDA:393,_ZSt11__addressofISt6vectorIS0_IiSaIiEESaIS2_EEEPT_RS5_
FN:47,_ZSt11__addressofISt6vectorIiSaIiEEEPT_RS3_
FNDA:154835,_ZSt11__addressofISt6vectorIiSaIiEEEPT_RS3_
FN:74,_ZSt7forwardIiEOT_RNSt16remove_referenceIS0_E4typeE
FNDA:241,_ZSt7forwardIiEOT_RNSt16remove_referenceIS0_E4typeE
FN:74,_ZSt7forwardIOSt6vectorIS0_IiSaIiEESaIS2_EEEOT_RNSt16remove_referenceIS6_E4typeE
FNDA:61,_ZSt7forwardIOSt6vectorIS0_IiSaIiEESaIS2_EEEOT_RNSt16remove_referenceIS6_E4typeE
FN:74,_ZSt7forwardIRKSt6vectorIS0_IiSaIiEESaIS2_EEEOT_RNSt16remove_referenceIS7_E4typeE
FNDA:271,_ZSt7forwardIRKSt6vectorIS0_IiSaIiEESaIS2_EEEOT_RNSt16remove_referenceIS7_E4typeE
FN:74,_ZSt7forwardISt6vectorIiSaIiEEEOT_RNSt16remove_referenceIS3_E4typeE
FNDA:158955,_ZSt7forwardISt6vectorIiSaIiEEEOT_RNSt16remove_referenceIS3_E4typeE
FN:74,_ZSt7forwardIRKSt6vectorIiSaIiEEEOT_RNSt16remove_referenceIS5_E4typeE
FNDA:9451,_ZSt7forwardIRKSt6vectorIiSaIiEEEOT_RNSt16remove_referenceIS5_E4typeE
FN:74,_ZSt7forwardISt6vectorIS0_IiSaIiEESaIS2_EEEOT_RNSt16remove_referenceIS5_E4typeE
FNDA:202,_ZSt7forwardISt6vectorIS0_IiSaIiEESaIS2_EEEOT_RNSt16remove_referenceIS5_E4typeE
FN:99,_ZSt4moveIRSt11_Tuple_implILm1EJSt6vectorIS1_IiSaIiEESaIS3_EEEEEONSt16remove_referenceIT_E4typeEOS9_
FNDA:4,_ZSt4moveIRSt11_Tuple_implILm1EJSt6vectorIS1_IiSaIiEESaIS3_EEEEEONSt16remove_referenceIT_E4typeEOS9_
FN:99,_ZSt4moveIRSaISt6vectorIiSaIiEEEEONSt16remove_referenceIT_E4typeEOS6_
FNDA:3068,_ZSt4moveIRSaISt6vectorIiSaIiEEEEONSt16remove_referenceIT_E4typeEOS6_
FN:99,_ZSt4moveIRSaISt6vectorIS0_IiSaIiEESaIS2_EEEEONSt16remove_referenceIT_E4typeEOS8_
FNDA:14,_ZSt4moveIRSaISt6vectorIS0_IiSaIiEESaIS2_EEEEONSt16remove_referenceIT_E4typeEOS8_
FN:99,_ZSt4moveIRSt5tupleIJiSt6vectorIS1_IiSaIiEESaIS3_EEEEEONSt16remove_referenceIT_E4typeEOS9_
FNDA:4,_ZSt4moveIRSt5tupleIJiSt6vectorIS1_IiSaIiEESaIS3_EEEEEONSt16remove_referenceIT_E4typeEOS9_
FN:99,_ZSt4moveIRNSt12_Vector_baseISt6vectorIiSaIiEESaIS3_EE12_Vector_implEEONSt16remove_referenceIT_E4typeEOS9_
FNDA:198,_ZSt4moveIRNSt12_Vector_baseISt6vectorIiSaIiEESaIS3_EE12_Vector_implEEONSt16remove_referenceIT_E4typeEOS9_
FN:99,_ZSt4moveIRSt6vectorIiSaIiEEEONSt16remove_referenceIT_E4typeEOS5_
FNDA:62300,_ZSt4moveIRSt6vectorIiSaIiEEEONSt16remove_referenceIT_E4typeEOS5_
FN:99,_ZSt4moveIRSt6vectorIS0_IS0_IiSaIiEESaIS2_EESaIS4_EEEONSt16remove_referenceIT_E4typeEOS9_
FNDA:14,_ZSt4moveIRSt6vectorIS0_IS0_IiSaIiEESaIS2_EESaIS4_EEEONSt16remove_referenceIT_E4typeEOS9_
FN:99,_ZSt4moveIRSt6vectorIS0_IiSaIiEESaIS2_EEEONSt16remove_referenceIT_E4typeEOS7_
FNDA:3167,_ZSt4moveIRSt6vectorIS0_IiSaIiEESaIS2_EEEONSt16remove_referenceIT_E4typeEOS7_
FN:99,_ZSt4moveIRNSt12_Vector_baseIiSaIiEE12_Vector_implEEONSt16remove_referenceIT_E4typeEOS6_
FNDA:123696,_ZSt4moveIRNSt12_Vector_baseIiSaIiEE12_Vector_implEEONSt16remove_referenceIT_E4typeEOS6_
DA:47,393
DA:48,393
DA:47,154835
DA:48,154835
DA:74,9451
DA:75,9451
DA:74,202
DA:75,202
DA:74,241
DA:75,241
DA:74,158955
DA:75,158955
DA:74,271
DA:75,271
DA:74,61
DA:75,61
DA:99,123696
DA:100,123696
DA:99,14
DA:100,14
DA:99,3068
DA:100,3068
DA:99,4
DA:100,4
DA:99,4
DA:100,4
DA:99,198
DA:100,198
DA:99,62300
DA:100,62300
DA:99,14
DA:100,14
DA:99,3167
DA:100,3167
end_of_record
SF:/usr/include/c++/9/bits/stl_iterator_base_funcs.h
FN:98,_ZSt10__distanceIPKiENSt15iterator_traitsIT_E15difference_typeES3_S3_St26random_access_iterator_tag
FNDA:28559,_ZSt10__distanceIPKiENSt15iterator_traitsIT_E15difference_typeES3_S3_St26random_access_iterator_tag
FN:138,_ZSt8distanceIPKiENSt15iterator_traitsIT_E15difference_typeES3_S3_
FNDA:28559,_ZSt8distanceIPKiENSt15iterator_traitsIT_E15difference_typeES3_S3_
FN:174,_ZSt9__advanceIPKilEvRT_T0_St26random_access_iterator_tag
FNDA:0,_ZSt9__advanceIPKilEvRT_T0_St26random_access_iterator_tag
FN:202,_ZSt7advanceIPKimEvRT_T0_
FNDA:0,_ZSt7advanceIPKimEvRT_T0_
DA:98,28559
DA:104,28559
DA:138,28559
DA:141,28559
DA:142,57118
DA:174,0
DA:185,0
DA:186,0
DA:202,0
DA:205,0
DA:206,0
DA:207,0
end_of_record
TN:
SF:/home/pato/TPIMorfMat/template-alumnos/tests/ej2TEST.cpp
FN:4,_ZN68sonPixelesConectadosTest_PixelesEnDiagonalNoEstanConectadosAdy4_TestC2Ev
FNDA:1,_ZN68sonPixelesConectadosTest_PixelesEnDiagonalNoEstanConectadosAdy4_TestC2Ev
FN:4,_ZN68sonPixelesConectadosTest_PixelesEnDiagonalNoEstanConectadosAdy4_Test8TestBodyEv
FNDA:1,_ZN68sonPixelesConectadosTest_PixelesEnDiagonalNoEstanConectadosAdy4_Test8TestBodyEv
FN:14,_ZN68sonPixelesConectadosTest_PixelesEnHorizontalEstanConectadosAdy4_TestC2Ev
FNDA:1,_ZN68sonPixelesConectadosTest_PixelesEnHorizontalEstanConectadosAdy4_TestC2Ev
FN:14,_ZN68sonPixelesConectadosTest_PixelesEnHorizontalEstanConectadosAdy4_Test8TestBodyEv
FNDA:1,_ZN68sonPixelesConectadosTest_PixelesEnHorizontalEstanConectadosAdy4_Test8TestBodyEv
FN:21,_ZN79sonPixelesConectadosTest_PixelesEnHorizontalSeparadosNoEstanConectadosAdy4_TestC2Ev
FNDA:1,_ZN79sonPixelesConectadosTest_PixelesEnHorizontalSeparadosNoEstanConectadosAdy4_TestC2Ev
FN:21,_ZN79sonPixelesConectadosTest_PixelesEnHorizontalSeparadosNoEstanConectadosAdy4_Test8TestBodyEv
FNDA:1,_ZN79sonPixelesConectadosTest_PixelesEnHorizontalSeparadosNoEstanConectadosAdy4_Test8TestBodyEv
FN:28,_ZN77sonPixelesConectadosTest_PixelesEnVerticalSeparadosNoEstanConectadosAdy4_Test8TestBodyEv
FNDA:1,_ZN77sonPixelesConectadosTest_PixelesEnVerticalSeparadosNoEstanConectadosAdy4_Test8TestBodyEv
FN:28,_ZN77sonPixelesConectadosTest_PixelesEnVerticalSeparadosNoEstanConectadosAdy4_TestC2Ev
FNDA:1,_ZN77sonPixelesConectadosTest_PixelesEnVerticalSeparadosNoEstanConectadosAdy4_TestC2Ev
FN:35,_ZN86sonPixelesConectadosTest_PixelesEnHorizontalAlRevesSeparadosNoEstanConectadosAdy4_TestC2Ev
FNDA:1,_ZN86sonPixelesConectadosTest_PixelesEnHorizontalAlRevesSeparadosNoEstanConectadosAdy4_TestC2Ev
FN:35,_ZN86sonPixelesConectadosTest_PixelesEnHorizontalAlRevesSeparadosNoEstanConectadosAdy4_Test8TestBodyEv
FNDA:1,_ZN86sonPixelesConectadosTest_PixelesEnHorizontalAlRevesSeparadosNoEstanConectadosAdy4_Test8TestBodyEv
FN:42,_ZN84sonPixelesConectadosTest_PixelesEnVerticalAlRevesSeparadosNoEstanConectadosAdy4_TestC2Ev
FNDA:1,_ZN84sonPixelesConectadosTest_PixelesEnVerticalAlRevesSeparadosNoEstanConectadosAdy4_TestC2Ev
FN:42,_ZN84sonPixelesConectadosTest_PixelesEnVerticalAlRevesSeparadosNoEstanConectadosAdy4_Test8TestBodyEv
FNDA:1,_ZN84sonPixelesConectadosTest_PixelesEnVerticalAlRevesSeparadosNoEstanConectadosAdy4_Test8TestBodyEv
FN:49,_ZN69sonPixelesConectadosTest_PixelesConectadosPorUnPixelVerticalAdy4_TestC2Ev
FNDA:1,_ZN69sonPixelesConectadosTest_PixelesConectadosPorUnPixelVerticalAdy4_TestC2Ev
FN:49,_ZN69sonPixelesConectadosTest_PixelesConectadosPorUnPixelVerticalAdy4_Test8TestBodyEv
FNDA:1,_ZN69sonPixelesConectadosTest_PixelesConectadosPorUnPixelVerticalAdy4_Test8TestBodyEv
FN:56,_ZN77sonPixelesConectadosTest_PixelesConectadosPorMuchosPixelesVerticalesAdy4_TestC2Ev
FNDA:1,_ZN77sonPixelesConectadosTest_PixelesConectadosPorMuchosPixelesVerticalesAdy4_TestC2Ev
FN:56,_ZN77sonPixelesConectadosTest_PixelesConectadosPorMuchosPixelesVerticalesAdy4_Test8TestBodyEv
FNDA:1,_ZN77sonPixelesConectadosTest_PixelesConectadosPorMuchosPixelesVerticalesAdy4_Test8TestBodyEv
FN:63,_ZN81sonPixelesConectadosTest_PixelesConectadosPorMuchosPixelesParaTodosLadosAdy4_TestC2Ev
FNDA:1,_ZN81sonPixelesConectadosTest_PixelesConectadosPorMuchosPixelesParaTodosLadosAdy4_TestC2Ev
FN:63,_ZN81sonPixelesConectadosTest_PixelesConectadosPorMuchosPixelesParaTodosLadosAdy4_Test8TestBodyEv
FNDA:1,_ZN81sonPixelesConectadosTest_PixelesConectadosPorMuchosPixelesParaTodosLadosAdy4_Test8TestBodyEv
FN:76,_ZN66sonPixelesConectadosTest_PixelesEnDiagonalEstanConectadosAdy8_TestC2Ev
FNDA:1,_ZN66sonPixelesConectadosTest_PixelesEnDiagonalEstanConectadosAdy8_TestC2Ev
FN:76,_ZN66sonPixelesConectadosTest_PixelesEnDiagonalEstanConectadosAdy8_Test8TestBodyEv
FNDA:1,_ZN66sonPixelesConectadosTest_PixelesEnDiagonalEstanConectadosAdy8_Test8TestBodyEv
FN:86,_ZN67sonPixelesConectadosTest_PixelesSeparadosNoEstanConectadosAdy8_TestC2Ev
FNDA:1,_ZN67sonPixelesConectadosTest_PixelesSeparadosNoEstanConectadosAdy8_TestC2Ev
FN:86,_ZN67sonPixelesConectadosTest_PixelesSeparadosNoEstanConectadosAdy8_Test8TestBodyEv
FNDA:1,_ZN67sonPixelesConectadosTest_PixelesSeparadosNoEstanConectadosAdy8_Test8TestBodyEv
FN:97,_ZN62sonPixelesConectadosTest_PixelesEnAdy4EstanConectadosAdy8_TestC2Ev
FNDA:1,_ZN62sonPixelesConectadosTest_PixelesEnAdy4EstanConectadosAdy8_TestC2Ev
FN:97,_ZN62sonPixelesConectadosTest_PixelesEnAdy4EstanConectadosAdy8_Test8TestBodyEv
FNDA:1,_ZN62sonPixelesConectadosTest_PixelesEnAdy4EstanConectadosAdy8_Test8TestBodyEv
FN:106,_ZN68sonPixelesConectadosTest_PixelesEnCaminoAdy4EstanConectadosAdy8_TestC2Ev
FNDA:1,_ZN68sonPixelesConectadosTest_PixelesEnCaminoAdy4EstanConectadosAdy8_TestC2Ev
FN:106,_ZN68sonPixelesConectadosTest_PixelesEnCaminoAdy4EstanConectadosAdy8_Test8TestBodyEv
FNDA:1,_ZN68sonPixelesConectadosTest_PixelesEnCaminoAdy4EstanConectadosAdy8_Test8TestBodyEv
FN:117,_ZN68sonPixelesConectadosTest_PixelesEnCaminoAdy8EstanConectadosAdy8_TestC2Ev
FNDA:1,_ZN68sonPixelesConectadosTest_PixelesEnCaminoAdy8EstanConectadosAdy8_TestC2Ev
FN:117,_ZN68sonPixelesConectadosTest_PixelesEnCaminoAdy8EstanConectadosAdy8_Test8TestBodyEv
FNDA:1,_ZN68sonPixelesConectadosTest_PixelesEnCaminoAdy8EstanConectadosAdy8_Test8TestBodyEv
FN:128,_ZN73sonPixelesConectadosTest_PixelesEnCaminoLargoAdy8EstanConectadosAdy8_TestC2Ev
FNDA:1,_ZN73sonPixelesConectadosTest_PixelesEnCaminoLargoAdy8EstanConectadosAdy8_TestC2Ev
FN:128,_ZN73sonPixelesConectadosTest_PixelesEnCaminoLargoAdy8EstanConectadosAdy8_Test8TestBodyEv
FNDA:1,_ZN73sonPixelesConectadosTest_PixelesEnCaminoLargoAdy8EstanConectadosAdy8_Test8TestBodyEv
FN:141,_ZN75sonPixelesConectadosTest_PixelesEnCaminoLargoAdy8NoEstanConectadosAdy4_TestC2Ev
FNDA:1,_ZN75sonPixelesConectadosTest_PixelesEnCaminoLargoAdy8NoEstanConectadosAdy4_TestC2Ev
FN:141,_ZN75sonPixelesConectadosTest_PixelesEnCaminoLargoAdy8NoEstanConectadosAdy4_Test8TestBodyEv
FNDA:1,_ZN75sonPixelesConectadosTest_PixelesEnCaminoLargoAdy8NoEstanConectadosAdy4_Test8TestBodyEv
FN:154,_ZN73sonPixelesConectadosTest_PixelesEnCaminoLargoAdy4EstanConectadosAdy4_Test8TestBodyEv
FNDA:1,_ZN73sonPixelesConectadosTest_PixelesEnCaminoLargoAdy4EstanConectadosAdy4_Test8TestBodyEv
FN:154,_ZN73sonPixelesConectadosTest_PixelesEnCaminoLargoAdy4EstanConectadosAdy4_TestC2Ev
FNDA:1,_ZN73sonPixelesConectadosTest_PixelesEnCaminoLargoAdy4EstanConectadosAdy4_TestC2Ev
DA:4,1
DA:8,6
DA:9,2
DA:10,2
DA:11,1
DA:12,1
DA:4,1
DA:14,1
DA:15,5
DA:16,2
DA:17,2
DA:18,1
DA:19,1
DA:14,1
DA:21,1
DA:22,5
DA:23,2
DA:24,2
DA:25,1
DA:26,1
DA:21,1
DA:28,1
DA:29,7
DA:30,2
DA:31,2
DA:32,1
DA:33,1
DA:28,1
DA:35,1
DA:36,5
DA:37,2
DA:38,2
DA:39,1
DA:40,1
DA:35,1
DA:42,1
DA:43,7
DA:44,2
DA:45,2
DA:46,1
DA:47,1
DA:42,1
DA:49,1
DA:50,7
DA:51,2
DA:52,2
DA:53,1
DA:54,1
DA:49,1
DA:56,1
DA:57,9
DA:58,2
DA:59,2
DA:60,1
DA:61,1
DA:56,1
DA:63,1
DA:70,9
DA:71,2
DA:72,2
DA:73,1
DA:74,1
DA:63,1
DA:76,1
DA:80,6
DA:81,2
DA:82,2
DA:83,1
DA:84,1
DA:76,1
DA:86,1
DA:91,7
DA:92,2
DA:93,2
DA:94,1
DA:95,1
DA:86,1
DA:97,1
DA:100,5
DA:101,2
DA:102,2
DA:103,1
DA:104,1
DA:97,1
DA:106,1
DA:111,7
DA:112,2
DA:113,2
DA:114,1
DA:115,1
DA:106,1
DA:117,1
DA:122,7
DA:123,2
DA:124,2
DA:125,1
DA:126,1
DA:117,1
DA:128,1
DA:135,9
DA:136,2
DA:137,2
DA:138,1
DA:139,1
DA:128,1
DA:141,1
DA:148,9
DA:149,2
DA:150,2
DA:151,1
DA:152,1
DA:141,1
DA:154,1
DA:161,9
DA:162,2
DA:163,2
DA:164,1
DA:165,1
DA:154,1
end_of_record
SF:/usr/include/c++/9/bits/stl_uninitialized.h
FN:76,_ZNSt20__uninitialized_copyILb0EE13__uninit_copyIPKSt6vectorIiSaIiEEPS4_EET0_T_S9_S8_
FNDA:0,_ZNSt20__uninitialized_copyILb0EE13__uninit_copyIPKSt6vectorIiSaIiEEPS4_EET0_T_S9_S8_
FN:99,_ZNSt20__uninitialized_copyILb1EE13__uninit_copyIN9__gnu_cxx17__normal_iteratorIPKiSt6vectorIiSaIiEEEEPiEET0_T_SC_SB_
FNDA:0,_ZNSt20__uninitialized_copyILb1EE13__uninit_copyIN9__gnu_cxx17__normal_iteratorIPKiSt6vectorIiSaIiEEEEPiEET0_T_SC_SB_
FN:99,_ZNSt20__uninitialized_copyILb1EE13__uninit_copyIPKiPiEET0_T_S6_S5_
FNDA:0,_ZNSt20__uninitialized_copyILb1EE13__uninit_copyIPKiPiEET0_T_S6_S5_
FN:115,_ZSt18uninitialized_copyIN9__gnu_cxx17__normal_iteratorIPKiSt6vectorIiSaIiEEEEPiET0_T_SA_S9_
FNDA:0,_ZSt18uninitialized_copyIN9__gnu_cxx17__normal_iteratorIPKiSt6vectorIiSaIiEEEEPiET0_T_SA_S9_
FN:115,_ZSt18uninitialized_copyIPKSt6vectorIiSaIiEEPS2_ET0_T_S7_S6_
FNDA:0,_ZSt18uninitialized_copyIPKSt6vectorIiSaIiEEPS2_ET0_T_S7_S6_
FN:115,_ZSt18uninitialized_copyIPKiPiET0_T_S4_S3_
FNDA:0,_ZSt18uninitialized_copyIPKiPiET0_T_S4_S3_
FN:287,_ZSt22__uninitialized_copy_aIN9__gnu_cxx17__normal_iteratorIPKiSt6vectorIiSaIiEEEEPiiET0_T_SA_S9_RSaIT1_E
FNDA:0,_ZSt22__uninitialized_copy_aIN9__gnu_cxx17__normal_iteratorIPKiSt6vectorIiSaIiEEEEPiiET0_T_SA_S9_RSaIT1_E
FN:287,_ZSt22__uninitialized_copy_aIPKSt6vectorIiSaIiEEPS2_S2_ET0_T_S7_S6_RSaIT1_E
FNDA:0,_ZSt22__uninitialized_copy_aIPKSt6vectorIiSaIiEEPS2_S2_ET0_T_S7_S6_RSaIT1_E
FN:287,_ZSt22__uninitialized_copy_aIPKiPiiET0_T_S4_S3_RSaIT1_E
FNDA:0,_ZSt22__uninitialized_copy_aIPKiPiiET0_T_S4_S3_RSaIT1_E
DA:76,0
DA:79,0
DA:82,0
DA:83,0
DA:84,0
DA:86,0
DA:88,0
DA:89,0
DA:99,0
DA:101,0
DA:99,0
DA:101,0
DA:115,0
DA:128,0
DA:134,0
DA:115,0
DA:128,0
DA:134,0
DA:115,0
DA:128,0
DA:134,0
DA:287,0
DA:289,0
DA:287,0
DA:289,0
DA:287,0
DA:289,0
end_of_record
SF:/usr/include/c++/9/new
FN:173,_ZnwmPv
FNDA:0,_ZnwmPv
FN:179,_ZdlPvS_
FNDA:0,_ZdlPvS_
DA:173,0
DA:174,0
DA:179,0
end_of_record
SF:/usr/include/c++/9/iostream
end_of_record
SF:/usr/include/c++/9/bits/stl_construct.h
FN:74,_ZSt10_ConstructISt6vectorIiSaIiEEJRKS2_EEvPT_DpOT0_
FNDA:0,_ZSt10_ConstructISt6vectorIiSaIiEEJRKS2_EEvPT_DpOT0_
FN:97,_ZSt8_DestroyISt6vectorIiSaIiEEEvPT_
FNDA:0,_ZSt8_DestroyISt6vectorIiSaIiEEEvPT_
FN:105,_ZNSt12_Destroy_auxILb0EE9__destroyIPSt6vectorIiSaIiEEEEvT_S6_
FNDA:0,_ZNSt12_Destroy_auxILb0EE9__destroyIPSt6vectorIiSaIiEEEEvT_S6_
FN:117,_ZNSt12_Destroy_auxILb1EE9__destroyIPiEEvT_S3_
FNDA:0,_ZNSt12_Destroy_auxILb1EE9__destroyIPiEEvT_S3_
FN:127,_ZSt8_DestroyIPSt6vectorIiSaIiEEEvT_S4_
FNDA:0,_ZSt8_DestroyIPSt6vectorIiSaIiEEEvT_S4_
FN:127,_ZSt8_DestroyIPiEvT_S1_
FNDA:0,_ZSt8_DestroyIPiEvT_S1_
FN:203,_ZSt8_DestroyIPSt6vectorIiSaIiEES2_EvT_S4_RSaIT0_E
FNDA:0,_ZSt8_DestroyIPSt6vectorIiSaIiEES2_EvT_S4_RSaIT0_E
FN:203,_ZSt8_DestroyIPiiEvT_S1_RSaIT0_E
FNDA:0,_ZSt8_DestroyIPiiEvT_S1_RSaIT0_E
DA:74,0
DA:75,0
DA:97,0
DA:98,0
DA:105,0
DA:107,0
DA:108,0
DA:109,0
DA:117,0
DA:127,0
DA:137,0
DA:138,0
DA:127,0
DA:137,0
DA:138,0
DA:203,0
DA:206,0
DA:207,0
DA:203,0
DA:206,0
DA:207,0
end_of_record
SF:/usr/include/c++/9/ext/new_allocator.h
FN:80,_ZN9__gnu_cxx13new_allocatorISt6vectorIiSaIiEEEC2Ev
FNDA:0,_ZN9__gnu_cxx13new_allocatorISt6vectorIiSaIiEEEC2Ev
FN:80,_ZN9__gnu_cxx13new_allocatorIiEC2Ev
FNDA:0,_ZN9__gnu_cxx13new_allocatorIiEC2Ev
FN:80,_ZN9__gnu_cxx13new_allocatorIcEC2Ev
FNDA:0,_ZN9__gnu_cxx13new_allocatorIcEC2Ev
FN:83,_ZN9__gnu_cxx13new_allocatorISt6vectorIiSaIiEEEC2ERKS4_
FNDA:0,_ZN9__gnu_cxx13new_allocatorISt6vectorIiSaIiEEEC2ERKS4_
FN:83,_ZN9__gnu_cxx13new_allocatorIiEC2ERKS1_
FNDA:0,_ZN9__gnu_cxx13new_allocatorIiEC2ERKS1_
FN:83,_ZN9__gnu_cxx13new_allocatorIcEC2ERKS1_
FNDA:0,_ZN9__gnu_cxx13new_allocatorIcEC2ERKS1_
FN:89,_ZN9__gnu_cxx13new_allocatorISt6vectorIiSaIiEEED2Ev
FNDA:0,_ZN9__gnu_cxx13new_allocatorISt6vectorIiSaIiEEED2Ev
FN:89,_ZN9__gnu_cxx13new_allocatorIiED2Ev
FNDA:0,_ZN9__gnu_cxx13new_allocatorIiED2Ev
FN:89,_ZN9__gnu_cxx13new_allocatorIcED2Ev
FNDA:0,_ZN9__gnu_cxx13new_allocatorIcED2Ev
FN:102,_ZN9__gnu_cxx13new_allocatorISt6vectorIiSaIiEEE8allocateEmPKv
FNDA:0,_ZN9__gnu_cxx13new_allocatorISt6vectorIiSaIiEEE8allocateEmPKv
FN:102,_ZN9__gnu_cxx13new_allocatorIiE8allocateEmPKv
FNDA:0,_ZN9__gnu_cxx13new_allocatorIiE8allocateEmPKv
FN:119,_ZN9__gnu_cxx13new_allocatorISt6vectorIiSaIiEEE10deallocateEPS3_m
FNDA:0,_ZN9__gnu_cxx13new_allocatorISt6vectorIiSaIiEEE10deallocateEPS3_m
FN:119,_ZN9__gnu_cxx13new_allocatorIiE10deallocateEPim
FNDA:0,_ZN9__gnu_cxx13new_allocatorIiE10deallocateEPim
FN:132,_ZNK9__gnu_cxx13new_allocatorISt6vectorIiSaIiEEE8max_sizeEv
FNDA:0,_ZNK9__gnu_cxx13new_allocatorISt6vectorIiSaIiEEE8max_sizeEv
FN:132,_ZNK9__gnu_cxx13new_allocatorIiE8max_sizeEv
FNDA:0,_ZNK9__gnu_cxx13new_allocatorIiE8max_sizeEv
DA:80,0
DA:80,0
DA:80,0
DA:83,0
DA:83,0
DA:83,0
DA:89,0
DA:89,0
DA:89,0
DA:102,0
DA:104,0
DA:105,0
DA:114,0
DA:102,0
DA:104,0
DA:105,0
DA:114,0
DA:119,0
DA:128,0
DA:129,0
DA:119,0
DA:128,0
DA:129,0
DA:132,0
DA:135,0
DA:132,0
DA:135,0
end_of_record
SF:/usr/include/c++/9/bits/stl_algobase.h
FN:198,_ZSt3minImERKT_S2_S2_
FNDA:0,_ZSt3minImERKT_S2_S2_
FN:280,_ZSt12__niter_baseIPiET_S1_
FNDA:0,_ZSt12__niter_baseIPiET_S1_
FN:280,_ZSt12__niter_baseIPKiET_S2_
FNDA:0,_ZSt12__niter_baseIPKiET_S2_
FN:295,_ZSt12__niter_wrapIPiET_RKS1_S1_
FNDA:0,_ZSt12__niter_wrapIPiET_RKS1_S1_
FN:375,_ZNSt11__copy_moveILb0ELb1ESt26random_access_iterator_tagE8__copy_mIiEEPT_PKS3_S6_S4_
FNDA:0,_ZNSt11__copy_moveILb0ELb1ESt26random_access_iterator_tagE8__copy_mIiEEPT_PKS3_S6_S4_
FN:393,_ZSt13__copy_move_aILb0EPKiPiET1_T0_S4_S3_
FNDA:0,_ZSt13__copy_move_aILb0EPKiPiET1_T0_S4_S3_
FN:438,_ZSt14__copy_move_a2ILb0EN9__gnu_cxx17__normal_iteratorIPKiSt6vectorIiSaIiEEEEPiET1_T0_SA_S9_
FNDA:0,_ZSt14__copy_move_a2ILb0EN9__gnu_cxx17__normal_iteratorIPKiSt6vectorIiSaIiEEEEPiET1_T0_SA_S9_
FN:438,_ZSt14__copy_move_a2ILb0EPKiPiET1_T0_S4_S3_
FNDA:0,_ZSt14__copy_move_a2ILb0EPKiPiET1_T0_S4_S3_
FN:465,_ZSt4copyIN9__gnu_cxx17__normal_iteratorIPKiSt6vectorIiSaIiEEEEPiET0_T_SA_S9_
FNDA:0,_ZSt4copyIN9__gnu_cxx17__normal_iteratorIPKiSt6vectorIiSaIiEEEEPiET0_T_SA_S9_
FN:465,_ZSt4copyIPKiPiET0_T_S4_S3_
FNDA:0,_ZSt4copyIPKiPiET0_T_S4_S3_
DA:198,0
DA:203,0
DA:204,0
DA:205,0
DA:280,0
DA:282,0
DA:280,0
DA:282,0
DA:295,0
DA:296,0
DA:375,0
DA:384,0
DA:385,0
DA:386,0
DA:387,0
DA:393,0
DA:398,0
DA:404,0
DA:438,0
DA:440,0
DA:443,0
DA:438,0
DA:440,0
DA:443,0
DA:465,0
DA:474,0
DA:465,0
DA:474,0
end_of_record
SF:/usr/include/c++/9/bits/cpp_type_traits.h
FN:428,_ZSt12__miter_baseIN9__gnu_cxx17__normal_iteratorIPKiSt6vectorIiSaIiEEEEET_S8_
FNDA:0,_ZSt12__miter_baseIN9__gnu_cxx17__normal_iteratorIPKiSt6vectorIiSaIiEEEEET_S8_
FN:428,_ZSt12__miter_baseIPKiET_S2_
FNDA:0,_ZSt12__miter_baseIPKiET_S2_
DA:428,0
DA:429,0
DA:428,0
DA:429,0
end_of_record
SF:/usr/include/c++/9/ext/alloc_traits.h
FN:97,_ZN9__gnu_cxx14__alloc_traitsISaIiEiE17_S_select_on_copyERKS1_
FNDA:0,_ZN9__gnu_cxx14__alloc_traitsISaIiEiE17_S_select_on_copyERKS1_
FN:97,_ZN9__gnu_cxx14__alloc_traitsISaIcEcE17_S_select_on_copyERKS1_
FNDA:0,_ZN9__gnu_cxx14__alloc_traitsISaIcEcE17_S_select_on_copyERKS1_
DA:97,0
DA:98,0
DA:97,0
DA:98,0
end_of_record
SF:/usr/include/c++/9/bits/basic_string.h
FN:243,_ZNSt7__cxx1112basic_stringIcSt11char_traitsIcESaIcEE16_M_construct_auxIPcEEvT_S7_St12__false_type
FNDA:0,_ZNSt7__cxx1112basic_stringIcSt11char_traitsIcESaIcEE16_M_construct_auxIPcEEvT_S7_St12__false_type
FN:243,_ZNSt7__cxx1112basic_stringIcSt11char_traitsIcESaIcEE16_M_construct_auxIPKcEEvT_S8_St12__false_type
FNDA:0,_ZNSt7__cxx1112basic_stringIcSt11char_traitsIcESaIcEE16_M_construct_auxIPKcEEvT_S8_St12__false_type
FN:263,_ZNSt7__cxx1112basic_stringIcSt11char_traitsIcESaIcEE12_M_constructIPcEEvT_S7_
FNDA:0,_ZNSt7__cxx1112basic_stringIcSt11char_traitsIcESaIcEE12_M_constructIPcEEvT_S7_
FN:263,_ZNSt7__cxx1112basic_stringIcSt11char_traitsIcESaIcEE12_M_constructIPKcEEvT_S8_
FNDA:0,_ZNSt7__cxx1112basic_stringIcSt11char_traitsIcESaIcEE12_M_constructIPKcEEvT_S8_
DA:243,0
DA:247,0
DA:248,0
DA:243,0
DA:247,0
DA:248,0
DA:263,0
DA:266,0
DA:267,0
DA:263,0
DA:266,0
DA:267,0
end_of_record
SF:/usr/include/c++/9/bits/stl_iterator_base_types.h
FN:205,_ZSt19__iterator_categoryIPcENSt15iterator_traitsIT_E17iterator_categoryERKS2_
FNDA:0,_ZSt19__iterator_categoryIPcENSt15iterator_traitsIT_E17iterator_categoryERKS2_
FN:205,_ZSt19__iterator_categoryIPKcENSt15iterator_traitsIT_E17iterator_categoryERKS3_
FNDA:0,_ZSt19__iterator_categoryIPKcENSt15iterator_traitsIT_E17iterator_categoryERKS3_
FN:205,_ZSt19__iterator_categoryIPKSt6vectorIiSaIiEEENSt15iterator_traitsIT_E17iterator_categoryERKS6_
FNDA:0,_ZSt19__iterator_categoryIPKSt6vectorIiSaIiEEENSt15iterator_traitsIT_E17iterator_categoryERKS6_
FN:205,_ZSt19__iterator_categoryIPKiENSt15iterator_traitsIT_E17iterator_categoryERKS3_
FNDA:0,_ZSt19__iterator_categoryIPKiENSt15iterator_traitsIT_E17iterator_categoryERKS3_
DA:205,0
DA:206,0
DA:205,0
DA:206,0
DA:205,0
DA:206,0
DA:205,0
DA:206,0
end_of_record
SF:/home/pato/TPIMorfMat/template-alumnos/lib/googletest-master/googletest/include/gtest/internal/gtest-internal.h
FN:448,_ZN7testing8internal15TestFactoryBaseD2Ev
FNDA:0,_ZN7testing8internal15TestFactoryBaseD2Ev
FN:448,_ZN7testing8internal15TestFactoryBaseD0Ev
FNDA:0,_ZN7testing8internal15TestFactoryBaseD0Ev
FN:455,_ZN7testing8internal15TestFactoryBaseC2Ev
FNDA:0,_ZN7testing8internal15TestFactoryBaseC2Ev
FN:466,_ZN7testing8internal15TestFactoryImplI67sonPixelesConectadosTest_PixelesSeparadosNoEstanConectadosAdy8_TestE10CreateTestEv
FNDA:1,_ZN7testing8internal15TestFactoryImplI67sonPixelesConectadosTest_PixelesSeparadosNoEstanConectadosAdy8_TestE10CreateTestEv
FN:466,_ZN7testing8internal15TestFactoryImplI73sonPixelesConectadosTest_PixelesEnCaminoLargoAdy4EstanConectadosAdy4_TestE10CreateTestEv
FNDA:1,_ZN7testing8internal15TestFactoryImplI73sonPixelesConectadosTest_PixelesEnCaminoLargoAdy4EstanConectadosAdy4_TestE10CreateTestEv
FN:466,_ZN7testing8internal15TestFactoryImplI75sonPixelesConectadosTest_PixelesEnCaminoLargoAdy8NoEstanConectadosAdy4_TestE10CreateTestEv
FNDA:1,_ZN7testing8internal15TestFactoryImplI75sonPixelesConectadosTest_PixelesEnCaminoLargoAdy8NoEstanConectadosAdy4_TestE10CreateTestEv
FN:466,_ZN7testing8internal15TestFactoryImplI73sonPixelesConectadosTest_PixelesEnCaminoLargoAdy8EstanConectadosAdy8_TestE10CreateTestEv
FNDA:1,_ZN7testing8internal15TestFactoryImplI73sonPixelesConectadosTest_PixelesEnCaminoLargoAdy8EstanConectadosAdy8_TestE10CreateTestEv
FN:466,_ZN7testing8internal15TestFactoryImplI68sonPixelesConectadosTest_PixelesEnCaminoAdy8EstanConectadosAdy8_TestE10CreateTestEv
FNDA:1,_ZN7testing8internal15TestFactoryImplI68sonPixelesConectadosTest_PixelesEnCaminoAdy8EstanConectadosAdy8_TestE10CreateTestEv
FN:466,_ZN7testing8internal15TestFactoryImplI68sonPixelesConectadosTest_PixelesEnCaminoAdy4EstanConectadosAdy8_TestE10CreateTestEv
FNDA:1,_ZN7testing8internal15TestFactoryImplI68sonPixelesConectadosTest_PixelesEnCaminoAdy4EstanConectadosAdy8_TestE10CreateTestEv
FN:466,_ZN7testing8internal15TestFactoryImplI62sonPixelesConectadosTest_PixelesEnAdy4EstanConectadosAdy8_TestE10CreateTestEv
FNDA:1,_ZN7testing8internal15TestFactoryImplI62sonPixelesConectadosTest_PixelesEnAdy4EstanConectadosAdy8_TestE10CreateTestEv
FN:466,_ZN7testing8internal15TestFactoryImplI68sonPixelesConectadosTest_PixelesEnDiagonalNoEstanConectadosAdy4_TestE10CreateTestEv
FNDA:1,_ZN7testing8internal15TestFactoryImplI68sonPixelesConectadosTest_PixelesEnDiagonalNoEstanConectadosAdy4_TestE10CreateTestEv
FN:466,_ZN7testing8internal15TestFactoryImplI66sonPixelesConectadosTest_PixelesEnDiagonalEstanConectadosAdy8_TestE10CreateTestEv
FNDA:1,_ZN7testing8internal15TestFactoryImplI66sonPixelesConectadosTest_PixelesEnDiagonalEstanConectadosAdy8_TestE10CreateTestEv
FN:466,_ZN7testing8internal15TestFactoryImplI81sonPixelesConectadosTest_PixelesConectadosPorMuchosPixelesParaTodosLadosAdy4_TestE10CreateTestEv
FNDA:1,_ZN7testing8internal15TestFactoryImplI81sonPixelesConectadosTest_PixelesConectadosPorMuchosPixelesParaTodosLadosAdy4_TestE10CreateTestEv
FN:466,_ZN7testing8internal15TestFactoryImplI77sonPixelesConectadosTest_PixelesConectadosPorMuchosPixelesVerticalesAdy4_TestE10CreateTestEv
FNDA:1,_ZN7testing8internal15TestFactoryImplI77sonPixelesConectadosTest_PixelesConectadosPorMuchosPixelesVerticalesAdy4_TestE10CreateTestEv
FN:466,_ZN7testing8internal15TestFactoryImplI69sonPixelesConectadosTest_PixelesConectadosPorUnPixelVerticalAdy4_TestE10CreateTestEv
FNDA:1,_ZN7testing8internal15TestFactoryImplI69sonPixelesConectadosTest_PixelesConectadosPorUnPixelVerticalAdy4_TestE10CreateTestEv
FN:466,_ZN7testing8internal15TestFactoryImplI84sonPixelesConectadosTest_PixelesEnVerticalAlRevesSeparadosNoEstanConectadosAdy4_TestE10CreateTestEv
FNDA:1,_ZN7testing8internal15TestFactoryImplI84sonPixelesConectadosTest_PixelesEnVerticalAlRevesSeparadosNoEstanConectadosAdy4_TestE10CreateTestEv
FN:466,_ZN7testing8internal15TestFactoryImplI86sonPixelesConectadosTest_PixelesEnHorizontalAlRevesSeparadosNoEstanConectadosAdy4_TestE10CreateTestEv
FNDA:1,_ZN7testing8internal15TestFactoryImplI86sonPixelesConectadosTest_PixelesEnHorizontalAlRevesSeparadosNoEstanConectadosAdy4_TestE10CreateTestEv
FN:466,_ZN7testing8internal15TestFactoryImplI77sonPixelesConectadosTest_PixelesEnVerticalSeparadosNoEstanConectadosAdy4_TestE10CreateTestEv
FNDA:1,_ZN7testing8internal15TestFactoryImplI77sonPixelesConectadosTest_PixelesEnVerticalSeparadosNoEstanConectadosAdy4_TestE10CreateTestEv
FN:466,_ZN7testing8internal15TestFactoryImplI79sonPixelesConectadosTest_PixelesEnHorizontalSeparadosNoEstanConectadosAdy4_TestE10CreateTestEv
FNDA:1,_ZN7testing8internal15TestFactoryImplI79sonPixelesConectadosTest_PixelesEnHorizontalSeparadosNoEstanConectadosAdy4_TestE10CreateTestEv
FN:466,_ZN7testing8internal15TestFactoryImplI68sonPixelesConectadosTest_PixelesEnHorizontalEstanConectadosAdy4_TestE10CreateTestEv
FNDA:1,_ZN7testing8internal15TestFactoryImplI68sonPixelesConectadosTest_PixelesEnHorizontalEstanConectadosAdy4_TestE10CreateTestEv
FN:487,_ZN7testing8internal12CodeLocationC2ERKNSt7__cxx1112basic_stringIcSt11char_traitsIcESaIcEEEi
FNDA:0,_ZN7testing8internal12CodeLocationC2ERKNSt7__cxx1112basic_stringIcSt11char_traitsIcESaIcEEEi
DA:448,0
DA:448,0
DA:455,0
DA:466,1
DA:466,1
DA:466,1
DA:466,1
DA:466,1
DA:466,1
DA:466,1
DA:466,1
DA:466,1
DA:466,1
DA:466,1
DA:466,1
DA:466,1
DA:466,1
DA:466,1
DA:466,1
DA:466,1
DA:487,0
DA:488,0
end_of_record
SF:/usr/include/c++/9/initializer_list
FN:71,_ZNKSt16initializer_listISt6vectorIiSaIiEEE4sizeEv
FNDA:0,_ZNKSt16initializer_listISt6vectorIiSaIiEEE4sizeEv
FN:71,_ZNKSt16initializer_listIiE4sizeEv
FNDA:0,_ZNKSt16initializer_listIiE4sizeEv
FN:75,_ZNKSt16initializer_listISt6vectorIiSaIiEEE5beginEv
FNDA:0,_ZNKSt16initializer_listISt6vectorIiSaIiEEE5beginEv
FN:75,_ZNKSt16initializer_listIiE5beginEv
FNDA:0,_ZNKSt16initializer_listIiE5beginEv
FN:79,_ZNKSt16initializer_listISt6vectorIiSaIiEEE3endEv
FNDA:0,_ZNKSt16initializer_listISt6vectorIiSaIiEEE3endEv
FN:79,_ZNKSt16initializer_listIiE3endEv
FNDA:0,_ZNKSt16initializer_listIiE3endEv
DA:71,0
DA:71,0
DA:75,0
DA:75,0
DA:79,0
DA:79,0
end_of_record
SF:/usr/include/c++/9/bits/char_traits.h
FN:329,_ZNSt11char_traitsIcE6lengthEPKc
FNDA:0,_ZNSt11char_traitsIcE6lengthEPKc
DA:329,0
DA:335,0
end_of_record
SF:/home/pato/TPIMorfMat/template-alumnos/lib/googletest-master/googletest/include/gtest/gtest.h
FN:286,_ZN7testing15AssertionResultC2IbEERKT_PNS_8internal8EnableIfIXntsrNS5_21ImplicitlyConvertibleIS2_S0_EE5valueEE4typeE
FNDA:0,_ZN7testing15AssertionResultC2IbEERKT_PNS_8internal8EnableIfIXntsrNS5_21ImplicitlyConvertibleIS2_S0_EE5valueEE4typeE
FN:304,_ZNK7testing15AssertionResultcvbEv
FNDA:0,_ZNK7testing15AssertionResultcvbEv
FN:414,_ZN7testing4Test13SetUpTestCaseEv
FNDA:0,_ZN7testing4Test13SetUpTestCaseEv
FN:422,_ZN7testing4Test16TearDownTestCaseEv
FNDA:0,_ZN7testing4Test16TearDownTestCaseEv
FN:499,_ZN7testing4Test5SetupEv
FNDA:0,_ZN7testing4Test5SetupEv
DA:286,0
DA:291,0
DA:304,0
DA:414,0
DA:422,0
DA:499,0
end_of_record
SF:/usr/include/c++/9/bits/move.h
FN:47,_ZSt11__addressofISt6vectorIiSaIiEEEPT_RS3_
FNDA:0,_ZSt11__addressofISt6vectorIiSaIiEEEPT_RS3_
FN:74,_ZSt7forwardIRKSt6vectorIiSaIiEEEOT_RNSt16remove_referenceIS5_E4typeE
FNDA:0,_ZSt7forwardIRKSt6vectorIiSaIiEEEOT_RNSt16remove_referenceIS5_E4typeE
FN:99,_ZSt4moveIRSaIcEEONSt16remove_referenceIT_E4typeEOS3_
FNDA:0,_ZSt4moveIRSaIcEEONSt16remove_referenceIT_E4typeEOS3_
DA:47,0
DA:48,0
DA:74,0
DA:75,0
DA:99,0
DA:100,0
end_of_record
SF:/usr/include/c++/9/bits/basic_string.tcc
FN:206,_ZNSt7__cxx1112basic_stringIcSt11char_traitsIcESaIcEE12_M_constructIPcEEvT_S7_St20forward_iterator_tag
FNDA:0,_ZNSt7__cxx1112basic_stringIcSt11char_traitsIcESaIcEE12_M_constructIPcEEvT_S7_St20forward_iterator_tag
FN:206,_ZNSt7__cxx1112basic_stringIcSt11char_traitsIcESaIcEE12_M_constructIPKcEEvT_S8_St20forward_iterator_tag
FNDA:0,_ZNSt7__cxx1112basic_stringIcSt11char_traitsIcESaIcEE12_M_constructIPKcEEvT_S8_St20forward_iterator_tag
DA:206,0
DA:211,0
DA:212,0
DA:215,0
DA:217,0
DA:219,0
DA:220,0
DA:225,0
DA:226,0
DA:228,0
DA:229,0
DA:232,0
DA:233,0
DA:206,0
DA:211,0
DA:212,0
DA:215,0
DA:217,0
DA:219,0
DA:220,0
DA:225,0
DA:226,0
DA:228,0
DA:229,0
DA:232,0
DA:233,0
end_of_record
SF:/usr/include/c++/9/bits/stl_vector.h
FN:94,_ZNSt12_Vector_baseIiSaIiEE17_Vector_impl_dataC2Ev
FNDA:0,_ZNSt12_Vector_baseIiSaIiEE17_Vector_impl_dataC2Ev
FN:94,_ZNSt12_Vector_baseISt6vectorIiSaIiEESaIS2_EE17_Vector_impl_dataC2Ev
FNDA:0,_ZNSt12_Vector_baseISt6vectorIiSaIiEESaIS2_EE17_Vector_impl_dataC2Ev
FN:133,_ZNSt12_Vector_baseIiSaIiEE12_Vector_implC2ERKS0_
FNDA:0,_ZNSt12_Vector_baseIiSaIiEE12_Vector_implC2ERKS0_
FN:133,_ZNSt12_Vector_baseISt6vectorIiSaIiEESaIS2_EE12_Vector_implC2ERKS3_
FNDA:0,_ZNSt12_Vector_baseISt6vectorIiSaIiEESaIS2_EE12_Vector_implC2ERKS3_
FN:273,_ZNSt12_Vector_baseISt6vectorIiSaIiEESaIS2_EE19_M_get_Tp_allocatorEv
FNDA:0,_ZNSt12_Vector_baseISt6vectorIiSaIiEESaIS2_EE19_M_get_Tp_allocatorEv
FN:273,_ZNSt12_Vector_baseIiSaIiEE19_M_get_Tp_allocatorEv
FNDA:0,_ZNSt12_Vector_baseIiSaIiEE19_M_get_Tp_allocatorEv
FN:277,_ZNKSt12_Vector_baseIiSaIiEE19_M_get_Tp_allocatorEv
FNDA:0,_ZNKSt12_Vector_baseIiSaIiEE19_M_get_Tp_allocatorEv
FN:290,_ZNSt12_Vector_baseIiSaIiEEC2ERKS0_
FNDA:0,_ZNSt12_Vector_baseIiSaIiEEC2ERKS0_
FN:290,_ZNSt12_Vector_baseISt6vectorIiSaIiEESaIS2_EEC2ERKS3_
FNDA:0,_ZNSt12_Vector_baseISt6vectorIiSaIiEESaIS2_EEC2ERKS3_
FN:300,_ZNSt12_Vector_baseIiSaIiEEC2EmRKS0_
FNDA:0,_ZNSt12_Vector_baseIiSaIiEEC2EmRKS0_
FN:330,_ZNSt12_Vector_baseIiSaIiEED2Ev
FNDA:0,_ZNSt12_Vector_baseIiSaIiEED2Ev
FN:330,_ZNSt12_Vector_baseISt6vectorIiSaIiEESaIS2_EED2Ev
FNDA:0,_ZNSt12_Vector_baseISt6vectorIiSaIiEESaIS2_EED2Ev
FN:340,_ZNSt12_Vector_baseISt6vectorIiSaIiEESaIS2_EE11_M_allocateEm
FNDA:0,_ZNSt12_Vector_baseISt6vectorIiSaIiEESaIS2_EE11_M_allocateEm
FN:340,_ZNSt12_Vector_baseIiSaIiEE11_M_allocateEm
FNDA:0,_ZNSt12_Vector_baseIiSaIiEE11_M_allocateEm
FN:347,_ZNSt12_Vector_baseISt6vectorIiSaIiEESaIS2_EE13_M_deallocateEPS2_m
FNDA:0,_ZNSt12_Vector_baseISt6vectorIiSaIiEESaIS2_EE13_M_deallocateEPS2_m
FN:347,_ZNSt12_Vector_baseIiSaIiEE13_M_deallocateEPim
FNDA:0,_ZNSt12_Vector_baseIiSaIiEE13_M_deallocateEPim
FN:356,_ZNSt12_Vector_baseIiSaIiEE17_M_create_storageEm
FNDA:0,_ZNSt12_Vector_baseIiSaIiEE17_M_create_storageEm
FN:550,_ZNSt6vectorIiSaIiEEC2ERKS1_
FNDA:0,_ZNSt6vectorIiSaIiEEC2ERKS1_
FN:622,_ZNSt6vectorIS_IiSaIiEESaIS1_EEC2ESt16initializer_listIS1_ERKS2_
FNDA:0,_ZNSt6vectorIS_IiSaIiEESaIS1_EEC2ESt16initializer_listIS1_ERKS2_
FN:622,_ZNSt6vectorIiSaIiEEC2ESt16initializer_listIiERKS0_
FNDA:0,_ZNSt6vectorIiSaIiEEC2ESt16initializer_listIiERKS0_
FN:675,_ZNSt6vectorIS_IiSaIiEESaIS1_EED2Ev
FNDA:0,_ZNSt6vectorIS_IiSaIiEESaIS1_EED2Ev
FN:675,_ZNSt6vectorIiSaIiEED2Ev
FNDA:0,_ZNSt6vectorIiSaIiEED2Ev
FN:817,_ZNKSt6vectorIiSaIiEE5beginEv
FNDA:0,_ZNKSt6vectorIiSaIiEE5beginEv
FN:835,_ZNKSt6vectorIiSaIiEE3endEv
FNDA:0,_ZNKSt6vectorIiSaIiEE3endEv
FN:915,_ZNKSt6vectorIiSaIiEE4sizeEv
FNDA:0,_ZNKSt6vectorIiSaIiEE4sizeEv
FN:1574,_ZNSt6vectorIS_IiSaIiEESaIS1_EE19_M_range_initializeIPKS1_EEvT_S7_St20forward_iterator_tag
FNDA:0,_ZNSt6vectorIS_IiSaIiEESaIS1_EE19_M_range_initializeIPKS1_EEvT_S7_St20forward_iterator_tag
FN:1574,_ZNSt6vectorIiSaIiEE19_M_range_initializeIPKiEEvT_S5_St20forward_iterator_tag
FNDA:0,_ZNSt6vectorIiSaIiEE19_M_range_initializeIPKiEEvT_S5_St20forward_iterator_tag
FN:1764,_ZNSt6vectorIiSaIiEE17_S_check_init_lenEmRKS0_
FNDA:0,_ZNSt6vectorIiSaIiEE17_S_check_init_lenEmRKS0_
FN:1764,_ZNSt6vectorIS_IiSaIiEESaIS1_EE17_S_check_init_lenEmRKS2_
FNDA:0,_ZNSt6vectorIS_IiSaIiEESaIS1_EE17_S_check_init_lenEmRKS2_
FN:1773,_ZNSt6vectorIiSaIiEE11_S_max_sizeERKS0_
FNDA:0,_ZNSt6vectorIiSaIiEE11_S_max_sizeERKS0_
FN:1773,_ZNSt6vectorIS_IiSaIiEESaIS1_EE11_S_max_sizeERKS2_
FNDA:0,_ZNSt6vectorIS_IiSaIiEESaIS1_EE11_S_max_sizeERKS2_
DA:94,0
DA:95,0
DA:96,0
DA:94,0
DA:95,0
DA:96,0
DA:133,0
DA:134,0
DA:135,0
DA:133,0
DA:134,0
DA:135,0
DA:273,0
DA:274,0
DA:273,0
DA:274,0
DA:277,0
DA:278,0
DA:290,0
DA:291,0
DA:290,0
DA:291,0
DA:300,0
DA:301,0
DA:302,0
DA:330,0
DA:332,0
DA:333,0
DA:334,0
DA:330,0
DA:332,0
DA:333,0
DA:334,0
DA:340,0
DA:343,0
DA:340,0
DA:343,0
DA:347,0
DA:350,0
DA:351,0
DA:352,0
DA:347,0
DA:350,0
DA:351,0
DA:352,0
DA:356,0
DA:358,0
DA:359,0
DA:360,0
DA:361,0
DA:550,0
DA:552,0
DA:554,0
DA:555,0
DA:557,0
DA:558,0
DA:622,0
DA:624,0
DA:626,0
DA:628,0
DA:622,0
DA:624,0
DA:626,0
DA:628,0
DA:675,0
DA:677,0
DA:678,0
DA:680,0
DA:675,0
DA:677,0
DA:678,0
DA:680,0
DA:817,0
DA:818,0
DA:835,0
DA:836,0
DA:915,0
DA:916,0
DA:1574,0
DA:1577,0
DA:1578,0
DA:1579,0
DA:1580,0
DA:1581,0
DA:1582,0
DA:1584,0
DA:1585,0
DA:1574,0
DA:1577,0
DA:1578,0
DA:1579,0
DA:1580,0
DA:1581,0
DA:1582,0
DA:1584,0
DA:1585,0
DA:1764,0
DA:1766,0
DA:1767,0
DA:1769,0
DA:1764,0
DA:1766,0
DA:1767,0
DA:1769,0
DA:1773,0
DA:1778,0
DA:1780,0
DA:1781,0
DA:1773,0
DA:1778,0
DA:1780,0
DA:1781,0
end_of_record
SF:/home/pato/TPIMorfMat/template-alumnos/lib/googletest-master/googletest/include/gtest/internal/gtest-port.h
FN:1184,_ZN7testing8internal10scoped_ptrINSt7__cxx1112basic_stringIcSt11char_traitsIcESaIcEEEEC2EPS7_
FNDA:0,_ZN7testing8internal10scoped_ptrINSt7__cxx1112basic_stringIcSt11char_traitsIcESaIcEEEEC2EPS7_
FN:1185,_ZN7testing8internal10scoped_ptrINSt7__cxx1112basic_stringIcSt11char_traitsIcESaIcEEEED2Ev
FNDA:0,_ZN7testing8internal10scoped_ptrINSt7__cxx1112basic_stringIcSt11char_traitsIcESaIcEEEED2Ev
FN:1185,_ZN7testing8internal10scoped_ptrINSt7__cxx1118basic_stringstreamIcSt11char_traitsIcESaIcEEEED2Ev
FNDA:0,_ZN7testing8internal10scoped_ptrINSt7__cxx1118basic_stringstreamIcSt11char_traitsIcESaIcEEEED2Ev
FN:1197,_ZN7testing8internal10scoped_ptrINSt7__cxx1118basic_stringstreamIcSt11char_traitsIcESaIcEEEE5resetEPS7_
FNDA:0,_ZN7testing8internal10scoped_ptrINSt7__cxx1118basic_stringstreamIcSt11char_traitsIcESaIcEEEE5resetEPS7_
FN:1197,_ZN7testing8internal10scoped_ptrINSt7__cxx1112basic_stringIcSt11char_traitsIcESaIcEEEE5resetEPS7_
FNDA:0,_ZN7testing8internal10scoped_ptrINSt7__cxx1112basic_stringIcSt11char_traitsIcESaIcEEEE5resetEPS7_
DA:1184,0
DA:1185,0
DA:1185,0
DA:1197,0
DA:1198,0
DA:1199,0
DA:1200,0
DA:1202,0
DA:1204,0
DA:1197,0
DA:1198,0
DA:1199,0
DA:1200,0
DA:1202,0
DA:1204,0
end_of_record
SF:/usr/include/c++/9/ext/type_traits.h
FN:152,_ZN9__gnu_cxx17__is_null_pointerIcEEbPT_
FNDA:0,_ZN9__gnu_cxx17__is_null_pointerIcEEbPT_
FN:152,_ZN9__gnu_cxx17__is_null_pointerIKcEEbPT_
FNDA:0,_ZN9__gnu_cxx17__is_null_pointerIKcEEbPT_
DA:152,0
DA:153,0
DA:152,0
DA:153,0
end_of_record
SF:/usr/include/c++/9/bits/alloc_traits.h
FN:443,_ZNSt16allocator_traitsISaISt6vectorIiSaIiEEEE8allocateERS3_m
FNDA:0,_ZNSt16allocator_traitsISaISt6vectorIiSaIiEEEE8allocateERS3_m
FN:443,_ZNSt16allocator_traitsISaIiEE8allocateERS0_m
FNDA:0,_ZNSt16allocator_traitsISaIiEE8allocateERS0_m
FN:469,_ZNSt16allocator_traitsISaISt6vectorIiSaIiEEEE10deallocateERS3_PS2_m
FNDA:0,_ZNSt16allocator_traitsISaISt6vectorIiSaIiEEEE10deallocateERS3_PS2_m
FN:469,_ZNSt16allocator_traitsISaIiEE10deallocateERS0_Pim
FNDA:0,_ZNSt16allocator_traitsISaIiEE10deallocateERS0_Pim
FN:505,_ZNSt16allocator_traitsISaISt6vectorIiSaIiEEEE8max_sizeERKS3_
FNDA:0,_ZNSt16allocator_traitsISaISt6vectorIiSaIiEEEE8max_sizeERKS3_
FN:505,_ZNSt16allocator_traitsISaIiEE8max_sizeERKS0_
FNDA:0,_ZNSt16allocator_traitsISaIiEE8max_sizeERKS0_
FN:514,_ZNSt16allocator_traitsISaIiEE37select_on_container_copy_constructionERKS0_
FNDA:0,_ZNSt16allocator_traitsISaIiEE37select_on_container_copy_constructionERKS0_
FN:514,_ZNSt16allocator_traitsISaIcEE37select_on_container_copy_constructionERKS0_
FNDA:0,_ZNSt16allocator_traitsISaIcEE37select_on_container_copy_constructionERKS0_
DA:443,0
DA:444,0
DA:443,0
DA:444,0
DA:469,0
DA:470,0
DA:469,0
DA:470,0
DA:505,0
DA:506,0
DA:505,0
DA:506,0
DA:514,0
DA:515,0
DA:514,0
DA:515,0
end_of_record
SF:/usr/include/c++/9/bits/allocator.h
FN:138,_ZNSaISt6vectorIiSaIiEEEC2Ev
FNDA:0,_ZNSaISt6vectorIiSaIiEEEC2Ev
FN:138,_ZNSaIiEC2Ev
FNDA:0,_ZNSaIiEC2Ev
FN:141,_ZNSaISt6vectorIiSaIiEEEC2ERKS2_
FNDA:0,_ZNSaISt6vectorIiSaIiEEEC2ERKS2_
FN:141,_ZNSaIiEC2ERKS_
FNDA:0,_ZNSaIiEC2ERKS_
FN:153,_ZNSaISt6vectorIiSaIiEEED2Ev
FNDA:0,_ZNSaISt6vectorIiSaIiEEED2Ev
FN:153,_ZNSaIiED2Ev
FNDA:0,_ZNSaIiED2Ev
DA:138,0
DA:138,0
DA:141,0
DA:142,0
DA:141,0
DA:142,0
DA:153,0
DA:153,0
end_of_record
SF:/usr/include/c++/9/bits/stl_iterator.h
FN:806,_ZN9__gnu_cxx17__normal_iteratorIPKiSt6vectorIiSaIiEEEC2ERKS2_
FNDA:0,_ZN9__gnu_cxx17__normal_iteratorIPKiSt6vectorIiSaIiEEEC2ERKS2_
FN:871,_ZNK9__gnu_cxx17__normal_iteratorIPKiSt6vectorIiSaIiEEE4baseEv
FNDA:0,_ZNK9__gnu_cxx17__normal_iteratorIPKiSt6vectorIiSaIiEEE4baseEv
FN:1010,_ZSt12__niter_baseIPKiSt6vectorIiSaIiEEET_N9__gnu_cxx17__normal_iteratorIS5_T0_EE
FNDA:0,_ZSt12__niter_baseIPKiSt6vectorIiSaIiEEET_N9__gnu_cxx17__normal_iteratorIS5_T0_EE
DA:806,0
DA:807,0
DA:871,0
DA:872,0
DA:1010,0
DA:1012,0
end_of_record
SF:/usr/include/c++/9/bits/stl_iterator_base_funcs.h
FN:98,_ZSt10__distanceIPcENSt15iterator_traitsIT_E15difference_typeES2_S2_St26random_access_iterator_tag
FNDA:0,_ZSt10__distanceIPcENSt15iterator_traitsIT_E15difference_typeES2_S2_St26random_access_iterator_tag
FN:98,_ZSt10__distanceIPKcENSt15iterator_traitsIT_E15difference_typeES3_S3_St26random_access_iterator_tag
FNDA:0,_ZSt10__distanceIPKcENSt15iterator_traitsIT_E15difference_typeES3_S3_St26random_access_iterator_tag
FN:98,_ZSt10__distanceIPKSt6vectorIiSaIiEEENSt15iterator_traitsIT_E15difference_typeES6_S6_St26random_access_iterator_tag
FNDA:0,_ZSt10__distanceIPKSt6vectorIiSaIiEEENSt15iterator_traitsIT_E15difference_typeES6_S6_St26random_access_iterator_tag
FN:98,_ZSt10__distanceIPKiENSt15iterator_traitsIT_E15difference_typeES3_S3_St26random_access_iterator_tag
FNDA:0,_ZSt10__distanceIPKiENSt15iterator_traitsIT_E15difference_typeES3_S3_St26random_access_iterator_tag
FN:138,_ZSt8distanceIPcENSt15iterator_traitsIT_E15difference_typeES2_S2_
FNDA:0,_ZSt8distanceIPcENSt15iterator_traitsIT_E15difference_typeES2_S2_
FN:138,_ZSt8distanceIPKcENSt15iterator_traitsIT_E15difference_typeES3_S3_
FNDA:0,_ZSt8distanceIPKcENSt15iterator_traitsIT_E15difference_typeES3_S3_
FN:138,_ZSt8distanceIPKSt6vectorIiSaIiEEENSt15iterator_traitsIT_E15difference_typeES6_S6_
FNDA:0,_ZSt8distanceIPKSt6vectorIiSaIiEEENSt15iterator_traitsIT_E15difference_typeES6_S6_
FN:138,_ZSt8distanceIPKiENSt15iterator_traitsIT_E15difference_typeES3_S3_
FNDA:0,_ZSt8distanceIPKiENSt15iterator_traitsIT_E15difference_typeES3_S3_
DA:98,0
DA:104,0
DA:98,0
DA:104,0
DA:98,0
DA:104,0
DA:98,0
DA:104,0
DA:138,0
DA:141,0
DA:142,0
DA:138,0
DA:141,0
DA:142,0
DA:138,0
DA:141,0
DA:142,0
DA:138,0
DA:141,0
DA:142,0
end_of_record
SF:/home/pato/TPIMorfMat/template-alumnos/lib/googletest-master/googletest/include/gtest/gtest-message.h
end_of_record
TN:
SF:/usr/include/c++/9/bits/move.h
FN:47,_ZSt11__addressofISt6vectorIiSaIiEEEPT_RS3_
FNDA:0,_ZSt11__addressofISt6vectorIiSaIiEEEPT_RS3_
FN:74,_ZSt7forwardIRKSt6vectorIiSaIiEEEOT_RNSt16remove_referenceIS5_E4typeE
FNDA:0,_ZSt7forwardIRKSt6vectorIiSaIiEEEOT_RNSt16remove_referenceIS5_E4typeE
FN:99,_ZSt4moveIRSaIcEEONSt16remove_referenceIT_E4typeEOS3_
FNDA:0,_ZSt4moveIRSaIcEEONSt16remove_referenceIT_E4typeEOS3_
DA:47,0
DA:48,0
DA:74,0
DA:75,0
DA:99,0
DA:100,0
end_of_record
SF:/home/pato/TPIMorfMat/template-alumnos/lib/googletest-master/googletest/include/gtest/gtest.h
FN:286,_ZN7testing15AssertionResultC2IbEERKT_PNS_8internal8EnableIfIXntsrNS5_21ImplicitlyConvertibleIS2_S0_EE5valueEE4typeE
FNDA:0,_ZN7testing15AssertionResultC2IbEERKT_PNS_8internal8EnableIfIXntsrNS5_21ImplicitlyConvertibleIS2_S0_EE5valueEE4typeE
FN:304,_ZNK7testing15AssertionResultcvbEv
FNDA:0,_ZNK7testing15AssertionResultcvbEv
FN:414,_ZN7testing4Test13SetUpTestCaseEv
FNDA:0,_ZN7testing4Test13SetUpTestCaseEv
FN:422,_ZN7testing4Test16TearDownTestCaseEv
FNDA:0,_ZN7testing4Test16TearDownTestCaseEv
FN:499,_ZN7testing4Test5SetupEv
FNDA:0,_ZN7testing4Test5SetupEv
DA:286,0
DA:291,0
DA:304,0
DA:414,0
DA:422,0
DA:499,0
end_of_record
SF:/usr/include/c++/9/bits/char_traits.h
FN:329,_ZNSt11char_traitsIcE6lengthEPKc
FNDA:0,_ZNSt11char_traitsIcE6lengthEPKc
DA:329,0
DA:335,0
end_of_record
SF:/usr/include/c++/9/initializer_list
FN:71,_ZNKSt16initializer_listISt6vectorIiSaIiEEE4sizeEv
FNDA:0,_ZNKSt16initializer_listISt6vectorIiSaIiEEE4sizeEv
FN:71,_ZNKSt16initializer_listIiE4sizeEv
FNDA:0,_ZNKSt16initializer_listIiE4sizeEv
FN:75,_ZNKSt16initializer_listISt6vectorIiSaIiEEE5beginEv
FNDA:0,_ZNKSt16initializer_listISt6vectorIiSaIiEEE5beginEv
FN:75,_ZNKSt16initializer_listIiE5beginEv
FNDA:0,_ZNKSt16initializer_listIiE5beginEv
FN:79,_ZNKSt16initializer_listISt6vectorIiSaIiEEE3endEv
FNDA:0,_ZNKSt16initializer_listISt6vectorIiSaIiEEE3endEv
FN:79,_ZNKSt16initializer_listIiE3endEv
FNDA:0,_ZNKSt16initializer_listIiE3endEv
DA:71,0
DA:71,0
DA:75,0
DA:75,0
DA:79,0
DA:79,0
end_of_record
SF:/usr/include/c++/9/bits/stl_iterator_base_types.h
FN:205,_ZSt19__iterator_categoryIPcENSt15iterator_traitsIT_E17iterator_categoryERKS2_
FNDA:0,_ZSt19__iterator_categoryIPcENSt15iterator_traitsIT_E17iterator_categoryERKS2_
FN:205,_ZSt19__iterator_categoryIPKcENSt15iterator_traitsIT_E17iterator_categoryERKS3_
FNDA:0,_ZSt19__iterator_categoryIPKcENSt15iterator_traitsIT_E17iterator_categoryERKS3_
FN:205,_ZSt19__iterator_categoryIPKSt6vectorIiSaIiEEENSt15iterator_traitsIT_E17iterator_categoryERKS6_
FNDA:0,_ZSt19__iterator_categoryIPKSt6vectorIiSaIiEEENSt15iterator_traitsIT_E17iterator_categoryERKS6_
FN:205,_ZSt19__iterator_categoryIPKiENSt15iterator_traitsIT_E17iterator_categoryERKS3_
FNDA:0,_ZSt19__iterator_categoryIPKiENSt15iterator_traitsIT_E17iterator_categoryERKS3_
DA:205,0
DA:206,0
DA:205,0
DA:206,0
DA:205,0
DA:206,0
DA:205,0
DA:206,0
end_of_record
SF:/usr/include/c++/9/bits/basic_string.h
FN:243,_ZNSt7__cxx1112basic_stringIcSt11char_traitsIcESaIcEE16_M_construct_auxIPcEEvT_S7_St12__false_type
FNDA:0,_ZNSt7__cxx1112basic_stringIcSt11char_traitsIcESaIcEE16_M_construct_auxIPcEEvT_S7_St12__false_type
FN:243,_ZNSt7__cxx1112basic_stringIcSt11char_traitsIcESaIcEE16_M_construct_auxIPKcEEvT_S8_St12__false_type
FNDA:0,_ZNSt7__cxx1112basic_stringIcSt11char_traitsIcESaIcEE16_M_construct_auxIPKcEEvT_S8_St12__false_type
FN:263,_ZNSt7__cxx1112basic_stringIcSt11char_traitsIcESaIcEE12_M_constructIPcEEvT_S7_
FNDA:0,_ZNSt7__cxx1112basic_stringIcSt11char_traitsIcESaIcEE12_M_constructIPcEEvT_S7_
FN:263,_ZNSt7__cxx1112basic_stringIcSt11char_traitsIcESaIcEE12_M_constructIPKcEEvT_S8_
FNDA:0,_ZNSt7__cxx1112basic_stringIcSt11char_traitsIcESaIcEE12_M_constructIPKcEEvT_S8_
DA:243,0
DA:247,0
DA:248,0
DA:243,0
DA:247,0
DA:248,0
DA:263,0
DA:266,0
DA:267,0
DA:263,0
DA:266,0
DA:267,0
end_of_record
SF:/home/pato/TPIMorfMat/template-alumnos/lib/googletest-master/googletest/include/gtest/internal/gtest-internal.h
FN:448,_ZN7testing8internal15TestFactoryBaseD0Ev
FNDA:0,_ZN7testing8internal15TestFactoryBaseD0Ev
FN:448,_ZN7testing8internal15TestFactoryBaseD2Ev
FNDA:0,_ZN7testing8internal15TestFactoryBaseD2Ev
FN:455,_ZN7testing8internal15TestFactoryBaseC2Ev
FNDA:0,_ZN7testing8internal15TestFactoryBaseC2Ev
FN:466,_ZN7testing8internal15TestFactoryImplI49esImagenValidaTest_ImagenNoCuadradaEsValida2_TestE10CreateTestEv
FNDA:1,_ZN7testing8internal15TestFactoryImplI49esImagenValidaTest_ImagenNoCuadradaEsValida2_TestE10CreateTestEv
FN:466,_ZN7testing8internal15TestFactoryImplI49esImagenValidaTest_ImagenNoCuadradaEsValida3_TestE10CreateTestEv
FNDA:1,_ZN7testing8internal15TestFactoryImplI49esImagenValidaTest_ImagenNoCuadradaEsValida3_TestE10CreateTestEv
FN:466,_ZN7testing8internal15TestFactoryImplI49esImagenValidaTest_ImagenNoCuadradaEsValida4_TestE10CreateTestEv
FNDA:1,_ZN7testing8internal15TestFactoryImplI49esImagenValidaTest_ImagenNoCuadradaEsValida4_TestE10CreateTestEv
FN:466,_ZN7testing8internal15TestFactoryImplI49esImagenValidaTest_ImagenNoCuadradaEsValida5_TestE10CreateTestEv
FNDA:1,_ZN7testing8internal15TestFactoryImplI49esImagenValidaTest_ImagenNoCuadradaEsValida5_TestE10CreateTestEv
FN:466,_ZN7testing8internal15TestFactoryImplI49esImagenValidaTest_ImagenNoCuadradaEsValida6_TestE10CreateTestEv
FNDA:1,_ZN7testing8internal15TestFactoryImplI49esImagenValidaTest_ImagenNoCuadradaEsValida6_TestE10CreateTestEv
FN:487,_ZN7testing8internal12CodeLocationC2ERKNSt7__cxx1112basic_stringIcSt11char_traitsIcESaIcEEEi
FNDA:0,_ZN7testing8internal12CodeLocationC2ERKNSt7__cxx1112basic_stringIcSt11char_traitsIcESaIcEEEi
DA:448,0
DA:448,0
DA:455,0
DA:466,1
DA:466,1
DA:466,1
DA:466,1
DA:466,1
DA:487,0
DA:488,0
end_of_record
SF:/usr/include/c++/9/ext/alloc_traits.h
FN:97,_ZN9__gnu_cxx14__alloc_traitsISaIiEiE17_S_select_on_copyERKS1_
FNDA:0,_ZN9__gnu_cxx14__alloc_traitsISaIiEiE17_S_select_on_copyERKS1_
FN:97,_ZN9__gnu_cxx14__alloc_traitsISaIcEcE17_S_select_on_copyERKS1_
FNDA:0,_ZN9__gnu_cxx14__alloc_traitsISaIcEcE17_S_select_on_copyERKS1_
DA:97,0
DA:98,0
DA:97,0
DA:98,0
end_of_record
SF:/usr/include/c++/9/bits/stl_algobase.h
FN:198,_ZSt3minImERKT_S2_S2_
FNDA:0,_ZSt3minImERKT_S2_S2_
FN:280,_ZSt12__niter_baseIPiET_S1_
FNDA:0,_ZSt12__niter_baseIPiET_S1_
FN:280,_ZSt12__niter_baseIPKiET_S2_
FNDA:0,_ZSt12__niter_baseIPKiET_S2_
FN:295,_ZSt12__niter_wrapIPiET_RKS1_S1_
FNDA:0,_ZSt12__niter_wrapIPiET_RKS1_S1_
FN:375,_ZNSt11__copy_moveILb0ELb1ESt26random_access_iterator_tagE8__copy_mIiEEPT_PKS3_S6_S4_
FNDA:0,_ZNSt11__copy_moveILb0ELb1ESt26random_access_iterator_tagE8__copy_mIiEEPT_PKS3_S6_S4_
FN:393,_ZSt13__copy_move_aILb0EPKiPiET1_T0_S4_S3_
FNDA:0,_ZSt13__copy_move_aILb0EPKiPiET1_T0_S4_S3_
FN:438,_ZSt14__copy_move_a2ILb0EN9__gnu_cxx17__normal_iteratorIPKiSt6vectorIiSaIiEEEEPiET1_T0_SA_S9_
FNDA:0,_ZSt14__copy_move_a2ILb0EN9__gnu_cxx17__normal_iteratorIPKiSt6vectorIiSaIiEEEEPiET1_T0_SA_S9_
FN:438,_ZSt14__copy_move_a2ILb0EPKiPiET1_T0_S4_S3_
FNDA:0,_ZSt14__copy_move_a2ILb0EPKiPiET1_T0_S4_S3_
FN:465,_ZSt4copyIN9__gnu_cxx17__normal_iteratorIPKiSt6vectorIiSaIiEEEEPiET0_T_SA_S9_
FNDA:0,_ZSt4copyIN9__gnu_cxx17__normal_iteratorIPKiSt6vectorIiSaIiEEEEPiET0_T_SA_S9_
FN:465,_ZSt4copyIPKiPiET0_T_S4_S3_
FNDA:0,_ZSt4copyIPKiPiET0_T_S4_S3_
DA:198,0
DA:203,0
DA:204,0
DA:205,0
DA:280,0
DA:282,0
DA:280,0
DA:282,0
DA:295,0
DA:296,0
DA:375,0
DA:384,0
DA:385,0
DA:386,0
DA:387,0
DA:393,0
DA:398,0
DA:404,0
DA:438,0
DA:440,0
DA:443,0
DA:438,0
DA:440,0
DA:443,0
DA:465,0
DA:474,0
DA:465,0
DA:474,0
end_of_record
SF:/usr/include/c++/9/bits/cpp_type_traits.h
FN:428,_ZSt12__miter_baseIN9__gnu_cxx17__normal_iteratorIPKiSt6vectorIiSaIiEEEEET_S8_
FNDA:0,_ZSt12__miter_baseIN9__gnu_cxx17__normal_iteratorIPKiSt6vectorIiSaIiEEEEET_S8_
FN:428,_ZSt12__miter_baseIPKiET_S2_
FNDA:0,_ZSt12__miter_baseIPKiET_S2_
DA:428,0
DA:429,0
DA:428,0
DA:429,0
end_of_record
SF:/usr/include/c++/9/bits/stl_construct.h
FN:74,_ZSt10_ConstructISt6vectorIiSaIiEEJRKS2_EEvPT_DpOT0_
FNDA:0,_ZSt10_ConstructISt6vectorIiSaIiEEJRKS2_EEvPT_DpOT0_
FN:97,_ZSt8_DestroyISt6vectorIiSaIiEEEvPT_
FNDA:0,_ZSt8_DestroyISt6vectorIiSaIiEEEvPT_
FN:105,_ZNSt12_Destroy_auxILb0EE9__destroyIPSt6vectorIiSaIiEEEEvT_S6_
FNDA:0,_ZNSt12_Destroy_auxILb0EE9__destroyIPSt6vectorIiSaIiEEEEvT_S6_
FN:117,_ZNSt12_Destroy_auxILb1EE9__destroyIPiEEvT_S3_
FNDA:0,_ZNSt12_Destroy_auxILb1EE9__destroyIPiEEvT_S3_
FN:127,_ZSt8_DestroyIPSt6vectorIiSaIiEEEvT_S4_
FNDA:0,_ZSt8_DestroyIPSt6vectorIiSaIiEEEvT_S4_
FN:127,_ZSt8_DestroyIPiEvT_S1_
FNDA:0,_ZSt8_DestroyIPiEvT_S1_
FN:203,_ZSt8_DestroyIPSt6vectorIiSaIiEES2_EvT_S4_RSaIT0_E
FNDA:0,_ZSt8_DestroyIPSt6vectorIiSaIiEES2_EvT_S4_RSaIT0_E
FN:203,_ZSt8_DestroyIPiiEvT_S1_RSaIT0_E
FNDA:0,_ZSt8_DestroyIPiiEvT_S1_RSaIT0_E
DA:74,0
DA:75,0
DA:97,0
DA:98,0
DA:105,0
DA:107,0
DA:108,0
DA:109,0
DA:117,0
DA:127,0
DA:137,0
DA:138,0
DA:127,0
DA:137,0
DA:138,0
DA:203,0
DA:206,0
DA:207,0
DA:203,0
DA:206,0
DA:207,0
end_of_record
SF:/usr/include/c++/9/ext/new_allocator.h
FN:80,_ZN9__gnu_cxx13new_allocatorISt6vectorIiSaIiEEEC2Ev
FNDA:0,_ZN9__gnu_cxx13new_allocatorISt6vectorIiSaIiEEEC2Ev
FN:80,_ZN9__gnu_cxx13new_allocatorIiEC2Ev
FNDA:0,_ZN9__gnu_cxx13new_allocatorIiEC2Ev
FN:80,_ZN9__gnu_cxx13new_allocatorIcEC2Ev
FNDA:0,_ZN9__gnu_cxx13new_allocatorIcEC2Ev
FN:83,_ZN9__gnu_cxx13new_allocatorISt6vectorIiSaIiEEEC2ERKS4_
FNDA:0,_ZN9__gnu_cxx13new_allocatorISt6vectorIiSaIiEEEC2ERKS4_
FN:83,_ZN9__gnu_cxx13new_allocatorIiEC2ERKS1_
FNDA:0,_ZN9__gnu_cxx13new_allocatorIiEC2ERKS1_
FN:83,_ZN9__gnu_cxx13new_allocatorIcEC2ERKS1_
FNDA:0,_ZN9__gnu_cxx13new_allocatorIcEC2ERKS1_
FN:89,_ZN9__gnu_cxx13new_allocatorISt6vectorIiSaIiEEED2Ev
FNDA:0,_ZN9__gnu_cxx13new_allocatorISt6vectorIiSaIiEEED2Ev
FN:89,_ZN9__gnu_cxx13new_allocatorIiED2Ev
FNDA:0,_ZN9__gnu_cxx13new_allocatorIiED2Ev
FN:89,_ZN9__gnu_cxx13new_allocatorIcED2Ev
FNDA:0,_ZN9__gnu_cxx13new_allocatorIcED2Ev
FN:102,_ZN9__gnu_cxx13new_allocatorISt6vectorIiSaIiEEE8allocateEmPKv
FNDA:0,_ZN9__gnu_cxx13new_allocatorISt6vectorIiSaIiEEE8allocateEmPKv
FN:102,_ZN9__gnu_cxx13new_allocatorIiE8allocateEmPKv
FNDA:0,_ZN9__gnu_cxx13new_allocatorIiE8allocateEmPKv
FN:119,_ZN9__gnu_cxx13new_allocatorISt6vectorIiSaIiEEE10deallocateEPS3_m
FNDA:0,_ZN9__gnu_cxx13new_allocatorISt6vectorIiSaIiEEE10deallocateEPS3_m
FN:119,_ZN9__gnu_cxx13new_allocatorIiE10deallocateEPim
FNDA:0,_ZN9__gnu_cxx13new_allocatorIiE10deallocateEPim
FN:132,_ZNK9__gnu_cxx13new_allocatorISt6vectorIiSaIiEEE8max_sizeEv
FNDA:0,_ZNK9__gnu_cxx13new_allocatorISt6vectorIiSaIiEEE8max_sizeEv
FN:132,_ZNK9__gnu_cxx13new_allocatorIiE8max_sizeEv
FNDA:0,_ZNK9__gnu_cxx13new_allocatorIiE8max_sizeEv
DA:80,0
DA:80,0
DA:80,0
DA:83,0
DA:83,0
DA:83,0
DA:89,0
DA:89,0
DA:89,0
DA:102,0
DA:104,0
DA:105,0
DA:114,0
DA:102,0
DA:104,0
DA:105,0
DA:114,0
DA:119,0
DA:128,0
DA:129,0
DA:119,0
DA:128,0
DA:129,0
DA:132,0
DA:135,0
DA:132,0
DA:135,0
end_of_record
SF:/usr/include/c++/9/new
FN:173,_ZnwmPv
FNDA:0,_ZnwmPv
FN:179,_ZdlPvS_
FNDA:0,_ZdlPvS_
DA:173,0
DA:174,0
DA:179,0
end_of_record
SF:/usr/include/c++/9/bits/stl_uninitialized.h
FN:76,_ZNSt20__uninitialized_copyILb0EE13__uninit_copyIPKSt6vectorIiSaIiEEPS4_EET0_T_S9_S8_
FNDA:0,_ZNSt20__uninitialized_copyILb0EE13__uninit_copyIPKSt6vectorIiSaIiEEPS4_EET0_T_S9_S8_
FN:99,_ZNSt20__uninitialized_copyILb1EE13__uninit_copyIN9__gnu_cxx17__normal_iteratorIPKiSt6vectorIiSaIiEEEEPiEET0_T_SC_SB_
FNDA:0,_ZNSt20__uninitialized_copyILb1EE13__uninit_copyIN9__gnu_cxx17__normal_iteratorIPKiSt6vectorIiSaIiEEEEPiEET0_T_SC_SB_
FN:99,_ZNSt20__uninitialized_copyILb1EE13__uninit_copyIPKiPiEET0_T_S6_S5_
FNDA:0,_ZNSt20__uninitialized_copyILb1EE13__uninit_copyIPKiPiEET0_T_S6_S5_
FN:115,_ZSt18uninitialized_copyIN9__gnu_cxx17__normal_iteratorIPKiSt6vectorIiSaIiEEEEPiET0_T_SA_S9_
FNDA:0,_ZSt18uninitialized_copyIN9__gnu_cxx17__normal_iteratorIPKiSt6vectorIiSaIiEEEEPiET0_T_SA_S9_
FN:115,_ZSt18uninitialized_copyIPKSt6vectorIiSaIiEEPS2_ET0_T_S7_S6_
FNDA:0,_ZSt18uninitialized_copyIPKSt6vectorIiSaIiEEPS2_ET0_T_S7_S6_
FN:115,_ZSt18uninitialized_copyIPKiPiET0_T_S4_S3_
FNDA:0,_ZSt18uninitialized_copyIPKiPiET0_T_S4_S3_
FN:287,_ZSt22__uninitialized_copy_aIN9__gnu_cxx17__normal_iteratorIPKiSt6vectorIiSaIiEEEEPiiET0_T_SA_S9_RSaIT1_E
FNDA:0,_ZSt22__uninitialized_copy_aIN9__gnu_cxx17__normal_iteratorIPKiSt6vectorIiSaIiEEEEPiiET0_T_SA_S9_RSaIT1_E
FN:287,_ZSt22__uninitialized_copy_aIPKSt6vectorIiSaIiEEPS2_S2_ET0_T_S7_S6_RSaIT1_E
FNDA:0,_ZSt22__uninitialized_copy_aIPKSt6vectorIiSaIiEEPS2_S2_ET0_T_S7_S6_RSaIT1_E
FN:287,_ZSt22__uninitialized_copy_aIPKiPiiET0_T_S4_S3_RSaIT1_E
FNDA:0,_ZSt22__uninitialized_copy_aIPKiPiiET0_T_S4_S3_RSaIT1_E
DA:76,0
DA:79,0
DA:82,0
DA:83,0
DA:84,0
DA:86,0
DA:88,0
DA:89,0
DA:99,0
DA:101,0
DA:99,0
DA:101,0
DA:115,0
DA:128,0
DA:134,0
DA:115,0
DA:128,0
DA:134,0
DA:115,0
DA:128,0
DA:134,0
DA:287,0
DA:289,0
DA:287,0
DA:289,0
DA:287,0
DA:289,0
end_of_record
SF:/usr/include/c++/9/iostream
end_of_record
SF:/home/pato/TPIMorfMat/template-alumnos/lib/googletest-master/googletest/include/gtest/gtest-message.h
end_of_record
SF:/usr/include/c++/9/bits/stl_iterator_base_funcs.h
FN:98,_ZSt10__distanceIPcENSt15iterator_traitsIT_E15difference_typeES2_S2_St26random_access_iterator_tag
FNDA:0,_ZSt10__distanceIPcENSt15iterator_traitsIT_E15difference_typeES2_S2_St26random_access_iterator_tag
FN:98,_ZSt10__distanceIPKcENSt15iterator_traitsIT_E15difference_typeES3_S3_St26random_access_iterator_tag
FNDA:0,_ZSt10__distanceIPKcENSt15iterator_traitsIT_E15difference_typeES3_S3_St26random_access_iterator_tag
FN:98,_ZSt10__distanceIPKSt6vectorIiSaIiEEENSt15iterator_traitsIT_E15difference_typeES6_S6_St26random_access_iterator_tag
FNDA:0,_ZSt10__distanceIPKSt6vectorIiSaIiEEENSt15iterator_traitsIT_E15difference_typeES6_S6_St26random_access_iterator_tag
FN:98,_ZSt10__distanceIPKiENSt15iterator_traitsIT_E15difference_typeES3_S3_St26random_access_iterator_tag
FNDA:0,_ZSt10__distanceIPKiENSt15iterator_traitsIT_E15difference_typeES3_S3_St26random_access_iterator_tag
FN:138,_ZSt8distanceIPcENSt15iterator_traitsIT_E15difference_typeES2_S2_
FNDA:0,_ZSt8distanceIPcENSt15iterator_traitsIT_E15difference_typeES2_S2_
FN:138,_ZSt8distanceIPKcENSt15iterator_traitsIT_E15difference_typeES3_S3_
FNDA:0,_ZSt8distanceIPKcENSt15iterator_traitsIT_E15difference_typeES3_S3_
FN:138,_ZSt8distanceIPKSt6vectorIiSaIiEEENSt15iterator_traitsIT_E15difference_typeES6_S6_
FNDA:0,_ZSt8distanceIPKSt6vectorIiSaIiEEENSt15iterator_traitsIT_E15difference_typeES6_S6_
FN:138,_ZSt8distanceIPKiENSt15iterator_traitsIT_E15difference_typeES3_S3_
FNDA:0,_ZSt8distanceIPKiENSt15iterator_traitsIT_E15difference_typeES3_S3_
DA:98,0
DA:104,0
DA:98,0
DA:104,0
DA:98,0
DA:104,0
DA:98,0
DA:104,0
DA:138,0
DA:141,0
DA:142,0
DA:138,0
DA:141,0
DA:142,0
DA:138,0
DA:141,0
DA:142,0
DA:138,0
DA:141,0
DA:142,0
end_of_record
SF:/usr/include/c++/9/bits/stl_iterator.h
FN:806,_ZN9__gnu_cxx17__normal_iteratorIPKiSt6vectorIiSaIiEEEC2ERKS2_
FNDA:0,_ZN9__gnu_cxx17__normal_iteratorIPKiSt6vectorIiSaIiEEEC2ERKS2_
FN:871,_ZNK9__gnu_cxx17__normal_iteratorIPKiSt6vectorIiSaIiEEE4baseEv
FNDA:0,_ZNK9__gnu_cxx17__normal_iteratorIPKiSt6vectorIiSaIiEEE4baseEv
FN:1010,_ZSt12__niter_baseIPKiSt6vectorIiSaIiEEET_N9__gnu_cxx17__normal_iteratorIS5_T0_EE
FNDA:0,_ZSt12__niter_baseIPKiSt6vectorIiSaIiEEET_N9__gnu_cxx17__normal_iteratorIS5_T0_EE
DA:806,0
DA:807,0
DA:871,0
DA:872,0
DA:1010,0
DA:1012,0
end_of_record
SF:/usr/include/c++/9/bits/alloc_traits.h
FN:443,_ZNSt16allocator_traitsISaISt6vectorIiSaIiEEEE8allocateERS3_m
FNDA:0,_ZNSt16allocator_traitsISaISt6vectorIiSaIiEEEE8allocateERS3_m
FN:443,_ZNSt16allocator_traitsISaIiEE8allocateERS0_m
FNDA:0,_ZNSt16allocator_traitsISaIiEE8allocateERS0_m
FN:469,_ZNSt16allocator_traitsISaISt6vectorIiSaIiEEEE10deallocateERS3_PS2_m
FNDA:0,_ZNSt16allocator_traitsISaISt6vectorIiSaIiEEEE10deallocateERS3_PS2_m
FN:469,_ZNSt16allocator_traitsISaIiEE10deallocateERS0_Pim
FNDA:0,_ZNSt16allocator_traitsISaIiEE10deallocateERS0_Pim
FN:505,_ZNSt16allocator_traitsISaISt6vectorIiSaIiEEEE8max_sizeERKS3_
FNDA:0,_ZNSt16allocator_traitsISaISt6vectorIiSaIiEEEE8max_sizeERKS3_
FN:505,_ZNSt16allocator_traitsISaIiEE8max_sizeERKS0_
FNDA:0,_ZNSt16allocator_traitsISaIiEE8max_sizeERKS0_
FN:514,_ZNSt16allocator_traitsISaIiEE37select_on_container_copy_constructionERKS0_
FNDA:0,_ZNSt16allocator_traitsISaIiEE37select_on_container_copy_constructionERKS0_
FN:514,_ZNSt16allocator_traitsISaIcEE37select_on_container_copy_constructionERKS0_
FNDA:0,_ZNSt16allocator_traitsISaIcEE37select_on_container_copy_constructionERKS0_
DA:443,0
DA:444,0
DA:443,0
DA:444,0
DA:469,0
DA:470,0
DA:469,0
DA:470,0
DA:505,0
DA:506,0
DA:505,0
DA:506,0
DA:514,0
DA:515,0
DA:514,0
DA:515,0
end_of_record
SF:/usr/include/c++/9/bits/allocator.h
FN:138,_ZNSaISt6vectorIiSaIiEEEC2Ev
FNDA:0,_ZNSaISt6vectorIiSaIiEEEC2Ev
FN:138,_ZNSaIiEC2Ev
FNDA:0,_ZNSaIiEC2Ev
FN:141,_ZNSaISt6vectorIiSaIiEEEC2ERKS2_
FNDA:0,_ZNSaISt6vectorIiSaIiEEEC2ERKS2_
FN:141,_ZNSaIiEC2ERKS_
FNDA:0,_ZNSaIiEC2ERKS_
FN:153,_ZNSaISt6vectorIiSaIiEEED2Ev
FNDA:0,_ZNSaISt6vectorIiSaIiEEED2Ev
FN:153,_ZNSaIiED2Ev
FNDA:0,_ZNSaIiED2Ev
DA:138,0
DA:138,0
DA:141,0
DA:142,0
DA:141,0
DA:142,0
DA:153,0
DA:153,0
end_of_record
SF:/usr/include/c++/9/ext/type_traits.h
FN:152,_ZN9__gnu_cxx17__is_null_pointerIcEEbPT_
FNDA:0,_ZN9__gnu_cxx17__is_null_pointerIcEEbPT_
FN:152,_ZN9__gnu_cxx17__is_null_pointerIKcEEbPT_
FNDA:0,_ZN9__gnu_cxx17__is_null_pointerIKcEEbPT_
DA:152,0
DA:153,0
DA:152,0
DA:153,0
end_of_record
SF:/home/pato/TPIMorfMat/template-alumnos/lib/googletest-master/googletest/include/gtest/internal/gtest-port.h
FN:1184,_ZN7testing8internal10scoped_ptrINSt7__cxx1112basic_stringIcSt11char_traitsIcESaIcEEEEC2EPS7_
FNDA:0,_ZN7testing8internal10scoped_ptrINSt7__cxx1112basic_stringIcSt11char_traitsIcESaIcEEEEC2EPS7_
FN:1185,_ZN7testing8internal10scoped_ptrINSt7__cxx1112basic_stringIcSt11char_traitsIcESaIcEEEED2Ev
FNDA:0,_ZN7testing8internal10scoped_ptrINSt7__cxx1112basic_stringIcSt11char_traitsIcESaIcEEEED2Ev
FN:1185,_ZN7testing8internal10scoped_ptrINSt7__cxx1118basic_stringstreamIcSt11char_traitsIcESaIcEEEED2Ev
FNDA:0,_ZN7testing8internal10scoped_ptrINSt7__cxx1118basic_stringstreamIcSt11char_traitsIcESaIcEEEED2Ev
FN:1197,_ZN7testing8internal10scoped_ptrINSt7__cxx1118basic_stringstreamIcSt11char_traitsIcESaIcEEEE5resetEPS7_
FNDA:0,_ZN7testing8internal10scoped_ptrINSt7__cxx1118basic_stringstreamIcSt11char_traitsIcESaIcEEEE5resetEPS7_
FN:1197,_ZN7testing8internal10scoped_ptrINSt7__cxx1112basic_stringIcSt11char_traitsIcESaIcEEEE5resetEPS7_
FNDA:0,_ZN7testing8internal10scoped_ptrINSt7__cxx1112basic_stringIcSt11char_traitsIcESaIcEEEE5resetEPS7_
DA:1184,0
DA:1185,0
DA:1185,0
DA:1197,0
DA:1198,0
DA:1199,0
DA:1200,0
DA:1202,0
DA:1204,0
DA:1197,0
DA:1198,0
DA:1199,0
DA:1200,0
DA:1202,0
DA:1204,0
end_of_record
SF:/usr/include/c++/9/bits/stl_vector.h
FN:94,_ZNSt12_Vector_baseIiSaIiEE17_Vector_impl_dataC2Ev
FNDA:0,_ZNSt12_Vector_baseIiSaIiEE17_Vector_impl_dataC2Ev
FN:94,_ZNSt12_Vector_baseISt6vectorIiSaIiEESaIS2_EE17_Vector_impl_dataC2Ev
FNDA:0,_ZNSt12_Vector_baseISt6vectorIiSaIiEESaIS2_EE17_Vector_impl_dataC2Ev
FN:128,_ZNSt12_Vector_baseIiSaIiEE12_Vector_implC2Ev
FNDA:0,_ZNSt12_Vector_baseIiSaIiEE12_Vector_implC2Ev
FN:133,_ZNSt12_Vector_baseIiSaIiEE12_Vector_implC2ERKS0_
FNDA:0,_ZNSt12_Vector_baseIiSaIiEE12_Vector_implC2ERKS0_
FN:133,_ZNSt12_Vector_baseISt6vectorIiSaIiEESaIS2_EE12_Vector_implC2ERKS3_
FNDA:0,_ZNSt12_Vector_baseISt6vectorIiSaIiEESaIS2_EE12_Vector_implC2ERKS3_
FN:273,_ZNSt12_Vector_baseIiSaIiEE19_M_get_Tp_allocatorEv
FNDA:0,_ZNSt12_Vector_baseIiSaIiEE19_M_get_Tp_allocatorEv
FN:273,_ZNSt12_Vector_baseISt6vectorIiSaIiEESaIS2_EE19_M_get_Tp_allocatorEv
FNDA:0,_ZNSt12_Vector_baseISt6vectorIiSaIiEESaIS2_EE19_M_get_Tp_allocatorEv
FN:277,_ZNKSt12_Vector_baseIiSaIiEE19_M_get_Tp_allocatorEv
FNDA:0,_ZNKSt12_Vector_baseIiSaIiEE19_M_get_Tp_allocatorEv
FN:285,_ZNSt12_Vector_baseIiSaIiEEC2Ev
FNDA:0,_ZNSt12_Vector_baseIiSaIiEEC2Ev
FN:290,_ZNSt12_Vector_baseIiSaIiEEC2ERKS0_
FNDA:0,_ZNSt12_Vector_baseIiSaIiEEC2ERKS0_
FN:290,_ZNSt12_Vector_baseISt6vectorIiSaIiEESaIS2_EEC2ERKS3_
FNDA:0,_ZNSt12_Vector_baseISt6vectorIiSaIiEESaIS2_EEC2ERKS3_
FN:300,_ZNSt12_Vector_baseIiSaIiEEC2EmRKS0_
FNDA:0,_ZNSt12_Vector_baseIiSaIiEEC2EmRKS0_
FN:330,_ZNSt12_Vector_baseIiSaIiEED2Ev
FNDA:0,_ZNSt12_Vector_baseIiSaIiEED2Ev
FN:330,_ZNSt12_Vector_baseISt6vectorIiSaIiEESaIS2_EED2Ev
FNDA:0,_ZNSt12_Vector_baseISt6vectorIiSaIiEESaIS2_EED2Ev
FN:340,_ZNSt12_Vector_baseISt6vectorIiSaIiEESaIS2_EE11_M_allocateEm
FNDA:0,_ZNSt12_Vector_baseISt6vectorIiSaIiEESaIS2_EE11_M_allocateEm
FN:340,_ZNSt12_Vector_baseIiSaIiEE11_M_allocateEm
FNDA:0,_ZNSt12_Vector_baseIiSaIiEE11_M_allocateEm
FN:347,_ZNSt12_Vector_baseIiSaIiEE13_M_deallocateEPim
FNDA:0,_ZNSt12_Vector_baseIiSaIiEE13_M_deallocateEPim
FN:347,_ZNSt12_Vector_baseISt6vectorIiSaIiEESaIS2_EE13_M_deallocateEPS2_m
FNDA:0,_ZNSt12_Vector_baseISt6vectorIiSaIiEESaIS2_EE13_M_deallocateEPS2_m
FN:356,_ZNSt12_Vector_baseIiSaIiEE17_M_create_storageEm
FNDA:0,_ZNSt12_Vector_baseIiSaIiEE17_M_create_storageEm
FN:484,_ZNSt6vectorIiSaIiEEC2Ev
FNDA:0,_ZNSt6vectorIiSaIiEEC2Ev
FN:550,_ZNSt6vectorIiSaIiEEC2ERKS1_
FNDA:0,_ZNSt6vectorIiSaIiEEC2ERKS1_
FN:622,_ZNSt6vectorIiSaIiEEC2ESt16initializer_listIiERKS0_
FNDA:0,_ZNSt6vectorIiSaIiEEC2ESt16initializer_listIiERKS0_
FN:622,_ZNSt6vectorIS_IiSaIiEESaIS1_EEC2ESt16initializer_listIS1_ERKS2_
FNDA:0,_ZNSt6vectorIS_IiSaIiEESaIS1_EEC2ESt16initializer_listIS1_ERKS2_
FN:675,_ZNSt6vectorIiSaIiEED2Ev
FNDA:0,_ZNSt6vectorIiSaIiEED2Ev
FN:675,_ZNSt6vectorIS_IiSaIiEESaIS1_EED2Ev
FNDA:0,_ZNSt6vectorIS_IiSaIiEESaIS1_EED2Ev
FN:817,_ZNKSt6vectorIiSaIiEE5beginEv
FNDA:0,_ZNKSt6vectorIiSaIiEE5beginEv
FN:835,_ZNKSt6vectorIiSaIiEE3endEv
FNDA:0,_ZNKSt6vectorIiSaIiEE3endEv
FN:915,_ZNKSt6vectorIiSaIiEE4sizeEv
FNDA:0,_ZNKSt6vectorIiSaIiEE4sizeEv
FN:1574,_ZNSt6vectorIiSaIiEE19_M_range_initializeIPKiEEvT_S5_St20forward_iterator_tag
FNDA:0,_ZNSt6vectorIiSaIiEE19_M_range_initializeIPKiEEvT_S5_St20forward_iterator_tag
FN:1574,_ZNSt6vectorIS_IiSaIiEESaIS1_EE19_M_range_initializeIPKS1_EEvT_S7_St20forward_iterator_tag
FNDA:0,_ZNSt6vectorIS_IiSaIiEESaIS1_EE19_M_range_initializeIPKS1_EEvT_S7_St20forward_iterator_tag
FN:1764,_ZNSt6vectorIS_IiSaIiEESaIS1_EE17_S_check_init_lenEmRKS2_
FNDA:0,_ZNSt6vectorIS_IiSaIiEESaIS1_EE17_S_check_init_lenEmRKS2_
FN:1764,_ZNSt6vectorIiSaIiEE17_S_check_init_lenEmRKS0_
FNDA:0,_ZNSt6vectorIiSaIiEE17_S_check_init_lenEmRKS0_
FN:1773,_ZNSt6vectorIS_IiSaIiEESaIS1_EE11_S_max_sizeERKS2_
FNDA:0,_ZNSt6vectorIS_IiSaIiEESaIS1_EE11_S_max_sizeERKS2_
FN:1773,_ZNSt6vectorIiSaIiEE11_S_max_sizeERKS0_
FNDA:0,_ZNSt6vectorIiSaIiEE11_S_max_sizeERKS0_
DA:94,0
DA:95,0
DA:96,0
DA:94,0
DA:95,0
DA:96,0
DA:128,0
DA:130,0
DA:131,0
DA:133,0
DA:134,0
DA:135,0
DA:133,0
DA:134,0
DA:135,0
DA:273,0
DA:274,0
DA:273,0
DA:274,0
DA:277,0
DA:278,0
DA:285,0
DA:290,0
DA:291,0
DA:290,0
DA:291,0
DA:300,0
DA:301,0
DA:302,0
DA:330,0
DA:332,0
DA:333,0
DA:334,0
DA:330,0
DA:332,0
DA:333,0
DA:334,0
DA:340,0
DA:343,0
DA:340,0
DA:343,0
DA:347,0
DA:350,0
DA:351,0
DA:352,0
DA:347,0
DA:350,0
DA:351,0
DA:352,0
DA:356,0
DA:358,0
DA:359,0
DA:360,0
DA:361,0
DA:484,0
DA:550,0
DA:552,0
DA:554,0
DA:555,0
DA:557,0
DA:558,0
DA:622,0
DA:624,0
DA:626,0
DA:628,0
DA:622,0
DA:624,0
DA:626,0
DA:628,0
DA:675,0
DA:677,0
DA:678,0
DA:680,0
DA:675,0
DA:677,0
DA:678,0
DA:680,0
DA:817,0
DA:818,0
DA:835,0
DA:836,0
DA:915,0
DA:916,0
DA:1574,0
DA:1577,0
DA:1578,0
DA:1579,0
DA:1580,0
DA:1581,0
DA:1582,0
DA:1584,0
DA:1585,0
DA:1574,0
DA:1577,0
DA:1578,0
DA:1579,0
DA:1580,0
DA:1581,0
DA:1582,0
DA:1584,0
DA:1585,0
DA:1764,0
DA:1766,0
DA:1767,0
DA:1769,0
DA:1764,0
DA:1766,0
DA:1767,0
DA:1769,0
DA:1773,0
DA:1778,0
DA:1780,0
DA:1781,0
DA:1773,0
DA:1778,0
DA:1780,0
DA:1781,0
end_of_record
SF:/usr/include/c++/9/bits/basic_string.tcc
FN:206,_ZNSt7__cxx1112basic_stringIcSt11char_traitsIcESaIcEE12_M_constructIPcEEvT_S7_St20forward_iterator_tag
FNDA:0,_ZNSt7__cxx1112basic_stringIcSt11char_traitsIcESaIcEE12_M_constructIPcEEvT_S7_St20forward_iterator_tag
FN:206,_ZNSt7__cxx1112basic_stringIcSt11char_traitsIcESaIcEE12_M_constructIPKcEEvT_S8_St20forward_iterator_tag
FNDA:0,_ZNSt7__cxx1112basic_stringIcSt11char_traitsIcESaIcEE12_M_constructIPKcEEvT_S8_St20forward_iterator_tag
DA:206,0
DA:211,0
DA:212,0
DA:215,0
DA:217,0
DA:219,0
DA:220,0
DA:225,0
DA:226,0
DA:228,0
DA:229,0
DA:232,0
DA:233,0
DA:206,0
DA:211,0
DA:212,0
DA:215,0
DA:217,0
DA:219,0
DA:220,0
DA:225,0
DA:226,0
DA:228,0
DA:229,0
DA:232,0
DA:233,0
end_of_record
SF:/home/pato/TPIMorfMat/template-alumnos/tests/ej1TESTNUESTROS.cpp
FN:4,_ZN49esImagenValidaTest_ImagenNoCuadradaEsValida2_Test8TestBodyEv
FNDA:1,_ZN49esImagenValidaTest_ImagenNoCuadradaEsValida2_Test8TestBodyEv
FN:4,_ZN49esImagenValidaTest_ImagenNoCuadradaEsValida2_TestC2Ev
FNDA:1,_ZN49esImagenValidaTest_ImagenNoCuadradaEsValida2_TestC2Ev
FN:16,_ZN49esImagenValidaTest_ImagenNoCuadradaEsValida3_Test8TestBodyEv
FNDA:1,_ZN49esImagenValidaTest_ImagenNoCuadradaEsValida3_Test8TestBodyEv
FN:16,_ZN49esImagenValidaTest_ImagenNoCuadradaEsValida3_TestC2Ev
FNDA:1,_ZN49esImagenValidaTest_ImagenNoCuadradaEsValida3_TestC2Ev
FN:28,_ZN49esImagenValidaTest_ImagenNoCuadradaEsValida4_Test8TestBodyEv
FNDA:1,_ZN49esImagenValidaTest_ImagenNoCuadradaEsValida4_Test8TestBodyEv
FN:28,_ZN49esImagenValidaTest_ImagenNoCuadradaEsValida4_TestC2Ev
FNDA:1,_ZN49esImagenValidaTest_ImagenNoCuadradaEsValida4_TestC2Ev
FN:40,_ZN49esImagenValidaTest_ImagenNoCuadradaEsValida5_Test8TestBodyEv
FNDA:1,_ZN49esImagenValidaTest_ImagenNoCuadradaEsValida5_Test8TestBodyEv
FN:40,_ZN49esImagenValidaTest_ImagenNoCuadradaEsValida5_TestC2Ev
FNDA:1,_ZN49esImagenValidaTest_ImagenNoCuadradaEsValida5_TestC2Ev
FN:52,_ZN49esImagenValidaTest_ImagenNoCuadradaEsValida6_Test8TestBodyEv
FNDA:1,_ZN49esImagenValidaTest_ImagenNoCuadradaEsValida6_Test8TestBodyEv
FN:52,_ZN49esImagenValidaTest_ImagenNoCuadradaEsValida6_TestC2Ev
FNDA:1,_ZN49esImagenValidaTest_ImagenNoCuadradaEsValida6_TestC2Ev
DA:4,1
DA:12,10
DA:13,1
DA:14,1
DA:4,1
DA:16,1
DA:24,10
DA:25,1
DA:26,1
DA:16,1
DA:28,1
DA:36,10
DA:37,1
DA:38,1
DA:28,1
DA:40,1
DA:48,10
DA:49,1
DA:50,1
DA:40,1
DA:52,1
DA:60,10
DA:61,1
DA:62,1
DA:52,1
end_of_record
TN:
SF:/usr/include/c++/9/bits/stl_construct.h
FN:74,_ZSt10_ConstructISt6vectorIiSaIiEEJRKS2_EEvPT_DpOT0_
FNDA:0,_ZSt10_ConstructISt6vectorIiSaIiEEJRKS2_EEvPT_DpOT0_
FN:97,_ZSt8_DestroyISt6vectorIiSaIiEEEvPT_
FNDA:0,_ZSt8_DestroyISt6vectorIiSaIiEEEvPT_
FN:105,_ZNSt12_Destroy_auxILb0EE9__destroyIPSt6vectorIiSaIiEEEEvT_S6_
FNDA:0,_ZNSt12_Destroy_auxILb0EE9__destroyIPSt6vectorIiSaIiEEEEvT_S6_
FN:117,_ZNSt12_Destroy_auxILb1EE9__destroyIPiEEvT_S3_
FNDA:0,_ZNSt12_Destroy_auxILb1EE9__destroyIPiEEvT_S3_
FN:127,_ZSt8_DestroyIPSt6vectorIiSaIiEEEvT_S4_
FNDA:0,_ZSt8_DestroyIPSt6vectorIiSaIiEEEvT_S4_
FN:127,_ZSt8_DestroyIPiEvT_S1_
FNDA:0,_ZSt8_DestroyIPiEvT_S1_
FN:203,_ZSt8_DestroyIPSt6vectorIiSaIiEES2_EvT_S4_RSaIT0_E
FNDA:0,_ZSt8_DestroyIPSt6vectorIiSaIiEES2_EvT_S4_RSaIT0_E
FN:203,_ZSt8_DestroyIPiiEvT_S1_RSaIT0_E
FNDA:0,_ZSt8_DestroyIPiiEvT_S1_RSaIT0_E
DA:74,0
DA:75,0
DA:97,0
DA:98,0
DA:105,0
DA:107,0
DA:108,0
DA:109,0
DA:117,0
DA:127,0
DA:137,0
DA:138,0
DA:127,0
DA:137,0
DA:138,0
DA:203,0
DA:206,0
DA:207,0
DA:203,0
DA:206,0
DA:207,0
end_of_record
SF:/usr/include/c++/9/ext/new_allocator.h
FN:80,_ZN9__gnu_cxx13new_allocatorISt6vectorIiSaIiEEEC2Ev
FNDA:0,_ZN9__gnu_cxx13new_allocatorISt6vectorIiSaIiEEEC2Ev
FN:80,_ZN9__gnu_cxx13new_allocatorIiEC2Ev
FNDA:0,_ZN9__gnu_cxx13new_allocatorIiEC2Ev
FN:80,_ZN9__gnu_cxx13new_allocatorIcEC2Ev
FNDA:0,_ZN9__gnu_cxx13new_allocatorIcEC2Ev
FN:83,_ZN9__gnu_cxx13new_allocatorISt6vectorIiSaIiEEEC2ERKS4_
FNDA:0,_ZN9__gnu_cxx13new_allocatorISt6vectorIiSaIiEEEC2ERKS4_
FN:83,_ZN9__gnu_cxx13new_allocatorIiEC2ERKS1_
FNDA:0,_ZN9__gnu_cxx13new_allocatorIiEC2ERKS1_
FN:83,_ZN9__gnu_cxx13new_allocatorIcEC2ERKS1_
FNDA:0,_ZN9__gnu_cxx13new_allocatorIcEC2ERKS1_
FN:89,_ZN9__gnu_cxx13new_allocatorISt6vectorIiSaIiEEED2Ev
FNDA:0,_ZN9__gnu_cxx13new_allocatorISt6vectorIiSaIiEEED2Ev
FN:89,_ZN9__gnu_cxx13new_allocatorIiED2Ev
FNDA:0,_ZN9__gnu_cxx13new_allocatorIiED2Ev
FN:89,_ZN9__gnu_cxx13new_allocatorIcED2Ev
FNDA:0,_ZN9__gnu_cxx13new_allocatorIcED2Ev
FN:102,_ZN9__gnu_cxx13new_allocatorISt6vectorIiSaIiEEE8allocateEmPKv
FNDA:0,_ZN9__gnu_cxx13new_allocatorISt6vectorIiSaIiEEE8allocateEmPKv
FN:102,_ZN9__gnu_cxx13new_allocatorIiE8allocateEmPKv
FNDA:0,_ZN9__gnu_cxx13new_allocatorIiE8allocateEmPKv
FN:119,_ZN9__gnu_cxx13new_allocatorISt6vectorIiSaIiEEE10deallocateEPS3_m
FNDA:0,_ZN9__gnu_cxx13new_allocatorISt6vectorIiSaIiEEE10deallocateEPS3_m
FN:119,_ZN9__gnu_cxx13new_allocatorIiE10deallocateEPim
FNDA:0,_ZN9__gnu_cxx13new_allocatorIiE10deallocateEPim
FN:132,_ZNK9__gnu_cxx13new_allocatorISt6vectorIiSaIiEEE8max_sizeEv
FNDA:0,_ZNK9__gnu_cxx13new_allocatorISt6vectorIiSaIiEEE8max_sizeEv
FN:132,_ZNK9__gnu_cxx13new_allocatorIiE8max_sizeEv
FNDA:0,_ZNK9__gnu_cxx13new_allocatorIiE8max_sizeEv
DA:80,0
DA:80,0
DA:80,0
DA:83,0
DA:83,0
DA:83,0
DA:89,0
DA:89,0
DA:89,0
DA:102,0
DA:104,0
DA:105,0
DA:114,0
DA:102,0
DA:104,0
DA:105,0
DA:114,0
DA:119,0
DA:128,0
DA:129,0
DA:119,0
DA:128,0
DA:129,0
DA:132,0
DA:135,0
DA:132,0
DA:135,0
end_of_record
SF:/usr/include/c++/9/bits/stl_algobase.h
FN:198,_ZSt3minImERKT_S2_S2_
FNDA:0,_ZSt3minImERKT_S2_S2_
FN:280,_ZSt12__niter_baseIPiET_S1_
FNDA:0,_ZSt12__niter_baseIPiET_S1_
FN:280,_ZSt12__niter_baseIPKiET_S2_
FNDA:0,_ZSt12__niter_baseIPKiET_S2_
FN:295,_ZSt12__niter_wrapIPiET_RKS1_S1_
FNDA:0,_ZSt12__niter_wrapIPiET_RKS1_S1_
FN:375,_ZNSt11__copy_moveILb0ELb1ESt26random_access_iterator_tagE8__copy_mIiEEPT_PKS3_S6_S4_
FNDA:0,_ZNSt11__copy_moveILb0ELb1ESt26random_access_iterator_tagE8__copy_mIiEEPT_PKS3_S6_S4_
FN:393,_ZSt13__copy_move_aILb0EPKiPiET1_T0_S4_S3_
FNDA:0,_ZSt13__copy_move_aILb0EPKiPiET1_T0_S4_S3_
FN:438,_ZSt14__copy_move_a2ILb0EN9__gnu_cxx17__normal_iteratorIPKiSt6vectorIiSaIiEEEEPiET1_T0_SA_S9_
FNDA:0,_ZSt14__copy_move_a2ILb0EN9__gnu_cxx17__normal_iteratorIPKiSt6vectorIiSaIiEEEEPiET1_T0_SA_S9_
FN:438,_ZSt14__copy_move_a2ILb0EPKiPiET1_T0_S4_S3_
FNDA:0,_ZSt14__copy_move_a2ILb0EPKiPiET1_T0_S4_S3_
FN:465,_ZSt4copyIN9__gnu_cxx17__normal_iteratorIPKiSt6vectorIiSaIiEEEEPiET0_T_SA_S9_
FNDA:0,_ZSt4copyIN9__gnu_cxx17__normal_iteratorIPKiSt6vectorIiSaIiEEEEPiET0_T_SA_S9_
FN:465,_ZSt4copyIPKiPiET0_T_S4_S3_
FNDA:0,_ZSt4copyIPKiPiET0_T_S4_S3_
FN:817,_ZNSt7__equalILb0EE5equalIPKSt6vectorIiSaIiEES6_EEbT_S7_T0_
FNDA:0,_ZNSt7__equalILb0EE5equalIPKSt6vectorIiSaIiEES6_EEbT_S7_T0_
FN:831,_ZNSt7__equalILb1EE5equalIiEEbPKT_S4_S4_
FNDA:0,_ZNSt7__equalILb1EE5equalIiEEbPKT_S4_S4_
FN:841,_ZSt11__equal_auxIPKiS1_EbT_S2_T0_
FNDA:0,_ZSt11__equal_auxIPKiS1_EbT_S2_T0_
FN:841,_ZSt11__equal_auxIPKSt6vectorIiSaIiEES4_EbT_S5_T0_
FNDA:0,_ZSt11__equal_auxIPKSt6vectorIiSaIiEES4_EbT_S5_T0_
FN:1059,_ZSt5equalIN9__gnu_cxx17__normal_iteratorIPKiSt6vectorIiSaIiEEEES7_EbT_S8_T0_
FNDA:0,_ZSt5equalIN9__gnu_cxx17__normal_iteratorIPKiSt6vectorIiSaIiEEEES7_EbT_S8_T0_
FN:1059,_ZSt5equalIN9__gnu_cxx17__normal_iteratorIPKSt6vectorIiSaIiEES2_IS4_SaIS4_EEEES9_EbT_SA_T0_
FNDA:0,_ZSt5equalIN9__gnu_cxx17__normal_iteratorIPKSt6vectorIiSaIiEES2_IS4_SaIS4_EEEES9_EbT_SA_T0_
DA:198,0
DA:203,0
DA:204,0
DA:205,0
DA:280,0
DA:282,0
DA:280,0
DA:282,0
DA:295,0
DA:296,0
DA:375,0
DA:384,0
DA:385,0
DA:386,0
DA:387,0
DA:393,0
DA:398,0
DA:404,0
DA:438,0
DA:440,0
DA:443,0
DA:438,0
DA:440,0
DA:443,0
DA:465,0
DA:474,0
DA:465,0
DA:474,0
DA:817,0
DA:819,0
DA:820,0
DA:821,0
DA:822,0
DA:831,0
DA:833,0
DA:834,0
DA:835,0
DA:841,0
DA:845,0
DA:851,0
DA:841,0
DA:845,0
DA:851,0
DA:1059,0
DA:1069,0
DA:1071,0
DA:1059,0
DA:1069,0
DA:1071,0
end_of_record
SF:/usr/include/c++/9/bits/cpp_type_traits.h
FN:428,_ZSt12__miter_baseIN9__gnu_cxx17__normal_iteratorIPKiSt6vectorIiSaIiEEEEET_S8_
FNDA:0,_ZSt12__miter_baseIN9__gnu_cxx17__normal_iteratorIPKiSt6vectorIiSaIiEEEEET_S8_
FN:428,_ZSt12__miter_baseIPKiET_S2_
FNDA:0,_ZSt12__miter_baseIPKiET_S2_
DA:428,0
DA:429,0
DA:428,0
DA:429,0
end_of_record
SF:/usr/include/c++/9/bits/stl_uninitialized.h
FN:76,_ZNSt20__uninitialized_copyILb0EE13__uninit_copyIPKSt6vectorIiSaIiEEPS4_EET0_T_S9_S8_
FNDA:0,_ZNSt20__uninitialized_copyILb0EE13__uninit_copyIPKSt6vectorIiSaIiEEPS4_EET0_T_S9_S8_
FN:99,_ZNSt20__uninitialized_copyILb1EE13__uninit_copyIN9__gnu_cxx17__normal_iteratorIPKiSt6vectorIiSaIiEEEEPiEET0_T_SC_SB_
FNDA:0,_ZNSt20__uninitialized_copyILb1EE13__uninit_copyIN9__gnu_cxx17__normal_iteratorIPKiSt6vectorIiSaIiEEEEPiEET0_T_SC_SB_
FN:99,_ZNSt20__uninitialized_copyILb1EE13__uninit_copyIPKiPiEET0_T_S6_S5_
FNDA:0,_ZNSt20__uninitialized_copyILb1EE13__uninit_copyIPKiPiEET0_T_S6_S5_
FN:115,_ZSt18uninitialized_copyIN9__gnu_cxx17__normal_iteratorIPKiSt6vectorIiSaIiEEEEPiET0_T_SA_S9_
FNDA:0,_ZSt18uninitialized_copyIN9__gnu_cxx17__normal_iteratorIPKiSt6vectorIiSaIiEEEEPiET0_T_SA_S9_
FN:115,_ZSt18uninitialized_copyIPKSt6vectorIiSaIiEEPS2_ET0_T_S7_S6_
FNDA:0,_ZSt18uninitialized_copyIPKSt6vectorIiSaIiEEPS2_ET0_T_S7_S6_
FN:115,_ZSt18uninitialized_copyIPKiPiET0_T_S4_S3_
FNDA:0,_ZSt18uninitialized_copyIPKiPiET0_T_S4_S3_
FN:287,_ZSt22__uninitialized_copy_aIN9__gnu_cxx17__normal_iteratorIPKiSt6vectorIiSaIiEEEEPiiET0_T_SA_S9_RSaIT1_E
FNDA:0,_ZSt22__uninitialized_copy_aIN9__gnu_cxx17__normal_iteratorIPKiSt6vectorIiSaIiEEEEPiiET0_T_SA_S9_RSaIT1_E
FN:287,_ZSt22__uninitialized_copy_aIPKSt6vectorIiSaIiEEPS2_S2_ET0_T_S7_S6_RSaIT1_E
FNDA:0,_ZSt22__uninitialized_copy_aIPKSt6vectorIiSaIiEEPS2_S2_ET0_T_S7_S6_RSaIT1_E
FN:287,_ZSt22__uninitialized_copy_aIPKiPiiET0_T_S4_S3_RSaIT1_E
FNDA:0,_ZSt22__uninitialized_copy_aIPKiPiiET0_T_S4_S3_RSaIT1_E
DA:76,0
DA:79,0
DA:82,0
DA:83,0
DA:84,0
DA:86,0
DA:88,0
DA:89,0
DA:99,0
DA:101,0
DA:99,0
DA:101,0
DA:115,0
DA:128,0
DA:134,0
DA:115,0
DA:128,0
DA:134,0
DA:115,0
DA:128,0
DA:134,0
DA:287,0
DA:289,0
DA:287,0
DA:289,0
DA:287,0
DA:289,0
end_of_record
SF:/usr/include/c++/9/new
FN:173,_ZnwmPv
FNDA:0,_ZnwmPv
FN:179,_ZdlPvS_
FNDA:0,_ZdlPvS_
DA:173,0
DA:174,0
DA:179,0
end_of_record
SF:/usr/include/c++/9/iostream
end_of_record
SF:/home/pato/TPIMorfMat/template-alumnos/lib/googletest-master/googletest/include/gtest/gtest.h
FN:304,_ZNK7testing15AssertionResultcvbEv
FNDA:0,_ZNK7testing15AssertionResultcvbEv
FN:313,_ZNK7testing15AssertionResult7messageEv
FNDA:0,_ZNK7testing15AssertionResult7messageEv
FN:318,_ZNK7testing15AssertionResult15failure_messageEv
FNDA:0,_ZNK7testing15AssertionResult15failure_messageEv
FN:414,_ZN7testing4Test13SetUpTestCaseEv
FNDA:0,_ZN7testing4Test13SetUpTestCaseEv
FN:422,_ZN7testing4Test16TearDownTestCaseEv
FNDA:0,_ZN7testing4Test16TearDownTestCaseEv
FN:499,_ZN7testing4Test5SetupEv
FNDA:0,_ZN7testing4Test5SetupEv
FN:1414,_ZN7testing8internal18CmpHelperEQFailureIiiEENS_15AssertionResultEPKcS4_RKT_RKT0_
FNDA:0,_ZN7testing8internal18CmpHelperEQFailureIiiEENS_15AssertionResultEPKcS4_RKT_RKT0_
FN:1414,_ZN7testing8internal18CmpHelperEQFailureISt6vectorIS2_IiSaIiEESaIS4_EES6_EENS_15AssertionResultEPKcS9_RKT_RKT0_
FNDA:0,_ZN7testing8internal18CmpHelperEQFailureISt6vectorIS2_IiSaIiEESaIS4_EES6_EENS_15AssertionResultEPKcS9_RKT_RKT0_
FN:1426,_ZN7testing8internal11CmpHelperEQIiiEENS_15AssertionResultEPKcS4_RKT_RKT0_
FNDA:2,_ZN7testing8internal11CmpHelperEQIiiEENS_15AssertionResultEPKcS4_RKT_RKT0_
FN:1426,_ZN7testing8internal11CmpHelperEQISt6vectorIS2_IiSaIiEESaIS4_EES6_EENS_15AssertionResultEPKcS9_RKT_RKT0_
FNDA:0,_ZN7testing8internal11CmpHelperEQISt6vectorIS2_IiSaIiEESaIS4_EES6_EENS_15AssertionResultEPKcS9_RKT_RKT0_
FN:1454,_ZN7testing8internal8EqHelperILb0EE7CompareIiiEENS_15AssertionResultEPKcS6_RKT_RKT0_
FNDA:2,_ZN7testing8internal8EqHelperILb0EE7CompareIiiEENS_15AssertionResultEPKcS6_RKT_RKT0_
FN:1454,_ZN7testing8internal8EqHelperILb0EE7CompareISt6vectorIS4_IiSaIiEESaIS6_EES8_EENS_15AssertionResultEPKcSB_RKT_RKT0_
FNDA:0,_ZN7testing8internal8EqHelperILb0EE7CompareISt6vectorIS4_IiSaIiEESaIS6_EES8_EENS_15AssertionResultEPKcSB_RKT_RKT0_
DA:304,0
DA:313,0
DA:314,0
DA:318,0
DA:414,0
DA:422,0
DA:499,0
DA:1414,0
DA:1421,0
DA:1414,0
DA:1421,0
DA:1426,2
DA:1430,2
DA:1431,2
DA:1434,0
DA:1426,0
DA:1430,0
DA:1431,0
DA:1434,0
DA:1454,2
DA:1458,2
DA:1454,0
DA:1458,0
end_of_record
SF:/usr/include/c++/9/bits/move.h
FN:47,_ZSt11__addressofISt6vectorIiSaIiEEEPT_RS3_
FNDA:0,_ZSt11__addressofISt6vectorIiSaIiEEEPT_RS3_
FN:74,_ZSt7forwardIRKSt6vectorIiSaIiEEEOT_RNSt16remove_referenceIS5_E4typeE
FNDA:0,_ZSt7forwardIRKSt6vectorIiSaIiEEEOT_RNSt16remove_referenceIS5_E4typeE
FN:99,_ZSt4moveIRSaIcEEONSt16remove_referenceIT_E4typeEOS3_
FNDA:0,_ZSt4moveIRSaIcEEONSt16remove_referenceIT_E4typeEOS3_
DA:47,0
DA:48,0
DA:74,0
DA:75,0
DA:99,0
DA:100,0
end_of_record
SF:/usr/include/c++/9/bits/char_traits.h
FN:329,_ZNSt11char_traitsIcE6lengthEPKc
FNDA:0,_ZNSt11char_traitsIcE6lengthEPKc
DA:329,0
DA:335,0
end_of_record
SF:/home/pato/TPIMorfMat/template-alumnos/lib/googletest-master/googletest/include/gtest/internal/gtest-internal.h
FN:448,_ZN7testing8internal15TestFactoryBaseD0Ev
FNDA:0,_ZN7testing8internal15TestFactoryBaseD0Ev
FN:448,_ZN7testing8internal15TestFactoryBaseD2Ev
FNDA:0,_ZN7testing8internal15TestFactoryBaseD2Ev
FN:455,_ZN7testing8internal15TestFactoryBaseC2Ev
FNDA:0,_ZN7testing8internal15TestFactoryBaseC2Ev
FN:466,_ZN7testing8internal15TestFactoryImplI71obtenerRegionConectadaTest_imagenActivadaSoloSemillaPueboMatSalida_TestE10CreateTestEv
FNDA:1,_ZN7testing8internal15TestFactoryImplI71obtenerRegionConectadaTest_imagenActivadaSoloSemillaPueboMatSalida_TestE10CreateTestEv
FN:466,_ZN7testing8internal15TestFactoryImplI74obtenerRegionConectadaTest_imagenActivadaSoloSemillaPueboQIteraciones_TestE10CreateTestEv
FNDA:1,_ZN7testing8internal15TestFactoryImplI74obtenerRegionConectadaTest_imagenActivadaSoloSemillaPueboQIteraciones_TestE10CreateTestEv
FN:466,_ZN7testing8internal15TestFactoryImplI54obtenerRegionConectadaTest_imagenEjemploPrueboMat_TestE10CreateTestEv
FNDA:1,_ZN7testing8internal15TestFactoryImplI54obtenerRegionConectadaTest_imagenEjemploPrueboMat_TestE10CreateTestEv
FN:466,_ZN7testing8internal15TestFactoryImplI63obtenerRegionConectadaTest_imagenEjemploPrueboQIteraciones_TestE10CreateTestEv
FNDA:1,_ZN7testing8internal15TestFactoryImplI63obtenerRegionConectadaTest_imagenEjemploPrueboQIteraciones_TestE10CreateTestEv
FN:487,_ZN7testing8internal12CodeLocationC2ERKNSt7__cxx1112basic_stringIcSt11char_traitsIcESaIcEEEi
FNDA:0,_ZN7testing8internal12CodeLocationC2ERKNSt7__cxx1112basic_stringIcSt11char_traitsIcESaIcEEEi
DA:448,0
DA:448,0
DA:455,0
DA:466,1
DA:466,1
DA:466,1
DA:466,1
DA:487,0
DA:488,0
end_of_record
SF:/usr/include/c++/9/bits/basic_string.h
FN:243,_ZNSt7__cxx1112basic_stringIcSt11char_traitsIcESaIcEE16_M_construct_auxIPcEEvT_S7_St12__false_type
FNDA:0,_ZNSt7__cxx1112basic_stringIcSt11char_traitsIcESaIcEE16_M_construct_auxIPcEEvT_S7_St12__false_type
FN:243,_ZNSt7__cxx1112basic_stringIcSt11char_traitsIcESaIcEE16_M_construct_auxIPKcEEvT_S8_St12__false_type
FNDA:0,_ZNSt7__cxx1112basic_stringIcSt11char_traitsIcESaIcEE16_M_construct_auxIPKcEEvT_S8_St12__false_type
FN:263,_ZNSt7__cxx1112basic_stringIcSt11char_traitsIcESaIcEE12_M_constructIPcEEvT_S7_
FNDA:0,_ZNSt7__cxx1112basic_stringIcSt11char_traitsIcESaIcEE12_M_constructIPcEEvT_S7_
FN:263,_ZNSt7__cxx1112basic_stringIcSt11char_traitsIcESaIcEE12_M_constructIPKcEEvT_S8_
FNDA:0,_ZNSt7__cxx1112basic_stringIcSt11char_traitsIcESaIcEE12_M_constructIPKcEEvT_S8_
DA:243,0
DA:247,0
DA:248,0
DA:243,0
DA:247,0
DA:248,0
DA:263,0
DA:266,0
DA:267,0
DA:263,0
DA:266,0
DA:267,0
end_of_record
SF:/usr/include/c++/9/bits/stl_iterator_base_types.h
FN:205,_ZSt19__iterator_categoryIPcENSt15iterator_traitsIT_E17iterator_categoryERKS2_
FNDA:0,_ZSt19__iterator_categoryIPcENSt15iterator_traitsIT_E17iterator_categoryERKS2_
FN:205,_ZSt19__iterator_categoryIPKcENSt15iterator_traitsIT_E17iterator_categoryERKS3_
FNDA:0,_ZSt19__iterator_categoryIPKcENSt15iterator_traitsIT_E17iterator_categoryERKS3_
FN:205,_ZSt19__iterator_categoryIPKSt6vectorIiSaIiEEENSt15iterator_traitsIT_E17iterator_categoryERKS6_
FNDA:0,_ZSt19__iterator_categoryIPKSt6vectorIiSaIiEEENSt15iterator_traitsIT_E17iterator_categoryERKS6_
FN:205,_ZSt19__iterator_categoryIPKiENSt15iterator_traitsIT_E17iterator_categoryERKS3_
FNDA:0,_ZSt19__iterator_categoryIPKiENSt15iterator_traitsIT_E17iterator_categoryERKS3_
DA:205,0
DA:206,0
DA:205,0
DA:206,0
DA:205,0
DA:206,0
DA:205,0
DA:206,0
end_of_record
SF:/usr/include/c++/9/initializer_list
FN:71,_ZNKSt16initializer_listISt6vectorIiSaIiEEE4sizeEv
FNDA:0,_ZNKSt16initializer_listISt6vectorIiSaIiEEE4sizeEv
FN:71,_ZNKSt16initializer_listIiE4sizeEv
FNDA:0,_ZNKSt16initializer_listIiE4sizeEv
FN:75,_ZNKSt16initializer_listISt6vectorIiSaIiEEE5beginEv
FNDA:0,_ZNKSt16initializer_listISt6vectorIiSaIiEEE5beginEv
FN:75,_ZNKSt16initializer_listIiE5beginEv
FNDA:0,_ZNKSt16initializer_listIiE5beginEv
FN:79,_ZNKSt16initializer_listISt6vectorIiSaIiEEE3endEv
FNDA:0,_ZNKSt16initializer_listISt6vectorIiSaIiEEE3endEv
FN:79,_ZNKSt16initializer_listIiE3endEv
FNDA:0,_ZNKSt16initializer_listIiE3endEv
DA:71,0
DA:71,0
DA:75,0
DA:75,0
DA:79,0
DA:79,0
end_of_record
SF:/usr/include/c++/9/ext/alloc_traits.h
FN:97,_ZN9__gnu_cxx14__alloc_traitsISaIiEiE17_S_select_on_copyERKS1_
FNDA:0,_ZN9__gnu_cxx14__alloc_traitsISaIiEiE17_S_select_on_copyERKS1_
FN:97,_ZN9__gnu_cxx14__alloc_traitsISaIcEcE17_S_select_on_copyERKS1_
FNDA:0,_ZN9__gnu_cxx14__alloc_traitsISaIcEcE17_S_select_on_copyERKS1_
DA:97,0
DA:98,0
DA:97,0
DA:98,0
end_of_record
SF:/home/pato/TPIMorfMat/template-alumnos/lib/googletest-master/googletest/include/gtest/internal/gtest-port.h
FN:1185,_ZN7testing8internal10scoped_ptrINSt7__cxx1112basic_stringIcSt11char_traitsIcESaIcEEEED2Ev
FNDA:0,_ZN7testing8internal10scoped_ptrINSt7__cxx1112basic_stringIcSt11char_traitsIcESaIcEEEED2Ev
FN:1185,_ZN7testing8internal10scoped_ptrINSt7__cxx1118basic_stringstreamIcSt11char_traitsIcESaIcEEEED2Ev
FNDA:0,_ZN7testing8internal10scoped_ptrINSt7__cxx1118basic_stringstreamIcSt11char_traitsIcESaIcEEEED2Ev
FN:1188,_ZNK7testing8internal10scoped_ptrINSt7__cxx1112basic_stringIcSt11char_traitsIcESaIcEEEEptEv
FNDA:0,_ZNK7testing8internal10scoped_ptrINSt7__cxx1112basic_stringIcSt11char_traitsIcESaIcEEEEptEv
FN:1189,_ZNK7testing8internal10scoped_ptrINSt7__cxx1112basic_stringIcSt11char_traitsIcESaIcEEEE3getEv
FNDA:0,_ZNK7testing8internal10scoped_ptrINSt7__cxx1112basic_stringIcSt11char_traitsIcESaIcEEEE3getEv
FN:1197,_ZN7testing8internal10scoped_ptrINSt7__cxx1118basic_stringstreamIcSt11char_traitsIcESaIcEEEE5resetEPS7_
FNDA:0,_ZN7testing8internal10scoped_ptrINSt7__cxx1118basic_stringstreamIcSt11char_traitsIcESaIcEEEE5resetEPS7_
FN:1197,_ZN7testing8internal10scoped_ptrINSt7__cxx1112basic_stringIcSt11char_traitsIcESaIcEEEE5resetEPS7_
FNDA:0,_ZN7testing8internal10scoped_ptrINSt7__cxx1112basic_stringIcSt11char_traitsIcESaIcEEEE5resetEPS7_
DA:1185,0
DA:1185,0
DA:1188,0
DA:1189,0
DA:1197,0
DA:1198,0
DA:1199,0
DA:1200,0
DA:1202,0
DA:1204,0
DA:1197,0
DA:1198,0
DA:1199,0
DA:1200,0
DA:1202,0
DA:1204,0
end_of_record
SF:/usr/include/c++/9/ext/type_traits.h
FN:152,_ZN9__gnu_cxx17__is_null_pointerIcEEbPT_
FNDA:0,_ZN9__gnu_cxx17__is_null_pointerIcEEbPT_
FN:152,_ZN9__gnu_cxx17__is_null_pointerIKcEEbPT_
FNDA:0,_ZN9__gnu_cxx17__is_null_pointerIKcEEbPT_
DA:152,0
DA:153,0
DA:152,0
DA:153,0
end_of_record
SF:/usr/include/c++/9/bits/stl_vector.h
FN:94,_ZNSt12_Vector_baseIiSaIiEE17_Vector_impl_dataC2Ev
FNDA:0,_ZNSt12_Vector_baseIiSaIiEE17_Vector_impl_dataC2Ev
FN:94,_ZNSt12_Vector_baseISt6vectorIiSaIiEESaIS2_EE17_Vector_impl_dataC2Ev
FNDA:0,_ZNSt12_Vector_baseISt6vectorIiSaIiEESaIS2_EE17_Vector_impl_dataC2Ev
FN:133,_ZNSt12_Vector_baseISt6vectorIiSaIiEESaIS2_EE12_Vector_implC2ERKS3_
FNDA:0,_ZNSt12_Vector_baseISt6vectorIiSaIiEESaIS2_EE12_Vector_implC2ERKS3_
FN:133,_ZNSt12_Vector_baseIiSaIiEE12_Vector_implC2ERKS0_
FNDA:0,_ZNSt12_Vector_baseIiSaIiEE12_Vector_implC2ERKS0_
FN:273,_ZNSt12_Vector_baseIiSaIiEE19_M_get_Tp_allocatorEv
FNDA:0,_ZNSt12_Vector_baseIiSaIiEE19_M_get_Tp_allocatorEv
FN:273,_ZNSt12_Vector_baseISt6vectorIiSaIiEESaIS2_EE19_M_get_Tp_allocatorEv
FNDA:0,_ZNSt12_Vector_baseISt6vectorIiSaIiEESaIS2_EE19_M_get_Tp_allocatorEv
FN:277,_ZNKSt12_Vector_baseIiSaIiEE19_M_get_Tp_allocatorEv
FNDA:0,_ZNKSt12_Vector_baseIiSaIiEE19_M_get_Tp_allocatorEv
FN:290,_ZNSt12_Vector_baseIiSaIiEEC2ERKS0_
FNDA:0,_ZNSt12_Vector_baseIiSaIiEEC2ERKS0_
FN:290,_ZNSt12_Vector_baseISt6vectorIiSaIiEESaIS2_EEC2ERKS3_
FNDA:0,_ZNSt12_Vector_baseISt6vectorIiSaIiEESaIS2_EEC2ERKS3_
FN:300,_ZNSt12_Vector_baseIiSaIiEEC2EmRKS0_
FNDA:0,_ZNSt12_Vector_baseIiSaIiEEC2EmRKS0_
FN:330,_ZNSt12_Vector_baseISt6vectorIiSaIiEESaIS2_EED2Ev
FNDA:0,_ZNSt12_Vector_baseISt6vectorIiSaIiEESaIS2_EED2Ev
FN:330,_ZNSt12_Vector_baseIiSaIiEED2Ev
FNDA:0,_ZNSt12_Vector_baseIiSaIiEED2Ev
FN:340,_ZNSt12_Vector_baseISt6vectorIiSaIiEESaIS2_EE11_M_allocateEm
FNDA:0,_ZNSt12_Vector_baseISt6vectorIiSaIiEESaIS2_EE11_M_allocateEm
FN:340,_ZNSt12_Vector_baseIiSaIiEE11_M_allocateEm
FNDA:0,_ZNSt12_Vector_baseIiSaIiEE11_M_allocateEm
FN:347,_ZNSt12_Vector_baseIiSaIiEE13_M_deallocateEPim
FNDA:0,_ZNSt12_Vector_baseIiSaIiEE13_M_deallocateEPim
FN:347,_ZNSt12_Vector_baseISt6vectorIiSaIiEESaIS2_EE13_M_deallocateEPS2_m
FNDA:0,_ZNSt12_Vector_baseISt6vectorIiSaIiEESaIS2_EE13_M_deallocateEPS2_m
FN:356,_ZNSt12_Vector_baseIiSaIiEE17_M_create_storageEm
FNDA:0,_ZNSt12_Vector_baseIiSaIiEE17_M_create_storageEm
FN:550,_ZNSt6vectorIiSaIiEEC2ERKS1_
FNDA:0,_ZNSt6vectorIiSaIiEEC2ERKS1_
FN:622,_ZNSt6vectorIiSaIiEEC2ESt16initializer_listIiERKS0_
FNDA:0,_ZNSt6vectorIiSaIiEEC2ESt16initializer_listIiERKS0_
FN:622,_ZNSt6vectorIS_IiSaIiEESaIS1_EEC2ESt16initializer_listIS1_ERKS2_
FNDA:0,_ZNSt6vectorIS_IiSaIiEESaIS1_EEC2ESt16initializer_listIS1_ERKS2_
FN:675,_ZNSt6vectorIS_IiSaIiEESaIS1_EED2Ev
FNDA:0,_ZNSt6vectorIS_IiSaIiEESaIS1_EED2Ev
FN:675,_ZNSt6vectorIiSaIiEED2Ev
FNDA:0,_ZNSt6vectorIiSaIiEED2Ev
FN:817,_ZNKSt6vectorIS_IiSaIiEESaIS1_EE5beginEv
FNDA:0,_ZNKSt6vectorIS_IiSaIiEESaIS1_EE5beginEv
FN:817,_ZNKSt6vectorIiSaIiEE5beginEv
FNDA:0,_ZNKSt6vectorIiSaIiEE5beginEv
FN:835,_ZNKSt6vectorIS_IiSaIiEESaIS1_EE3endEv
FNDA:0,_ZNKSt6vectorIS_IiSaIiEESaIS1_EE3endEv
FN:835,_ZNKSt6vectorIiSaIiEE3endEv
FNDA:0,_ZNKSt6vectorIiSaIiEE3endEv
FN:915,_ZNKSt6vectorIS_IiSaIiEESaIS1_EE4sizeEv
FNDA:0,_ZNKSt6vectorIS_IiSaIiEESaIS1_EE4sizeEv
FN:915,_ZNKSt6vectorIiSaIiEE4sizeEv
FNDA:0,_ZNKSt6vectorIiSaIiEE4sizeEv
FN:1574,_ZNSt6vectorIS_IiSaIiEESaIS1_EE19_M_range_initializeIPKS1_EEvT_S7_St20forward_iterator_tag
FNDA:0,_ZNSt6vectorIS_IiSaIiEESaIS1_EE19_M_range_initializeIPKS1_EEvT_S7_St20forward_iterator_tag
FN:1574,_ZNSt6vectorIiSaIiEE19_M_range_initializeIPKiEEvT_S5_St20forward_iterator_tag
FNDA:0,_ZNSt6vectorIiSaIiEE19_M_range_initializeIPKiEEvT_S5_St20forward_iterator_tag
FN:1764,_ZNSt6vectorIS_IiSaIiEESaIS1_EE17_S_check_init_lenEmRKS2_
FNDA:0,_ZNSt6vectorIS_IiSaIiEESaIS1_EE17_S_check_init_lenEmRKS2_
FN:1764,_ZNSt6vectorIiSaIiEE17_S_check_init_lenEmRKS0_
FNDA:0,_ZNSt6vectorIiSaIiEE17_S_check_init_lenEmRKS0_
FN:1773,_ZNSt6vectorIiSaIiEE11_S_max_sizeERKS0_
FNDA:0,_ZNSt6vectorIiSaIiEE11_S_max_sizeERKS0_
FN:1773,_ZNSt6vectorIS_IiSaIiEESaIS1_EE11_S_max_sizeERKS2_
FNDA:0,_ZNSt6vectorIS_IiSaIiEESaIS1_EE11_S_max_sizeERKS2_
FN:1888,_ZSteqISt6vectorIiSaIiEESaIS2_EEbRKS0_IT_T0_ES8_
FNDA:0,_ZSteqISt6vectorIiSaIiEESaIS2_EEbRKS0_IT_T0_ES8_
FN:1888,_ZSteqIiSaIiEEbRKSt6vectorIT_T0_ES6_
FNDA:0,_ZSteqIiSaIiEEbRKSt6vectorIT_T0_ES6_
DA:94,0
DA:95,0
DA:96,0
DA:94,0
DA:95,0
DA:96,0
DA:133,0
DA:134,0
DA:135,0
DA:133,0
DA:134,0
DA:135,0
DA:273,0
DA:274,0
DA:273,0
DA:274,0
DA:277,0
DA:278,0
DA:290,0
DA:291,0
DA:290,0
DA:291,0
DA:300,0
DA:301,0
DA:302,0
DA:330,0
DA:332,0
DA:333,0
DA:334,0
DA:330,0
DA:332,0
DA:333,0
DA:334,0
DA:340,0
DA:343,0
DA:340,0
DA:343,0
DA:347,0
DA:350,0
DA:351,0
DA:352,0
DA:347,0
DA:350,0
DA:351,0
DA:352,0
DA:356,0
DA:358,0
DA:359,0
DA:360,0
DA:361,0
DA:550,0
DA:552,0
DA:554,0
DA:555,0
DA:557,0
DA:558,0
DA:622,0
DA:624,0
DA:626,0
DA:628,0
DA:622,0
DA:624,0
DA:626,0
DA:628,0
DA:675,0
DA:677,0
DA:678,0
DA:680,0
DA:675,0
DA:677,0
DA:678,0
DA:680,0
DA:817,0
DA:818,0
DA:817,0
DA:818,0
DA:835,0
DA:836,0
DA:835,0
DA:836,0
DA:915,0
DA:916,0
DA:915,0
DA:916,0
DA:1574,0
DA:1577,0
DA:1578,0
DA:1579,0
DA:1580,0
DA:1581,0
DA:1582,0
DA:1584,0
DA:1585,0
DA:1574,0
DA:1577,0
DA:1578,0
DA:1579,0
DA:1580,0
DA:1581,0
DA:1582,0
DA:1584,0
DA:1585,0
DA:1764,0
DA:1766,0
DA:1767,0
DA:1769,0
DA:1764,0
DA:1766,0
DA:1767,0
DA:1769,0
DA:1773,0
DA:1778,0
DA:1780,0
DA:1781,0
DA:1773,0
DA:1778,0
DA:1780,0
DA:1781,0
DA:1888,0
DA:1889,0
DA:1890,0
DA:1888,0
DA:1889,0
DA:1890,0
end_of_record
SF:/home/pato/TPIMorfMat/template-alumnos/lib/googletest-master/googletest/include/gtest/gtest-printers.h
FN:258,_ZN16testing_internal26DefaultPrintNonContainerToIiEEvRKT_PSo
FNDA:0,_ZN16testing_internal26DefaultPrintNonContainerToIiEEvRKT_PSo
FN:311,_ZN7testing8internal19FormatForComparisonISt6vectorIS2_IiSaIiEESaIS4_EES6_E6FormatB5cxx11ERKS6_
FNDA:0,_ZN7testing8internal19FormatForComparisonISt6vectorIS2_IiSaIiEESaIS4_EES6_E6FormatB5cxx11ERKS6_
FN:311,_ZN7testing8internal19FormatForComparisonIiiE6FormatB5cxx11ERKi
FNDA:0,_ZN7testing8internal19FormatForComparisonIiiE6FormatB5cxx11ERKi
FN:385,_ZN7testing8internal33FormatForComparisonFailureMessageISt6vectorIS2_IiSaIiEESaIS4_EES6_EENSt7__cxx1112basic_stringIcSt11char_traitsIcESaIcEEERKT_RKT0_
FNDA:0,_ZN7testing8internal33FormatForComparisonFailureMessageISt6vectorIS2_IiSaIiEESaIS4_EES6_EENSt7__cxx1112basic_stringIcSt11char_traitsIcESaIcEEERKT_RKT0_
FN:385,_ZN7testing8internal33FormatForComparisonFailureMessageIiiEENSt7__cxx1112basic_stringIcSt11char_traitsIcESaIcEEERKT_RKT0_
FNDA:0,_ZN7testing8internal33FormatForComparisonFailureMessageIiiEENSt7__cxx1112basic_stringIcSt11char_traitsIcESaIcEEERKT_RKT0_
FN:414,_ZN7testing8internal14DefaultPrintToISt6vectorIiSaIiEEEEvNS0_15WrapPrinterTypeILNS0_18DefaultPrinterTypeE0EEERKT_PSo
FNDA:0,_ZN7testing8internal14DefaultPrintToISt6vectorIiSaIiEEEEvNS0_15WrapPrinterTypeILNS0_18DefaultPrinterTypeE0EEERKT_PSo
FN:414,_ZN7testing8internal14DefaultPrintToISt6vectorIS2_IiSaIiEESaIS4_EEEEvNS0_15WrapPrinterTypeILNS0_18DefaultPrinterTypeE0EEERKT_PSo
FNDA:0,_ZN7testing8internal14DefaultPrintToISt6vectorIS2_IiSaIiEESaIS4_EEEEvNS0_15WrapPrinterTypeILNS0_18DefaultPrinterTypeE0EEERKT_PSo
FN:474,_ZN7testing8internal14DefaultPrintToIiEEvNS0_15WrapPrinterTypeILNS0_18DefaultPrinterTypeE3EEERKT_PSo
FNDA:0,_ZN7testing8internal14DefaultPrintToIiEEvNS0_15WrapPrinterTypeILNS0_18DefaultPrinterTypeE3EEERKT_PSo
FN:491,_ZN7testing8internal7PrintToISt6vectorIiSaIiEEEEvRKT_PSo
FNDA:0,_ZN7testing8internal7PrintToISt6vectorIiSaIiEEEEvRKT_PSo
FN:491,_ZN7testing8internal7PrintToISt6vectorIS2_IiSaIiEESaIS4_EEEEvRKT_PSo
FNDA:0,_ZN7testing8internal7PrintToISt6vectorIS2_IiSaIiEESaIS4_EEEEvRKT_PSo
FN:491,_ZN7testing8internal7PrintToIiEEvRKT_PSo
FNDA:0,_ZN7testing8internal7PrintToIiEEvRKT_PSo
FN:753,_ZN7testing8internal16UniversalPrinterIiE5PrintERKiPSo
FNDA:0,_ZN7testing8internal16UniversalPrinterIiE5PrintERKiPSo
FN:753,_ZN7testing8internal16UniversalPrinterISt6vectorIS2_IiSaIiEESaIS4_EEE5PrintERKS6_PSo
FNDA:0,_ZN7testing8internal16UniversalPrinterISt6vectorIS2_IiSaIiEESaIS4_EEE5PrintERKS6_PSo
FN:753,_ZN7testing8internal16UniversalPrinterISt6vectorIiSaIiEEE5PrintERKS4_PSo
FNDA:0,_ZN7testing8internal16UniversalPrinterISt6vectorIiSaIiEEE5PrintERKS4_PSo
FN:858,_ZN7testing8internal21UniversalTersePrinterIiE5PrintERKiPSo
FNDA:0,_ZN7testing8internal21UniversalTersePrinterIiE5PrintERKiPSo
FN:858,_ZN7testing8internal21UniversalTersePrinterISt6vectorIS2_IiSaIiEESaIS4_EEE5PrintERKS6_PSo
FNDA:0,_ZN7testing8internal21UniversalTersePrinterISt6vectorIS2_IiSaIiEESaIS4_EEE5PrintERKS6_PSo
FN:927,_ZN7testing8internal14UniversalPrintIiEEvRKT_PSo
FNDA:0,_ZN7testing8internal14UniversalPrintIiEEvRKT_PSo
FN:927,_ZN7testing8internal14UniversalPrintISt6vectorIS2_IiSaIiEESaIS4_EEEEvRKT_PSo
FNDA:0,_ZN7testing8internal14UniversalPrintISt6vectorIS2_IiSaIiEESaIS4_EEEEvRKT_PSo
FN:927,_ZN7testing8internal14UniversalPrintISt6vectorIiSaIiEEEEvRKT_PSo
FNDA:0,_ZN7testing8internal14UniversalPrintISt6vectorIiSaIiEEEEvRKT_PSo
FN:1065,_ZN7testing13PrintToStringIiEENSt7__cxx1112basic_stringIcSt11char_traitsIcESaIcEEERKT_
FNDA:0,_ZN7testing13PrintToStringIiEENSt7__cxx1112basic_stringIcSt11char_traitsIcESaIcEEERKT_
FN:1065,_ZN7testing13PrintToStringISt6vectorIS1_IiSaIiEESaIS3_EEEENSt7__cxx1112basic_stringIcSt11char_traitsIcESaIcEEERKT_
FNDA:0,_ZN7testing13PrintToStringISt6vectorIS1_IiSaIiEESaIS3_EEEENSt7__cxx1112basic_stringIcSt11char_traitsIcESaIcEEERKT_
DA:258,0
DA:285,0
DA:286,0
DA:311,0
DA:312,0
DA:311,0
DA:312,0
DA:385,0
DA:387,0
DA:385,0
DA:387,0
DA:414,0
DA:416,0
DA:417,0
DA:418,0
DA:419,0
DA:420,0
DA:421,0
DA:422,0
DA:423,0
DA:424,0
DA:425,0
DA:428,0
DA:431,0
DA:434,0
DA:435,0
DA:437,0
DA:438,0
DA:414,0
DA:416,0
DA:417,0
DA:418,0
DA:419,0
DA:420,0
DA:421,0
DA:422,0
DA:423,0
DA:424,0
DA:425,0
DA:428,0
DA:431,0
DA:434,0
DA:435,0
DA:437,0
DA:438,0
DA:474,0
DA:476,0
DA:477,0
DA:491,0
DA:511,0
DA:526,0
DA:491,0
DA:511,0
DA:526,0
DA:491,0
DA:511,0
DA:526,0
DA:753,0
DA:762,0
DA:763,0
DA:753,0
DA:762,0
DA:763,0
DA:753,0
DA:762,0
DA:763,0
DA:858,0
DA:859,0
DA:860,0
DA:858,0
DA:859,0
DA:860,0
DA:927,0
DA:931,0
DA:932,0
DA:927,0
DA:931,0
DA:932,0
DA:927,0
DA:931,0
DA:932,0
DA:1065,0
DA:1066,0
DA:1067,0
DA:1068,0
DA:1065,0
DA:1066,0
DA:1067,0
DA:1068,0
end_of_record
SF:/usr/include/c++/9/bits/basic_string.tcc
FN:206,_ZNSt7__cxx1112basic_stringIcSt11char_traitsIcESaIcEE12_M_constructIPcEEvT_S7_St20forward_iterator_tag
FNDA:0,_ZNSt7__cxx1112basic_stringIcSt11char_traitsIcESaIcEE12_M_constructIPcEEvT_S7_St20forward_iterator_tag
FN:206,_ZNSt7__cxx1112basic_stringIcSt11char_traitsIcESaIcEE12_M_constructIPKcEEvT_S8_St20forward_iterator_tag
FNDA:0,_ZNSt7__cxx1112basic_stringIcSt11char_traitsIcESaIcEE12_M_constructIPKcEEvT_S8_St20forward_iterator_tag
DA:206,0
DA:211,0
DA:212,0
DA:215,0
DA:217,0
DA:219,0
DA:220,0
DA:225,0
DA:226,0
DA:228,0
DA:229,0
DA:232,0
DA:233,0
DA:206,0
DA:211,0
DA:212,0
DA:215,0
DA:217,0
DA:219,0
DA:220,0
DA:225,0
DA:226,0
DA:228,0
DA:229,0
DA:232,0
DA:233,0
end_of_record
SF:/home/pato/TPIMorfMat/template-alumnos/tests/ej6TEST.cpp
FN:4,_ZN71obtenerRegionConectadaTest_imagenActivadaSoloSemillaPueboMatSalida_Test8TestBodyEv
FNDA:1,_ZN71obtenerRegionConectadaTest_imagenActivadaSoloSemillaPueboMatSalida_Test8TestBodyEv
FN:4,_ZN71obtenerRegionConectadaTest_imagenActivadaSoloSemillaPueboMatSalida_TestC2Ev
FNDA:1,_ZN71obtenerRegionConectadaTest_imagenActivadaSoloSemillaPueboMatSalida_TestC2Ev
FN:24,_ZN74obtenerRegionConectadaTest_imagenActivadaSoloSemillaPueboQIteraciones_Test8TestBodyEv
FNDA:1,_ZN74obtenerRegionConectadaTest_imagenActivadaSoloSemillaPueboQIteraciones_Test8TestBodyEv
FN:24,_ZN74obtenerRegionConectadaTest_imagenActivadaSoloSemillaPueboQIteraciones_TestC2Ev
FNDA:1,_ZN74obtenerRegionConectadaTest_imagenActivadaSoloSemillaPueboQIteraciones_TestC2Ev
FN:43,_ZN54obtenerRegionConectadaTest_imagenEjemploPrueboMat_Test8TestBodyEv
FNDA:1,_ZN54obtenerRegionConectadaTest_imagenEjemploPrueboMat_Test8TestBodyEv
FN:43,_ZN54obtenerRegionConectadaTest_imagenEjemploPrueboMat_TestC2Ev
FNDA:1,_ZN54obtenerRegionConectadaTest_imagenEjemploPrueboMat_TestC2Ev
FN:76,_ZN63obtenerRegionConectadaTest_imagenEjemploPrueboQIteraciones_Test8TestBodyEv
FNDA:1,_ZN63obtenerRegionConectadaTest_imagenEjemploPrueboQIteraciones_Test8TestBodyEv
FN:76,_ZN63obtenerRegionConectadaTest_imagenEjemploPrueboQIteraciones_TestC2Ev
FNDA:1,_ZN63obtenerRegionConectadaTest_imagenEjemploPrueboQIteraciones_TestC2Ev
DA:4,1
DA:5,1
DA:15,11
DA:16,2
DA:18,1
DA:20,1
DA:22,1
DA:4,1
DA:24,1
DA:25,1
DA:35,11
DA:36,2
DA:38,1
DA:40,1
DA:41,1
DA:24,1
DA:43,1
DA:44,1
DA:56,14
DA:57,2
DA:69,14
DA:71,1
DA:73,1
DA:74,1
DA:43,1
DA:76,1
DA:77,1
DA:89,14
DA:90,2
DA:92,1
DA:94,1
DA:95,1
DA:76,1
end_of_record
SF:/home/pato/TPIMorfMat/template-alumnos/lib/googletest-master/googletest/include/gtest/gtest-message.h
end_of_record
SF:/usr/include/c++/9/bits/stl_iterator_base_funcs.h
FN:98,_ZSt10__distanceIPcENSt15iterator_traitsIT_E15difference_typeES2_S2_St26random_access_iterator_tag
FNDA:0,_ZSt10__distanceIPcENSt15iterator_traitsIT_E15difference_typeES2_S2_St26random_access_iterator_tag
FN:98,_ZSt10__distanceIPKcENSt15iterator_traitsIT_E15difference_typeES3_S3_St26random_access_iterator_tag
FNDA:0,_ZSt10__distanceIPKcENSt15iterator_traitsIT_E15difference_typeES3_S3_St26random_access_iterator_tag
FN:98,_ZSt10__distanceIPKSt6vectorIiSaIiEEENSt15iterator_traitsIT_E15difference_typeES6_S6_St26random_access_iterator_tag
FNDA:0,_ZSt10__distanceIPKSt6vectorIiSaIiEEENSt15iterator_traitsIT_E15difference_typeES6_S6_St26random_access_iterator_tag
FN:98,_ZSt10__distanceIPKiENSt15iterator_traitsIT_E15difference_typeES3_S3_St26random_access_iterator_tag
FNDA:0,_ZSt10__distanceIPKiENSt15iterator_traitsIT_E15difference_typeES3_S3_St26random_access_iterator_tag
FN:138,_ZSt8distanceIPcENSt15iterator_traitsIT_E15difference_typeES2_S2_
FNDA:0,_ZSt8distanceIPcENSt15iterator_traitsIT_E15difference_typeES2_S2_
FN:138,_ZSt8distanceIPKcENSt15iterator_traitsIT_E15difference_typeES3_S3_
FNDA:0,_ZSt8distanceIPKcENSt15iterator_traitsIT_E15difference_typeES3_S3_
FN:138,_ZSt8distanceIPKSt6vectorIiSaIiEEENSt15iterator_traitsIT_E15difference_typeES6_S6_
FNDA:0,_ZSt8distanceIPKSt6vectorIiSaIiEEENSt15iterator_traitsIT_E15difference_typeES6_S6_
FN:138,_ZSt8distanceIPKiENSt15iterator_traitsIT_E15difference_typeES3_S3_
FNDA:0,_ZSt8distanceIPKiENSt15iterator_traitsIT_E15difference_typeES3_S3_
DA:98,0
DA:104,0
DA:98,0
DA:104,0
DA:98,0
DA:104,0
DA:98,0
DA:104,0
DA:138,0
DA:141,0
DA:142,0
DA:138,0
DA:141,0
DA:142,0
DA:138,0
DA:141,0
DA:142,0
DA:138,0
DA:141,0
DA:142,0
end_of_record
SF:/usr/include/c++/9/bits/stl_iterator.h
FN:806,_ZN9__gnu_cxx17__normal_iteratorIPKiSt6vectorIiSaIiEEEC2ERKS2_
FNDA:0,_ZN9__gnu_cxx17__normal_iteratorIPKiSt6vectorIiSaIiEEEC2ERKS2_
FN:806,_ZN9__gnu_cxx17__normal_iteratorIPKSt6vectorIiSaIiEES1_IS3_SaIS3_EEEC2ERKS5_
FNDA:0,_ZN9__gnu_cxx17__normal_iteratorIPKSt6vectorIiSaIiEES1_IS3_SaIS3_EEEC2ERKS5_
FN:819,_ZNK9__gnu_cxx17__normal_iteratorIPKiSt6vectorIiSaIiEEEdeEv
FNDA:0,_ZNK9__gnu_cxx17__normal_iteratorIPKiSt6vectorIiSaIiEEEdeEv
FN:819,_ZNK9__gnu_cxx17__normal_iteratorIPKSt6vectorIiSaIiEES1_IS3_SaIS3_EEEdeEv
FNDA:0,_ZNK9__gnu_cxx17__normal_iteratorIPKSt6vectorIiSaIiEES1_IS3_SaIS3_EEEdeEv
FN:827,_ZN9__gnu_cxx17__normal_iteratorIPKiSt6vectorIiSaIiEEEppEv
FNDA:0,_ZN9__gnu_cxx17__normal_iteratorIPKiSt6vectorIiSaIiEEEppEv
FN:827,_ZN9__gnu_cxx17__normal_iteratorIPKSt6vectorIiSaIiEES1_IS3_SaIS3_EEEppEv
FNDA:0,_ZN9__gnu_cxx17__normal_iteratorIPKSt6vectorIiSaIiEES1_IS3_SaIS3_EEEppEv
FN:871,_ZNK9__gnu_cxx17__normal_iteratorIPKiSt6vectorIiSaIiEEE4baseEv
FNDA:0,_ZNK9__gnu_cxx17__normal_iteratorIPKiSt6vectorIiSaIiEEE4baseEv
FN:871,_ZNK9__gnu_cxx17__normal_iteratorIPKSt6vectorIiSaIiEES1_IS3_SaIS3_EEE4baseEv
FNDA:0,_ZNK9__gnu_cxx17__normal_iteratorIPKSt6vectorIiSaIiEES1_IS3_SaIS3_EEE4baseEv
FN:907,_ZN9__gnu_cxxneIPKiSt6vectorIiSaIiEEEEbRKNS_17__normal_iteratorIT_T0_EESB_
FNDA:0,_ZN9__gnu_cxxneIPKiSt6vectorIiSaIiEEEEbRKNS_17__normal_iteratorIT_T0_EESB_
FN:907,_ZN9__gnu_cxxneIPKSt6vectorIiSaIiEES1_IS3_SaIS3_EEEEbRKNS_17__normal_iteratorIT_T0_EESD_
FNDA:0,_ZN9__gnu_cxxneIPKSt6vectorIiSaIiEES1_IS3_SaIS3_EEEEbRKNS_17__normal_iteratorIT_T0_EESD_
FN:1010,_ZSt12__niter_baseIPKiSt6vectorIiSaIiEEET_N9__gnu_cxx17__normal_iteratorIS5_T0_EE
FNDA:0,_ZSt12__niter_baseIPKiSt6vectorIiSaIiEEET_N9__gnu_cxx17__normal_iteratorIS5_T0_EE
FN:1010,_ZSt12__niter_baseIPKSt6vectorIiSaIiEES0_IS2_SaIS2_EEET_N9__gnu_cxx17__normal_iteratorIS7_T0_EE
FNDA:0,_ZSt12__niter_baseIPKSt6vectorIiSaIiEES0_IS2_SaIS2_EEET_N9__gnu_cxx17__normal_iteratorIS7_T0_EE
DA:806,0
DA:807,0
DA:806,0
DA:807,0
DA:819,0
DA:820,0
DA:819,0
DA:820,0
DA:827,0
DA:829,0
DA:830,0
DA:827,0
DA:829,0
DA:830,0
DA:871,0
DA:872,0
DA:871,0
DA:872,0
DA:907,0
DA:910,0
DA:907,0
DA:910,0
DA:1010,0
DA:1012,0
DA:1010,0
DA:1012,0
end_of_record
SF:/usr/include/c++/9/bits/allocator.h
FN:138,_ZNSaISt6vectorIiSaIiEEEC2Ev
FNDA:0,_ZNSaISt6vectorIiSaIiEEEC2Ev
FN:138,_ZNSaIiEC2Ev
FNDA:0,_ZNSaIiEC2Ev
FN:141,_ZNSaISt6vectorIiSaIiEEEC2ERKS2_
FNDA:0,_ZNSaISt6vectorIiSaIiEEEC2ERKS2_
FN:141,_ZNSaIiEC2ERKS_
FNDA:0,_ZNSaIiEC2ERKS_
FN:153,_ZNSaISt6vectorIiSaIiEEED2Ev
FNDA:0,_ZNSaISt6vectorIiSaIiEEED2Ev
FN:153,_ZNSaIiED2Ev
FNDA:0,_ZNSaIiED2Ev
DA:138,0
DA:138,0
DA:141,0
DA:142,0
DA:141,0
DA:142,0
DA:153,0
DA:153,0
end_of_record
SF:/usr/include/c++/9/bits/alloc_traits.h
FN:443,_ZNSt16allocator_traitsISaISt6vectorIiSaIiEEEE8allocateERS3_m
FNDA:0,_ZNSt16allocator_traitsISaISt6vectorIiSaIiEEEE8allocateERS3_m
FN:443,_ZNSt16allocator_traitsISaIiEE8allocateERS0_m
FNDA:0,_ZNSt16allocator_traitsISaIiEE8allocateERS0_m
FN:469,_ZNSt16allocator_traitsISaISt6vectorIiSaIiEEEE10deallocateERS3_PS2_m
FNDA:0,_ZNSt16allocator_traitsISaISt6vectorIiSaIiEEEE10deallocateERS3_PS2_m
FN:469,_ZNSt16allocator_traitsISaIiEE10deallocateERS0_Pim
FNDA:0,_ZNSt16allocator_traitsISaIiEE10deallocateERS0_Pim
FN:505,_ZNSt16allocator_traitsISaISt6vectorIiSaIiEEEE8max_sizeERKS3_
FNDA:0,_ZNSt16allocator_traitsISaISt6vectorIiSaIiEEEE8max_sizeERKS3_
FN:505,_ZNSt16allocator_traitsISaIiEE8max_sizeERKS0_
FNDA:0,_ZNSt16allocator_traitsISaIiEE8max_sizeERKS0_
FN:514,_ZNSt16allocator_traitsISaIiEE37select_on_container_copy_constructionERKS0_
FNDA:0,_ZNSt16allocator_traitsISaIiEE37select_on_container_copy_constructionERKS0_
FN:514,_ZNSt16allocator_traitsISaIcEE37select_on_container_copy_constructionERKS0_
FNDA:0,_ZNSt16allocator_traitsISaIcEE37select_on_container_copy_constructionERKS0_
DA:443,0
DA:444,0
DA:443,0
DA:444,0
DA:469,0
DA:470,0
DA:469,0
DA:470,0
DA:505,0
DA:506,0
DA:505,0
DA:506,0
DA:514,0
DA:515,0
DA:514,0
DA:515,0
end_of_record
TN:
SF:/usr/include/c++/9/bits/stl_uninitialized.h
FN:76,_ZNSt20__uninitialized_copyILb0EE13__uninit_copyIPKSt6vectorIiSaIiEEPS4_EET0_T_S9_S8_
FNDA:0,_ZNSt20__uninitialized_copyILb0EE13__uninit_copyIPKSt6vectorIiSaIiEEPS4_EET0_T_S9_S8_
FN:99,_ZNSt20__uninitialized_copyILb1EE13__uninit_copyIN9__gnu_cxx17__normal_iteratorIPKiSt6vectorIiSaIiEEEEPiEET0_T_SC_SB_
FNDA:0,_ZNSt20__uninitialized_copyILb1EE13__uninit_copyIN9__gnu_cxx17__normal_iteratorIPKiSt6vectorIiSaIiEEEEPiEET0_T_SC_SB_
FN:99,_ZNSt20__uninitialized_copyILb1EE13__uninit_copyIPKiPiEET0_T_S6_S5_
FNDA:0,_ZNSt20__uninitialized_copyILb1EE13__uninit_copyIPKiPiEET0_T_S6_S5_
FN:115,_ZSt18uninitialized_copyIN9__gnu_cxx17__normal_iteratorIPKiSt6vectorIiSaIiEEEEPiET0_T_SA_S9_
FNDA:0,_ZSt18uninitialized_copyIN9__gnu_cxx17__normal_iteratorIPKiSt6vectorIiSaIiEEEEPiET0_T_SA_S9_
FN:115,_ZSt18uninitialized_copyIPKSt6vectorIiSaIiEEPS2_ET0_T_S7_S6_
FNDA:0,_ZSt18uninitialized_copyIPKSt6vectorIiSaIiEEPS2_ET0_T_S7_S6_
FN:115,_ZSt18uninitialized_copyIPKiPiET0_T_S4_S3_
FNDA:0,_ZSt18uninitialized_copyIPKiPiET0_T_S4_S3_
FN:287,_ZSt22__uninitialized_copy_aIN9__gnu_cxx17__normal_iteratorIPKiSt6vectorIiSaIiEEEEPiiET0_T_SA_S9_RSaIT1_E
FNDA:0,_ZSt22__uninitialized_copy_aIN9__gnu_cxx17__normal_iteratorIPKiSt6vectorIiSaIiEEEEPiiET0_T_SA_S9_RSaIT1_E
FN:287,_ZSt22__uninitialized_copy_aIPKSt6vectorIiSaIiEEPS2_S2_ET0_T_S7_S6_RSaIT1_E
FNDA:0,_ZSt22__uninitialized_copy_aIPKSt6vectorIiSaIiEEPS2_S2_ET0_T_S7_S6_RSaIT1_E
FN:287,_ZSt22__uninitialized_copy_aIPKiPiiET0_T_S4_S3_RSaIT1_E
FNDA:0,_ZSt22__uninitialized_copy_aIPKiPiiET0_T_S4_S3_RSaIT1_E
DA:76,0
DA:79,0
DA:82,0
DA:83,0
DA:84,0
DA:86,0
DA:88,0
DA:89,0
DA:99,0
DA:101,0
DA:99,0
DA:101,0
DA:115,0
DA:128,0
DA:134,0
DA:115,0
DA:128,0
DA:134,0
DA:115,0
DA:128,0
DA:134,0
DA:287,0
DA:289,0
DA:287,0
DA:289,0
DA:287,0
DA:289,0
end_of_record
SF:/usr/include/c++/9/new
FN:173,_ZnwmPv
FNDA:0,_ZnwmPv
FN:179,_ZdlPvS_
FNDA:0,_ZdlPvS_
DA:173,0
DA:174,0
DA:179,0
end_of_record
SF:/usr/include/c++/9/iostream
end_of_record
SF:/usr/include/c++/9/bits/stl_construct.h
FN:74,_ZSt10_ConstructISt6vectorIiSaIiEEJRKS2_EEvPT_DpOT0_
FNDA:0,_ZSt10_ConstructISt6vectorIiSaIiEEJRKS2_EEvPT_DpOT0_
FN:97,_ZSt8_DestroyISt6vectorIiSaIiEEEvPT_
FNDA:0,_ZSt8_DestroyISt6vectorIiSaIiEEEvPT_
FN:105,_ZNSt12_Destroy_auxILb0EE9__destroyIPSt6vectorIiSaIiEEEEvT_S6_
FNDA:0,_ZNSt12_Destroy_auxILb0EE9__destroyIPSt6vectorIiSaIiEEEEvT_S6_
FN:117,_ZNSt12_Destroy_auxILb1EE9__destroyIPiEEvT_S3_
FNDA:0,_ZNSt12_Destroy_auxILb1EE9__destroyIPiEEvT_S3_
FN:127,_ZSt8_DestroyIPiEvT_S1_
FNDA:0,_ZSt8_DestroyIPiEvT_S1_
FN:127,_ZSt8_DestroyIPSt6vectorIiSaIiEEEvT_S4_
FNDA:0,_ZSt8_DestroyIPSt6vectorIiSaIiEEEvT_S4_
FN:203,_ZSt8_DestroyIPiiEvT_S1_RSaIT0_E
FNDA:0,_ZSt8_DestroyIPiiEvT_S1_RSaIT0_E
FN:203,_ZSt8_DestroyIPSt6vectorIiSaIiEES2_EvT_S4_RSaIT0_E
FNDA:0,_ZSt8_DestroyIPSt6vectorIiSaIiEES2_EvT_S4_RSaIT0_E
DA:74,0
DA:75,0
DA:97,0
DA:98,0
DA:105,0
DA:107,0
DA:108,0
DA:109,0
DA:117,0
DA:127,0
DA:137,0
DA:138,0
DA:127,0
DA:137,0
DA:138,0
DA:203,0
DA:206,0
DA:207,0
DA:203,0
DA:206,0
DA:207,0
end_of_record
SF:/usr/include/c++/9/ext/new_allocator.h
FN:80,_ZN9__gnu_cxx13new_allocatorISt6vectorIiSaIiEEEC2Ev
FNDA:0,_ZN9__gnu_cxx13new_allocatorISt6vectorIiSaIiEEEC2Ev
FN:80,_ZN9__gnu_cxx13new_allocatorIiEC2Ev
FNDA:0,_ZN9__gnu_cxx13new_allocatorIiEC2Ev
FN:80,_ZN9__gnu_cxx13new_allocatorIcEC2Ev
FNDA:0,_ZN9__gnu_cxx13new_allocatorIcEC2Ev
FN:83,_ZN9__gnu_cxx13new_allocatorISt6vectorIiSaIiEEEC2ERKS4_
FNDA:0,_ZN9__gnu_cxx13new_allocatorISt6vectorIiSaIiEEEC2ERKS4_
FN:83,_ZN9__gnu_cxx13new_allocatorIiEC2ERKS1_
FNDA:0,_ZN9__gnu_cxx13new_allocatorIiEC2ERKS1_
FN:83,_ZN9__gnu_cxx13new_allocatorIcEC2ERKS1_
FNDA:0,_ZN9__gnu_cxx13new_allocatorIcEC2ERKS1_
FN:89,_ZN9__gnu_cxx13new_allocatorIiED2Ev
FNDA:0,_ZN9__gnu_cxx13new_allocatorIiED2Ev
FN:89,_ZN9__gnu_cxx13new_allocatorISt6vectorIiSaIiEEED2Ev
FNDA:0,_ZN9__gnu_cxx13new_allocatorISt6vectorIiSaIiEEED2Ev
FN:89,_ZN9__gnu_cxx13new_allocatorIcED2Ev
FNDA:0,_ZN9__gnu_cxx13new_allocatorIcED2Ev
FN:102,_ZN9__gnu_cxx13new_allocatorISt6vectorIiSaIiEEE8allocateEmPKv
FNDA:0,_ZN9__gnu_cxx13new_allocatorISt6vectorIiSaIiEEE8allocateEmPKv
FN:102,_ZN9__gnu_cxx13new_allocatorIiE8allocateEmPKv
FNDA:0,_ZN9__gnu_cxx13new_allocatorIiE8allocateEmPKv
FN:119,_ZN9__gnu_cxx13new_allocatorIiE10deallocateEPim
FNDA:0,_ZN9__gnu_cxx13new_allocatorIiE10deallocateEPim
FN:119,_ZN9__gnu_cxx13new_allocatorISt6vectorIiSaIiEEE10deallocateEPS3_m
FNDA:0,_ZN9__gnu_cxx13new_allocatorISt6vectorIiSaIiEEE10deallocateEPS3_m
FN:132,_ZNK9__gnu_cxx13new_allocatorISt6vectorIiSaIiEEE8max_sizeEv
FNDA:0,_ZNK9__gnu_cxx13new_allocatorISt6vectorIiSaIiEEE8max_sizeEv
FN:132,_ZNK9__gnu_cxx13new_allocatorIiE8max_sizeEv
FNDA:0,_ZNK9__gnu_cxx13new_allocatorIiE8max_sizeEv
DA:80,0
DA:80,0
DA:80,0
DA:83,0
DA:83,0
DA:83,0
DA:89,0
DA:89,0
DA:89,0
DA:102,0
DA:104,0
DA:105,0
DA:114,0
DA:102,0
DA:104,0
DA:105,0
DA:114,0
DA:119,0
DA:128,0
DA:129,0
DA:119,0
DA:128,0
DA:129,0
DA:132,0
DA:135,0
DA:132,0
DA:135,0
end_of_record
SF:/usr/include/c++/9/bits/stl_algobase.h
FN:198,_ZSt3minImERKT_S2_S2_
FNDA:0,_ZSt3minImERKT_S2_S2_
FN:280,_ZSt12__niter_baseIPiET_S1_
FNDA:0,_ZSt12__niter_baseIPiET_S1_
FN:280,_ZSt12__niter_baseIPKiET_S2_
FNDA:0,_ZSt12__niter_baseIPKiET_S2_
FN:295,_ZSt12__niter_wrapIPiET_RKS1_S1_
FNDA:0,_ZSt12__niter_wrapIPiET_RKS1_S1_
FN:375,_ZNSt11__copy_moveILb0ELb1ESt26random_access_iterator_tagE8__copy_mIiEEPT_PKS3_S6_S4_
FNDA:0,_ZNSt11__copy_moveILb0ELb1ESt26random_access_iterator_tagE8__copy_mIiEEPT_PKS3_S6_S4_
FN:393,_ZSt13__copy_move_aILb0EPKiPiET1_T0_S4_S3_
FNDA:0,_ZSt13__copy_move_aILb0EPKiPiET1_T0_S4_S3_
FN:438,_ZSt14__copy_move_a2ILb0EN9__gnu_cxx17__normal_iteratorIPKiSt6vectorIiSaIiEEEEPiET1_T0_SA_S9_
FNDA:0,_ZSt14__copy_move_a2ILb0EN9__gnu_cxx17__normal_iteratorIPKiSt6vectorIiSaIiEEEEPiET1_T0_SA_S9_
FN:438,_ZSt14__copy_move_a2ILb0EPKiPiET1_T0_S4_S3_
FNDA:0,_ZSt14__copy_move_a2ILb0EPKiPiET1_T0_S4_S3_
FN:465,_ZSt4copyIN9__gnu_cxx17__normal_iteratorIPKiSt6vectorIiSaIiEEEEPiET0_T_SA_S9_
FNDA:0,_ZSt4copyIN9__gnu_cxx17__normal_iteratorIPKiSt6vectorIiSaIiEEEEPiET0_T_SA_S9_
FN:465,_ZSt4copyIPKiPiET0_T_S4_S3_
FNDA:0,_ZSt4copyIPKiPiET0_T_S4_S3_
DA:198,0
DA:203,0
DA:204,0
DA:205,0
DA:280,0
DA:282,0
DA:280,0
DA:282,0
DA:295,0
DA:296,0
DA:375,0
DA:384,0
DA:385,0
DA:386,0
DA:387,0
DA:393,0
DA:398,0
DA:404,0
DA:438,0
DA:440,0
DA:443,0
DA:438,0
DA:440,0
DA:443,0
DA:465,0
DA:474,0
DA:465,0
DA:474,0
end_of_record
SF:/usr/include/c++/9/bits/cpp_type_traits.h
FN:428,_ZSt12__miter_baseIN9__gnu_cxx17__normal_iteratorIPKiSt6vectorIiSaIiEEEEET_S8_
FNDA:0,_ZSt12__miter_baseIN9__gnu_cxx17__normal_iteratorIPKiSt6vectorIiSaIiEEEEET_S8_
FN:428,_ZSt12__miter_baseIPKiET_S2_
FNDA:0,_ZSt12__miter_baseIPKiET_S2_
DA:428,0
DA:429,0
DA:428,0
DA:429,0
end_of_record
SF:/usr/include/c++/9/bits/stl_iterator_base_types.h
FN:205,_ZSt19__iterator_categoryIPcENSt15iterator_traitsIT_E17iterator_categoryERKS2_
FNDA:0,_ZSt19__iterator_categoryIPcENSt15iterator_traitsIT_E17iterator_categoryERKS2_
FN:205,_ZSt19__iterator_categoryIPKcENSt15iterator_traitsIT_E17iterator_categoryERKS3_
FNDA:0,_ZSt19__iterator_categoryIPKcENSt15iterator_traitsIT_E17iterator_categoryERKS3_
FN:205,_ZSt19__iterator_categoryIPKSt6vectorIiSaIiEEENSt15iterator_traitsIT_E17iterator_categoryERKS6_
FNDA:0,_ZSt19__iterator_categoryIPKSt6vectorIiSaIiEEENSt15iterator_traitsIT_E17iterator_categoryERKS6_
FN:205,_ZSt19__iterator_categoryIPKiENSt15iterator_traitsIT_E17iterator_categoryERKS3_
FNDA:0,_ZSt19__iterator_categoryIPKiENSt15iterator_traitsIT_E17iterator_categoryERKS3_
DA:205,0
DA:206,0
DA:205,0
DA:206,0
DA:205,0
DA:206,0
DA:205,0
DA:206,0
end_of_record
SF:/usr/include/c++/9/bits/basic_string.h
FN:243,_ZNSt7__cxx1112basic_stringIcSt11char_traitsIcESaIcEE16_M_construct_auxIPcEEvT_S7_St12__false_type
FNDA:0,_ZNSt7__cxx1112basic_stringIcSt11char_traitsIcESaIcEE16_M_construct_auxIPcEEvT_S7_St12__false_type
FN:243,_ZNSt7__cxx1112basic_stringIcSt11char_traitsIcESaIcEE16_M_construct_auxIPKcEEvT_S8_St12__false_type
FNDA:0,_ZNSt7__cxx1112basic_stringIcSt11char_traitsIcESaIcEE16_M_construct_auxIPKcEEvT_S8_St12__false_type
FN:263,_ZNSt7__cxx1112basic_stringIcSt11char_traitsIcESaIcEE12_M_constructIPcEEvT_S7_
FNDA:0,_ZNSt7__cxx1112basic_stringIcSt11char_traitsIcESaIcEE12_M_constructIPcEEvT_S7_
FN:263,_ZNSt7__cxx1112basic_stringIcSt11char_traitsIcESaIcEE12_M_constructIPKcEEvT_S8_
FNDA:0,_ZNSt7__cxx1112basic_stringIcSt11char_traitsIcESaIcEE12_M_constructIPKcEEvT_S8_
DA:243,0
DA:247,0
DA:248,0
DA:243,0
DA:247,0
DA:248,0
DA:263,0
DA:266,0
DA:267,0
DA:263,0
DA:266,0
DA:267,0
end_of_record
SF:/home/pato/TPIMorfMat/template-alumnos/lib/googletest-master/googletest/include/gtest/internal/gtest-internal.h
FN:448,_ZN7testing8internal15TestFactoryBaseD0Ev
FNDA:0,_ZN7testing8internal15TestFactoryBaseD0Ev
FN:448,_ZN7testing8internal15TestFactoryBaseD2Ev
FNDA:63,_ZN7testing8internal15TestFactoryBaseD2Ev
FN:455,_ZN7testing8internal15TestFactoryBaseC2Ev
FNDA:63,_ZN7testing8internal15TestFactoryBaseC2Ev
FN:466,_ZN7testing8internal15TestFactoryImplI45esImagenValidaTest_ImagenVaciaNoEsValida_TestE10CreateTestEv
FNDA:1,_ZN7testing8internal15TestFactoryImplI45esImagenValidaTest_ImagenVaciaNoEsValida_TestE10CreateTestEv
FN:466,_ZN7testing8internal15TestFactoryImplI50esImagenValidaTest_ImagenDeUnElementoEsValida_TestE10CreateTestEv
FNDA:1,_ZN7testing8internal15TestFactoryImplI50esImagenValidaTest_ImagenDeUnElementoEsValida_TestE10CreateTestEv
FN:466,_ZN7testing8internal15TestFactoryImplI68esImagenValidaTest_ImagenDeDosFilasDeDiferenteTamanioEsInvalida_TestE10CreateTestEv
FNDA:1,_ZN7testing8internal15TestFactoryImplI68esImagenValidaTest_ImagenDeDosFilasDeDiferenteTamanioEsInvalida_TestE10CreateTestEv
FN:466,_ZN7testing8internal15TestFactoryImplI70esImagenValidaTest_ImagenConMuchosElementoDistintoDe0o1EsInvalida_TestE10CreateTestEv
FNDA:1,_ZN7testing8internal15TestFactoryImplI70esImagenValidaTest_ImagenConMuchosElementoDistintoDe0o1EsInvalida_TestE10CreateTestEv
FN:466,_ZN7testing8internal15TestFactoryImplI48esImagenValidaTest_ImagenNoCuadradaEsValida_TestE10CreateTestEv
FNDA:1,_ZN7testing8internal15TestFactoryImplI48esImagenValidaTest_ImagenNoCuadradaEsValida_TestE10CreateTestEv
FN:487,_ZN7testing8internal12CodeLocationC2ERKNSt7__cxx1112basic_stringIcSt11char_traitsIcESaIcEEEi
FNDA:63,_ZN7testing8internal12CodeLocationC2ERKNSt7__cxx1112basic_stringIcSt11char_traitsIcESaIcEEEi
DA:448,0
DA:448,63
DA:455,63
DA:466,1
DA:466,1
DA:466,1
DA:466,1
DA:466,1
DA:487,63
DA:488,63
end_of_record
SF:/usr/include/c++/9/initializer_list
FN:71,_ZNKSt16initializer_listISt6vectorIiSaIiEEE4sizeEv
FNDA:0,_ZNKSt16initializer_listISt6vectorIiSaIiEEE4sizeEv
FN:71,_ZNKSt16initializer_listIiE4sizeEv
FNDA:0,_ZNKSt16initializer_listIiE4sizeEv
FN:75,_ZNKSt16initializer_listISt6vectorIiSaIiEEE5beginEv
FNDA:0,_ZNKSt16initializer_listISt6vectorIiSaIiEEE5beginEv
FN:75,_ZNKSt16initializer_listIiE5beginEv
FNDA:0,_ZNKSt16initializer_listIiE5beginEv
FN:79,_ZNKSt16initializer_listISt6vectorIiSaIiEEE3endEv
FNDA:0,_ZNKSt16initializer_listISt6vectorIiSaIiEEE3endEv
FN:79,_ZNKSt16initializer_listIiE3endEv
FNDA:0,_ZNKSt16initializer_listIiE3endEv
DA:71,0
DA:71,0
DA:75,0
DA:75,0
DA:79,0
DA:79,0
end_of_record
SF:/usr/include/c++/9/ext/alloc_traits.h
FN:97,_ZN9__gnu_cxx14__alloc_traitsISaIiEiE17_S_select_on_copyERKS1_
FNDA:0,_ZN9__gnu_cxx14__alloc_traitsISaIiEiE17_S_select_on_copyERKS1_
FN:97,_ZN9__gnu_cxx14__alloc_traitsISaIcEcE17_S_select_on_copyERKS1_
FNDA:0,_ZN9__gnu_cxx14__alloc_traitsISaIcEcE17_S_select_on_copyERKS1_
DA:97,0
DA:98,0
DA:97,0
DA:98,0
end_of_record
SF:/home/pato/TPIMorfMat/template-alumnos/lib/googletest-master/googletest/include/gtest/gtest.h
FN:286,_ZN7testing15AssertionResultC2IbEERKT_PNS_8internal8EnableIfIXntsrNS5_21ImplicitlyConvertibleIS2_S0_EE5valueEE4typeE
FNDA:63,_ZN7testing15AssertionResultC2IbEERKT_PNS_8internal8EnableIfIXntsrNS5_21ImplicitlyConvertibleIS2_S0_EE5valueEE4typeE
FN:304,_ZNK7testing15AssertionResultcvbEv
FNDA:63,_ZNK7testing15AssertionResultcvbEv
FN:414,_ZN7testing4Test13SetUpTestCaseEv
FNDA:6,_ZN7testing4Test13SetUpTestCaseEv
FN:422,_ZN7testing4Test16TearDownTestCaseEv
FNDA:6,_ZN7testing4Test16TearDownTestCaseEv
FN:499,_ZN7testing4Test5SetupEv
FNDA:0,_ZN7testing4Test5SetupEv
DA:286,63
DA:291,63
DA:304,63
DA:414,6
DA:422,6
DA:499,0
end_of_record
SF:/usr/include/c++/9/bits/move.h
FN:47,_ZSt11__addressofISt6vectorIiSaIiEEEPT_RS3_
FNDA:0,_ZSt11__addressofISt6vectorIiSaIiEEEPT_RS3_
FN:74,_ZSt7forwardIRKSt6vectorIiSaIiEEEOT_RNSt16remove_referenceIS5_E4typeE
FNDA:0,_ZSt7forwardIRKSt6vectorIiSaIiEEEOT_RNSt16remove_referenceIS5_E4typeE
FN:99,_ZSt4moveIRSaIcEEONSt16remove_referenceIT_E4typeEOS3_
FNDA:0,_ZSt4moveIRSaIcEEONSt16remove_referenceIT_E4typeEOS3_
DA:47,0
DA:48,0
DA:74,0
DA:75,0
DA:99,0
DA:100,0
end_of_record
SF:/usr/include/c++/9/bits/char_traits.h
FN:329,_ZNSt11char_traitsIcE6lengthEPKc
FNDA:0,_ZNSt11char_traitsIcE6lengthEPKc
DA:329,0
DA:335,0
end_of_record
SF:/usr/include/c++/9/bits/basic_string.tcc
FN:206,_ZNSt7__cxx1112basic_stringIcSt11char_traitsIcESaIcEE12_M_constructIPcEEvT_S7_St20forward_iterator_tag
FNDA:0,_ZNSt7__cxx1112basic_stringIcSt11char_traitsIcESaIcEE12_M_constructIPcEEvT_S7_St20forward_iterator_tag
FN:206,_ZNSt7__cxx1112basic_stringIcSt11char_traitsIcESaIcEE12_M_constructIPKcEEvT_S8_St20forward_iterator_tag
FNDA:0,_ZNSt7__cxx1112basic_stringIcSt11char_traitsIcESaIcEE12_M_constructIPKcEEvT_S8_St20forward_iterator_tag
DA:206,0
DA:211,0
DA:212,0
DA:215,0
DA:217,0
DA:219,0
DA:220,0
DA:225,0
DA:226,0
DA:228,0
DA:229,0
DA:232,0
DA:233,0
DA:206,0
DA:211,0
DA:212,0
DA:215,0
DA:217,0
DA:219,0
DA:220,0
DA:225,0
DA:226,0
DA:228,0
DA:229,0
DA:232,0
DA:233,0
end_of_record
SF:/home/pato/TPIMorfMat/template-alumnos/lib/googletest-master/googletest/include/gtest/internal/gtest-port.h
FN:1184,_ZN7testing8internal10scoped_ptrINSt7__cxx1112basic_stringIcSt11char_traitsIcESaIcEEEEC2EPS7_
FNDA:63,_ZN7testing8internal10scoped_ptrINSt7__cxx1112basic_stringIcSt11char_traitsIcESaIcEEEEC2EPS7_
FN:1185,_ZN7testing8internal10scoped_ptrINSt7__cxx1112basic_stringIcSt11char_traitsIcESaIcEEEED2Ev
FNDA:63,_ZN7testing8internal10scoped_ptrINSt7__cxx1112basic_stringIcSt11char_traitsIcESaIcEEEED2Ev
FN:1185,_ZN7testing8internal10scoped_ptrINSt7__cxx1118basic_stringstreamIcSt11char_traitsIcESaIcEEEED2Ev
FNDA:122,_ZN7testing8internal10scoped_ptrINSt7__cxx1118basic_stringstreamIcSt11char_traitsIcESaIcEEEED2Ev
FN:1197,_ZN7testing8internal10scoped_ptrINSt7__cxx1118basic_stringstreamIcSt11char_traitsIcESaIcEEEE5resetEPS7_
FNDA:122,_ZN7testing8internal10scoped_ptrINSt7__cxx1118basic_stringstreamIcSt11char_traitsIcESaIcEEEE5resetEPS7_
FN:1197,_ZN7testing8internal10scoped_ptrINSt7__cxx1112basic_stringIcSt11char_traitsIcESaIcEEEE5resetEPS7_
FNDA:63,_ZN7testing8internal10scoped_ptrINSt7__cxx1112basic_stringIcSt11char_traitsIcESaIcEEEE5resetEPS7_
DA:1184,63
DA:1185,63
DA:1185,122
DA:1197,122
DA:1198,122
DA:1199,122
DA:1200,122
DA:1202,122
DA:1204,122
DA:1197,63
DA:1198,63
DA:1199,0
DA:1200,0
DA:1202,0
DA:1204,63
end_of_record
SF:/home/pato/TPIMorfMat/template-alumnos/tests/ej1TEST.cpp
FN:4,_ZN45esImagenValidaTest_ImagenVaciaNoEsValida_Test8TestBodyEv
FNDA:1,_ZN45esImagenValidaTest_ImagenVaciaNoEsValida_Test8TestBodyEv
FN:4,_ZN45esImagenValidaTest_ImagenVaciaNoEsValida_TestC2Ev
FNDA:1,_ZN45esImagenValidaTest_ImagenVaciaNoEsValida_TestC2Ev
FN:9,_ZN50esImagenValidaTest_ImagenDeUnElementoEsValida_Test8TestBodyEv
FNDA:1,_ZN50esImagenValidaTest_ImagenDeUnElementoEsValida_Test8TestBodyEv
FN:9,_ZN50esImagenValidaTest_ImagenDeUnElementoEsValida_TestC2Ev
FNDA:1,_ZN50esImagenValidaTest_ImagenDeUnElementoEsValida_TestC2Ev
FN:14,_ZN68esImagenValidaTest_ImagenDeDosFilasDeDiferenteTamanioEsInvalida_Test8TestBodyEv
FNDA:1,_ZN68esImagenValidaTest_ImagenDeDosFilasDeDiferenteTamanioEsInvalida_Test8TestBodyEv
FN:14,_ZN68esImagenValidaTest_ImagenDeDosFilasDeDiferenteTamanioEsInvalida_TestC2Ev
FNDA:1,_ZN68esImagenValidaTest_ImagenDeDosFilasDeDiferenteTamanioEsInvalida_TestC2Ev
FN:19,_ZN70esImagenValidaTest_ImagenConMuchosElementoDistintoDe0o1EsInvalida_Test8TestBodyEv
FNDA:1,_ZN70esImagenValidaTest_ImagenConMuchosElementoDistintoDe0o1EsInvalida_Test8TestBodyEv
FN:19,_ZN70esImagenValidaTest_ImagenConMuchosElementoDistintoDe0o1EsInvalida_TestC2Ev
FNDA:1,_ZN70esImagenValidaTest_ImagenConMuchosElementoDistintoDe0o1EsInvalida_TestC2Ev
FN:24,_ZN48esImagenValidaTest_ImagenNoCuadradaEsValida_Test8TestBodyEv
FNDA:1,_ZN48esImagenValidaTest_ImagenNoCuadradaEsValida_Test8TestBodyEv
FN:24,_ZN48esImagenValidaTest_ImagenNoCuadradaEsValida_TestC2Ev
FNDA:1,_ZN48esImagenValidaTest_ImagenNoCuadradaEsValida_TestC2Ev
DA:4,1
DA:5,2
DA:6,1
DA:7,1
DA:4,1
DA:9,1
DA:10,5
DA:11,1
DA:12,1
DA:9,1
DA:14,1
DA:15,6
DA:16,1
DA:17,1
DA:14,1
DA:19,1
DA:20,7
DA:21,1
DA:22,1
DA:19,1
DA:24,1
DA:32,10
DA:33,1
DA:34,1
DA:24,1
end_of_record
SF:/usr/include/c++/9/ext/type_traits.h
FN:152,_ZN9__gnu_cxx17__is_null_pointerIcEEbPT_
FNDA:0,_ZN9__gnu_cxx17__is_null_pointerIcEEbPT_
FN:152,_ZN9__gnu_cxx17__is_null_pointerIKcEEbPT_
FNDA:0,_ZN9__gnu_cxx17__is_null_pointerIKcEEbPT_
DA:152,0
DA:153,0
DA:152,0
DA:153,0
end_of_record
SF:/usr/include/c++/9/bits/stl_vector.h
FN:94,_ZNSt12_Vector_baseISt6vectorIiSaIiEESaIS2_EE17_Vector_impl_dataC2Ev
FNDA:0,_ZNSt12_Vector_baseISt6vectorIiSaIiEESaIS2_EE17_Vector_impl_dataC2Ev
FN:94,_ZNSt12_Vector_baseIiSaIiEE17_Vector_impl_dataC2Ev
FNDA:0,_ZNSt12_Vector_baseIiSaIiEE17_Vector_impl_dataC2Ev
FN:128,_ZNSt12_Vector_baseISt6vectorIiSaIiEESaIS2_EE12_Vector_implC2Ev
FNDA:0,_ZNSt12_Vector_baseISt6vectorIiSaIiEESaIS2_EE12_Vector_implC2Ev
FN:133,_ZNSt12_Vector_baseIiSaIiEE12_Vector_implC2ERKS0_
FNDA:0,_ZNSt12_Vector_baseIiSaIiEE12_Vector_implC2ERKS0_
FN:133,_ZNSt12_Vector_baseISt6vectorIiSaIiEESaIS2_EE12_Vector_implC2ERKS3_
FNDA:0,_ZNSt12_Vector_baseISt6vectorIiSaIiEESaIS2_EE12_Vector_implC2ERKS3_
FN:273,_ZNSt12_Vector_baseISt6vectorIiSaIiEESaIS2_EE19_M_get_Tp_allocatorEv
FNDA:0,_ZNSt12_Vector_baseISt6vectorIiSaIiEESaIS2_EE19_M_get_Tp_allocatorEv
FN:273,_ZNSt12_Vector_baseIiSaIiEE19_M_get_Tp_allocatorEv
FNDA:0,_ZNSt12_Vector_baseIiSaIiEE19_M_get_Tp_allocatorEv
FN:277,_ZNKSt12_Vector_baseIiSaIiEE19_M_get_Tp_allocatorEv
FNDA:0,_ZNKSt12_Vector_baseIiSaIiEE19_M_get_Tp_allocatorEv
FN:285,_ZNSt12_Vector_baseISt6vectorIiSaIiEESaIS2_EEC2Ev
FNDA:0,_ZNSt12_Vector_baseISt6vectorIiSaIiEESaIS2_EEC2Ev
FN:290,_ZNSt12_Vector_baseISt6vectorIiSaIiEESaIS2_EEC2ERKS3_
FNDA:0,_ZNSt12_Vector_baseISt6vectorIiSaIiEESaIS2_EEC2ERKS3_
FN:290,_ZNSt12_Vector_baseIiSaIiEEC2ERKS0_
FNDA:0,_ZNSt12_Vector_baseIiSaIiEEC2ERKS0_
FN:300,_ZNSt12_Vector_baseIiSaIiEEC2EmRKS0_
FNDA:0,_ZNSt12_Vector_baseIiSaIiEEC2EmRKS0_
FN:330,_ZNSt12_Vector_baseISt6vectorIiSaIiEESaIS2_EED2Ev
FNDA:0,_ZNSt12_Vector_baseISt6vectorIiSaIiEESaIS2_EED2Ev
FN:330,_ZNSt12_Vector_baseIiSaIiEED2Ev
FNDA:0,_ZNSt12_Vector_baseIiSaIiEED2Ev
FN:340,_ZNSt12_Vector_baseIiSaIiEE11_M_allocateEm
FNDA:0,_ZNSt12_Vector_baseIiSaIiEE11_M_allocateEm
FN:340,_ZNSt12_Vector_baseISt6vectorIiSaIiEESaIS2_EE11_M_allocateEm
FNDA:0,_ZNSt12_Vector_baseISt6vectorIiSaIiEESaIS2_EE11_M_allocateEm
FN:347,_ZNSt12_Vector_baseIiSaIiEE13_M_deallocateEPim
FNDA:0,_ZNSt12_Vector_baseIiSaIiEE13_M_deallocateEPim
FN:347,_ZNSt12_Vector_baseISt6vectorIiSaIiEESaIS2_EE13_M_deallocateEPS2_m
FNDA:0,_ZNSt12_Vector_baseISt6vectorIiSaIiEESaIS2_EE13_M_deallocateEPS2_m
FN:356,_ZNSt12_Vector_baseIiSaIiEE17_M_create_storageEm
FNDA:0,_ZNSt12_Vector_baseIiSaIiEE17_M_create_storageEm
FN:484,_ZNSt6vectorIS_IiSaIiEESaIS1_EEC2Ev
FNDA:0,_ZNSt6vectorIS_IiSaIiEESaIS1_EEC2Ev
FN:550,_ZNSt6vectorIiSaIiEEC2ERKS1_
FNDA:0,_ZNSt6vectorIiSaIiEEC2ERKS1_
FN:622,_ZNSt6vectorIiSaIiEEC2ESt16initializer_listIiERKS0_
FNDA:0,_ZNSt6vectorIiSaIiEEC2ESt16initializer_listIiERKS0_
FN:622,_ZNSt6vectorIS_IiSaIiEESaIS1_EEC2ESt16initializer_listIS1_ERKS2_
FNDA:75,_ZNSt6vectorIS_IiSaIiEESaIS1_EEC2ESt16initializer_listIS1_ERKS2_
FN:675,_ZNSt6vectorIiSaIiEED2Ev
FNDA:0,_ZNSt6vectorIiSaIiEED2Ev
FN:675,_ZNSt6vectorIS_IiSaIiEESaIS1_EED2Ev
FNDA:0,_ZNSt6vectorIS_IiSaIiEESaIS1_EED2Ev
FN:817,_ZNKSt6vectorIiSaIiEE5beginEv
FNDA:0,_ZNKSt6vectorIiSaIiEE5beginEv
FN:835,_ZNKSt6vectorIiSaIiEE3endEv
FNDA:0,_ZNKSt6vectorIiSaIiEE3endEv
FN:915,_ZNKSt6vectorIiSaIiEE4sizeEv
FNDA:0,_ZNKSt6vectorIiSaIiEE4sizeEv
FN:1574,_ZNSt6vectorIiSaIiEE19_M_range_initializeIPKiEEvT_S5_St20forward_iterator_tag
FNDA:0,_ZNSt6vectorIiSaIiEE19_M_range_initializeIPKiEEvT_S5_St20forward_iterator_tag
FN:1574,_ZNSt6vectorIS_IiSaIiEESaIS1_EE19_M_range_initializeIPKS1_EEvT_S7_St20forward_iterator_tag
FNDA:75,_ZNSt6vectorIS_IiSaIiEESaIS1_EE19_M_range_initializeIPKS1_EEvT_S7_St20forward_iterator_tag
FN:1764,_ZNSt6vectorIiSaIiEE17_S_check_init_lenEmRKS0_
FNDA:0,_ZNSt6vectorIiSaIiEE17_S_check_init_lenEmRKS0_
FN:1764,_ZNSt6vectorIS_IiSaIiEESaIS1_EE17_S_check_init_lenEmRKS2_
FNDA:0,_ZNSt6vectorIS_IiSaIiEESaIS1_EE17_S_check_init_lenEmRKS2_
FN:1773,_ZNSt6vectorIiSaIiEE11_S_max_sizeERKS0_
FNDA:0,_ZNSt6vectorIiSaIiEE11_S_max_sizeERKS0_
FN:1773,_ZNSt6vectorIS_IiSaIiEESaIS1_EE11_S_max_sizeERKS2_
FNDA:0,_ZNSt6vectorIS_IiSaIiEESaIS1_EE11_S_max_sizeERKS2_
DA:94,0
DA:95,0
DA:96,0
DA:94,0
DA:95,0
DA:96,0
DA:128,0
DA:130,0
DA:131,0
DA:133,0
DA:134,0
DA:135,0
DA:133,0
DA:134,0
DA:135,0
DA:273,0
DA:274,0
DA:273,0
DA:274,0
DA:277,0
DA:278,0
DA:285,0
DA:290,0
DA:291,0
DA:290,0
DA:291,0
DA:300,0
DA:301,0
DA:302,0
DA:330,0
DA:332,0
DA:333,0
DA:334,0
DA:330,0
DA:332,0
DA:333,0
DA:334,0
DA:340,0
DA:343,0
DA:340,0
DA:343,0
DA:347,0
DA:350,0
DA:351,0
DA:352,0
DA:347,0
DA:350,0
DA:351,0
DA:352,0
DA:356,0
DA:358,0
DA:359,0
DA:360,0
DA:361,0
DA:484,0
DA:550,0
DA:552,0
DA:554,0
DA:555,0
DA:557,0
DA:558,0
DA:622,75
DA:624,75
DA:626,75
DA:628,75
DA:622,0
DA:624,0
DA:626,0
DA:628,0
DA:675,0
DA:677,0
DA:678,0
DA:680,0
DA:675,0
DA:677,0
DA:678,0
DA:680,0
DA:817,0
DA:818,0
DA:835,0
DA:836,0
DA:915,0
DA:916,0
DA:1574,75
DA:1577,75
DA:1578,75
DA:1579,75
DA:1580,75
DA:1581,75
DA:1582,75
DA:1584,75
DA:1585,75
DA:1574,0
DA:1577,0
DA:1578,0
DA:1579,0
DA:1580,0
DA:1581,0
DA:1582,0
DA:1584,0
DA:1585,0
DA:1764,0
DA:1766,0
DA:1767,0
DA:1769,0
DA:1764,0
DA:1766,0
DA:1767,0
DA:1769,0
DA:1773,0
DA:1778,0
DA:1780,0
DA:1781,0
DA:1773,0
DA:1778,0
DA:1780,0
DA:1781,0
end_of_record
SF:/usr/include/c++/9/bits/stl_iterator.h
FN:806,_ZN9__gnu_cxx17__normal_iteratorIPKiSt6vectorIiSaIiEEEC2ERKS2_
FNDA:0,_ZN9__gnu_cxx17__normal_iteratorIPKiSt6vectorIiSaIiEEEC2ERKS2_
FN:871,_ZNK9__gnu_cxx17__normal_iteratorIPKiSt6vectorIiSaIiEEE4baseEv
FNDA:0,_ZNK9__gnu_cxx17__normal_iteratorIPKiSt6vectorIiSaIiEEE4baseEv
FN:1010,_ZSt12__niter_baseIPKiSt6vectorIiSaIiEEET_N9__gnu_cxx17__normal_iteratorIS5_T0_EE
FNDA:0,_ZSt12__niter_baseIPKiSt6vectorIiSaIiEEET_N9__gnu_cxx17__normal_iteratorIS5_T0_EE
DA:806,0
DA:807,0
DA:871,0
DA:872,0
DA:1010,0
DA:1012,0
end_of_record
SF:/usr/include/c++/9/bits/allocator.h
FN:138,_ZNSaISt6vectorIiSaIiEEEC2Ev
FNDA:0,_ZNSaISt6vectorIiSaIiEEEC2Ev
FN:138,_ZNSaIiEC2Ev
FNDA:0,_ZNSaIiEC2Ev
FN:141,_ZNSaISt6vectorIiSaIiEEEC2ERKS2_
FNDA:0,_ZNSaISt6vectorIiSaIiEEEC2ERKS2_
FN:141,_ZNSaIiEC2ERKS_
FNDA:0,_ZNSaIiEC2ERKS_
FN:153,_ZNSaIiED2Ev
FNDA:0,_ZNSaIiED2Ev
FN:153,_ZNSaISt6vectorIiSaIiEEED2Ev
FNDA:0,_ZNSaISt6vectorIiSaIiEEED2Ev
DA:138,0
DA:138,0
DA:141,0
DA:142,0
DA:141,0
DA:142,0
DA:153,0
DA:153,0
end_of_record
SF:/usr/include/c++/9/bits/alloc_traits.h
FN:443,_ZNSt16allocator_traitsISaISt6vectorIiSaIiEEEE8allocateERS3_m
FNDA:0,_ZNSt16allocator_traitsISaISt6vectorIiSaIiEEEE8allocateERS3_m
FN:443,_ZNSt16allocator_traitsISaIiEE8allocateERS0_m
FNDA:0,_ZNSt16allocator_traitsISaIiEE8allocateERS0_m
FN:469,_ZNSt16allocator_traitsISaIiEE10deallocateERS0_Pim
FNDA:0,_ZNSt16allocator_traitsISaIiEE10deallocateERS0_Pim
FN:469,_ZNSt16allocator_traitsISaISt6vectorIiSaIiEEEE10deallocateERS3_PS2_m
FNDA:0,_ZNSt16allocator_traitsISaISt6vectorIiSaIiEEEE10deallocateERS3_PS2_m
FN:505,_ZNSt16allocator_traitsISaISt6vectorIiSaIiEEEE8max_sizeERKS3_
FNDA:0,_ZNSt16allocator_traitsISaISt6vectorIiSaIiEEEE8max_sizeERKS3_
FN:505,_ZNSt16allocator_traitsISaIiEE8max_sizeERKS0_
FNDA:0,_ZNSt16allocator_traitsISaIiEE8max_sizeERKS0_
FN:514,_ZNSt16allocator_traitsISaIiEE37select_on_container_copy_constructionERKS0_
FNDA:0,_ZNSt16allocator_traitsISaIiEE37select_on_container_copy_constructionERKS0_
FN:514,_ZNSt16allocator_traitsISaIcEE37select_on_container_copy_constructionERKS0_
FNDA:0,_ZNSt16allocator_traitsISaIcEE37select_on_container_copy_constructionERKS0_
DA:443,0
DA:444,0
DA:443,0
DA:444,0
DA:469,0
DA:470,0
DA:469,0
DA:470,0
DA:505,0
DA:506,0
DA:505,0
DA:506,0
DA:514,0
DA:515,0
DA:514,0
DA:515,0
end_of_record
SF:/home/pato/TPIMorfMat/template-alumnos/lib/googletest-master/googletest/include/gtest/gtest-message.h
end_of_record
SF:/usr/include/c++/9/bits/stl_iterator_base_funcs.h
FN:98,_ZSt10__distanceIPcENSt15iterator_traitsIT_E15difference_typeES2_S2_St26random_access_iterator_tag
FNDA:0,_ZSt10__distanceIPcENSt15iterator_traitsIT_E15difference_typeES2_S2_St26random_access_iterator_tag
FN:98,_ZSt10__distanceIPKcENSt15iterator_traitsIT_E15difference_typeES3_S3_St26random_access_iterator_tag
FNDA:0,_ZSt10__distanceIPKcENSt15iterator_traitsIT_E15difference_typeES3_S3_St26random_access_iterator_tag
FN:98,_ZSt10__distanceIPKSt6vectorIiSaIiEEENSt15iterator_traitsIT_E15difference_typeES6_S6_St26random_access_iterator_tag
FNDA:0,_ZSt10__distanceIPKSt6vectorIiSaIiEEENSt15iterator_traitsIT_E15difference_typeES6_S6_St26random_access_iterator_tag
FN:98,_ZSt10__distanceIPKiENSt15iterator_traitsIT_E15difference_typeES3_S3_St26random_access_iterator_tag
FNDA:0,_ZSt10__distanceIPKiENSt15iterator_traitsIT_E15difference_typeES3_S3_St26random_access_iterator_tag
FN:138,_ZSt8distanceIPcENSt15iterator_traitsIT_E15difference_typeES2_S2_
FNDA:0,_ZSt8distanceIPcENSt15iterator_traitsIT_E15difference_typeES2_S2_
FN:138,_ZSt8distanceIPKcENSt15iterator_traitsIT_E15difference_typeES3_S3_
FNDA:0,_ZSt8distanceIPKcENSt15iterator_traitsIT_E15difference_typeES3_S3_
FN:138,_ZSt8distanceIPKSt6vectorIiSaIiEEENSt15iterator_traitsIT_E15difference_typeES6_S6_
FNDA:0,_ZSt8distanceIPKSt6vectorIiSaIiEEENSt15iterator_traitsIT_E15difference_typeES6_S6_
FN:138,_ZSt8distanceIPKiENSt15iterator_traitsIT_E15difference_typeES3_S3_
FNDA:0,_ZSt8distanceIPKiENSt15iterator_traitsIT_E15difference_typeES3_S3_
DA:98,0
DA:104,0
DA:98,0
DA:104,0
DA:98,0
DA:104,0
DA:98,0
DA:104,0
DA:138,0
DA:141,0
DA:142,0
DA:138,0
DA:141,0
DA:142,0
DA:138,0
DA:141,0
DA:142,0
DA:138,0
DA:141,0
DA:142,0
end_of_record
TN:
SF:/usr/include/c++/9/initializer_list
FN:71,_ZNKSt16initializer_listISt6vectorIiSaIiEEE4sizeEv
FNDA:0,_ZNKSt16initializer_listISt6vectorIiSaIiEEE4sizeEv
FN:71,_ZNKSt16initializer_listIiE4sizeEv
FNDA:0,_ZNKSt16initializer_listIiE4sizeEv
FN:75,_ZNKSt16initializer_listISt6vectorIiSaIiEEE5beginEv
FNDA:0,_ZNKSt16initializer_listISt6vectorIiSaIiEEE5beginEv
FN:75,_ZNKSt16initializer_listIiE5beginEv
FNDA:0,_ZNKSt16initializer_listIiE5beginEv
FN:79,_ZNKSt16initializer_listISt6vectorIiSaIiEEE3endEv
FNDA:0,_ZNKSt16initializer_listISt6vectorIiSaIiEEE3endEv
FN:79,_ZNKSt16initializer_listIiE3endEv
FNDA:0,_ZNKSt16initializer_listIiE3endEv
DA:71,0
DA:71,0
DA:75,0
DA:75,0
DA:79,0
DA:79,0
end_of_record
SF:/home/pato/TPIMorfMat/template-alumnos/lib/googletest-master/googletest/include/gtest/internal/gtest-internal.h
FN:448,_ZN7testing8internal15TestFactoryBaseD0Ev
FNDA:0,_ZN7testing8internal15TestFactoryBaseD0Ev
FN:448,_ZN7testing8internal15TestFactoryBaseD2Ev
FNDA:0,_ZN7testing8internal15TestFactoryBaseD2Ev
FN:455,_ZN7testing8internal15TestFactoryBaseC2Ev
FNDA:0,_ZN7testing8internal15TestFactoryBaseC2Ev
FN:466,_ZN7testing8internal15TestFactoryImplI48calcularContornoTest_CalcularContorno8Adyv1_TestE10CreateTestEv
FNDA:1,_ZN7testing8internal15TestFactoryImplI48calcularContornoTest_CalcularContorno8Adyv1_TestE10CreateTestEv
FN:466,_ZN7testing8internal15TestFactoryImplI48calcularContornoTest_CalcularContorno4Adyv1_TestE10CreateTestEv
FNDA:1,_ZN7testing8internal15TestFactoryImplI48calcularContornoTest_CalcularContorno4Adyv1_TestE10CreateTestEv
FN:466,_ZN7testing8internal15TestFactoryImplI48calcularContornoTest_CalcularContorno4Adyv2_TestE10CreateTestEv
FNDA:1,_ZN7testing8internal15TestFactoryImplI48calcularContornoTest_CalcularContorno4Adyv2_TestE10CreateTestEv
FN:466,_ZN7testing8internal15TestFactoryImplI48calcularContornoTest_CalcularContorno8Adyv2_TestE10CreateTestEv
FNDA:1,_ZN7testing8internal15TestFactoryImplI48calcularContornoTest_CalcularContorno8Adyv2_TestE10CreateTestEv
FN:487,_ZN7testing8internal12CodeLocationC2ERKNSt7__cxx1112basic_stringIcSt11char_traitsIcESaIcEEEi
FNDA:0,_ZN7testing8internal12CodeLocationC2ERKNSt7__cxx1112basic_stringIcSt11char_traitsIcESaIcEEEi
DA:448,0
DA:448,0
DA:455,0
DA:466,1
DA:466,1
DA:466,1
DA:466,1
DA:487,0
DA:488,0
end_of_record
SF:/usr/include/c++/9/bits/basic_string.h
FN:243,_ZNSt7__cxx1112basic_stringIcSt11char_traitsIcESaIcEE16_M_construct_auxIPcEEvT_S7_St12__false_type
FNDA:0,_ZNSt7__cxx1112basic_stringIcSt11char_traitsIcESaIcEE16_M_construct_auxIPcEEvT_S7_St12__false_type
FN:243,_ZNSt7__cxx1112basic_stringIcSt11char_traitsIcESaIcEE16_M_construct_auxIPKcEEvT_S8_St12__false_type
FNDA:0,_ZNSt7__cxx1112basic_stringIcSt11char_traitsIcESaIcEE16_M_construct_auxIPKcEEvT_S8_St12__false_type
FN:263,_ZNSt7__cxx1112basic_stringIcSt11char_traitsIcESaIcEE12_M_constructIPcEEvT_S7_
FNDA:0,_ZNSt7__cxx1112basic_stringIcSt11char_traitsIcESaIcEE12_M_constructIPcEEvT_S7_
FN:263,_ZNSt7__cxx1112basic_stringIcSt11char_traitsIcESaIcEE12_M_constructIPKcEEvT_S8_
FNDA:0,_ZNSt7__cxx1112basic_stringIcSt11char_traitsIcESaIcEE12_M_constructIPKcEEvT_S8_
DA:243,0
DA:247,0
DA:248,0
DA:243,0
DA:247,0
DA:248,0
DA:263,0
DA:266,0
DA:267,0
DA:263,0
DA:266,0
DA:267,0
end_of_record
SF:/usr/include/c++/9/bits/stl_iterator_base_types.h
FN:205,_ZSt19__iterator_categoryIPcENSt15iterator_traitsIT_E17iterator_categoryERKS2_
FNDA:0,_ZSt19__iterator_categoryIPcENSt15iterator_traitsIT_E17iterator_categoryERKS2_
FN:205,_ZSt19__iterator_categoryIPKcENSt15iterator_traitsIT_E17iterator_categoryERKS3_
FNDA:0,_ZSt19__iterator_categoryIPKcENSt15iterator_traitsIT_E17iterator_categoryERKS3_
FN:205,_ZSt19__iterator_categoryIPKSt6vectorIiSaIiEEENSt15iterator_traitsIT_E17iterator_categoryERKS6_
FNDA:0,_ZSt19__iterator_categoryIPKSt6vectorIiSaIiEEENSt15iterator_traitsIT_E17iterator_categoryERKS6_
FN:205,_ZSt19__iterator_categoryIPKiENSt15iterator_traitsIT_E17iterator_categoryERKS3_
FNDA:0,_ZSt19__iterator_categoryIPKiENSt15iterator_traitsIT_E17iterator_categoryERKS3_
DA:205,0
DA:206,0
DA:205,0
DA:206,0
DA:205,0
DA:206,0
DA:205,0
DA:206,0
end_of_record
SF:/usr/include/c++/9/bits/stl_algo.h
FN:78,_ZSt22__move_median_to_firstIN9__gnu_cxx17__normal_iteratorIPSt6vectorIiSaIiEES2_IS4_SaIS4_EEEENS0_5__ops15_Iter_less_iterEEvT_SB_SB_SB_T0_
FNDA:0,_ZSt22__move_median_to_firstIN9__gnu_cxx17__normal_iteratorIPSt6vectorIiSaIiEES2_IS4_SaIS4_EEEENS0_5__ops15_Iter_less_iterEEvT_SB_SB_SB_T0_
FN:1667,_ZSt13__heap_selectIN9__gnu_cxx17__normal_iteratorIPSt6vectorIiSaIiEES2_IS4_SaIS4_EEEENS0_5__ops15_Iter_less_iterEEvT_SB_SB_T0_
FNDA:0,_ZSt13__heap_selectIN9__gnu_cxx17__normal_iteratorIPSt6vectorIiSaIiEES2_IS4_SaIS4_EEEENS0_5__ops15_Iter_less_iterEEvT_SB_SB_T0_
FN:1820,_ZSt25__unguarded_linear_insertIN9__gnu_cxx17__normal_iteratorIPSt6vectorIiSaIiEES2_IS4_SaIS4_EEEENS0_5__ops14_Val_less_iterEEvT_T0_
FNDA:0,_ZSt25__unguarded_linear_insertIN9__gnu_cxx17__normal_iteratorIPSt6vectorIiSaIiEES2_IS4_SaIS4_EEEENS0_5__ops14_Val_less_iterEEvT_T0_
FN:1839,_ZSt16__insertion_sortIN9__gnu_cxx17__normal_iteratorIPSt6vectorIiSaIiEES2_IS4_SaIS4_EEEENS0_5__ops15_Iter_less_iterEEvT_SB_T0_
FNDA:0,_ZSt16__insertion_sortIN9__gnu_cxx17__normal_iteratorIPSt6vectorIiSaIiEES2_IS4_SaIS4_EEEENS0_5__ops15_Iter_less_iterEEvT_SB_T0_
FN:1862,_ZSt26__unguarded_insertion_sortIN9__gnu_cxx17__normal_iteratorIPSt6vectorIiSaIiEES2_IS4_SaIS4_EEEENS0_5__ops15_Iter_less_iterEEvT_SB_T0_
FNDA:0,_ZSt26__unguarded_insertion_sortIN9__gnu_cxx17__normal_iteratorIPSt6vectorIiSaIiEES2_IS4_SaIS4_EEEENS0_5__ops15_Iter_less_iterEEvT_SB_T0_
FN:1879,_ZSt22__final_insertion_sortIN9__gnu_cxx17__normal_iteratorIPSt6vectorIiSaIiEES2_IS4_SaIS4_EEEENS0_5__ops15_Iter_less_iterEEvT_SB_T0_
FNDA:0,_ZSt22__final_insertion_sortIN9__gnu_cxx17__normal_iteratorIPSt6vectorIiSaIiEES2_IS4_SaIS4_EEEENS0_5__ops15_Iter_less_iterEEvT_SB_T0_
FN:1895,_ZSt21__unguarded_partitionIN9__gnu_cxx17__normal_iteratorIPSt6vectorIiSaIiEES2_IS4_SaIS4_EEEENS0_5__ops15_Iter_less_iterEET_SB_SB_SB_T0_
FNDA:0,_ZSt21__unguarded_partitionIN9__gnu_cxx17__normal_iteratorIPSt6vectorIiSaIiEES2_IS4_SaIS4_EEEENS0_5__ops15_Iter_less_iterEET_SB_SB_SB_T0_
FN:1916,_ZSt27__unguarded_partition_pivotIN9__gnu_cxx17__normal_iteratorIPSt6vectorIiSaIiEES2_IS4_SaIS4_EEEENS0_5__ops15_Iter_less_iterEET_SB_SB_T0_
FNDA:0,_ZSt27__unguarded_partition_pivotIN9__gnu_cxx17__normal_iteratorIPSt6vectorIiSaIiEES2_IS4_SaIS4_EEEENS0_5__ops15_Iter_less_iterEET_SB_SB_T0_
FN:1927,_ZSt14__partial_sortIN9__gnu_cxx17__normal_iteratorIPSt6vectorIiSaIiEES2_IS4_SaIS4_EEEENS0_5__ops15_Iter_less_iterEEvT_SB_SB_T0_
FNDA:0,_ZSt14__partial_sortIN9__gnu_cxx17__normal_iteratorIPSt6vectorIiSaIiEES2_IS4_SaIS4_EEEENS0_5__ops15_Iter_less_iterEEvT_SB_SB_T0_
FN:1939,_ZSt16__introsort_loopIN9__gnu_cxx17__normal_iteratorIPSt6vectorIiSaIiEES2_IS4_SaIS4_EEEElNS0_5__ops15_Iter_less_iterEEvT_SB_T0_T1_
FNDA:0,_ZSt16__introsort_loopIN9__gnu_cxx17__normal_iteratorIPSt6vectorIiSaIiEES2_IS4_SaIS4_EEEElNS0_5__ops15_Iter_less_iterEEvT_SB_T0_T1_
FN:1962,_ZSt6__sortIN9__gnu_cxx17__normal_iteratorIPSt6vectorIiSaIiEES2_IS4_SaIS4_EEEENS0_5__ops15_Iter_less_iterEEvT_SB_T0_
FNDA:0,_ZSt6__sortIN9__gnu_cxx17__normal_iteratorIPSt6vectorIiSaIiEES2_IS4_SaIS4_EEEENS0_5__ops15_Iter_less_iterEEvT_SB_T0_
FN:4855,_ZSt4sortIN9__gnu_cxx17__normal_iteratorIPSt6vectorIiSaIiEES2_IS4_SaIS4_EEEEEvT_S9_
FNDA:0,_ZSt4sortIN9__gnu_cxx17__normal_iteratorIPSt6vectorIiSaIiEES2_IS4_SaIS4_EEEEEvT_S9_
DA:78,0
DA:81,0
DA:83,0
DA:84,0
DA:85,0
DA:86,0
DA:88,0
DA:90,0
DA:91,0
DA:92,0
DA:93,0
DA:95,0
DA:96,0
DA:1667,0
DA:1671,0
DA:1672,0
DA:1673,0
DA:1674,0
DA:1675,0
DA:1820,0
DA:1824,0
DA:1825,0
DA:1826,0
DA:1827,0
DA:1829,0
DA:1830,0
DA:1831,0
DA:1833,0
DA:1834,0
DA:1839,0
DA:1842,0
DA:1844,0
DA:1846,0
DA:1849,0
DA:1850,0
DA:1851,0
DA:1854,0
DA:1855,0
DA:1862,0
DA:1865,0
DA:1866,0
DA:1867,0
DA:1868,0
DA:1879,0
DA:1882,0
DA:1884,0
DA:1885,0
DA:1889,0
DA:1890,0
DA:1895,0
DA:1901,0
DA:1902,0
DA:1903,0
DA:1904,0
DA:1905,0
DA:1906,0
DA:1907,0
DA:1908,0
DA:1909,0
DA:1916,0
DA:1919,0
DA:1920,0
DA:1922,0
DA:1927,0
DA:1932,0
DA:1933,0
DA:1934,0
DA:1939,0
DA:1943,0
DA:1945,0
DA:1947,0
DA:1948,0
DA:1950,0
DA:1952,0
DA:1953,0
DA:1954,0
DA:1962,0
DA:1965,0
DA:1967,0
DA:1968,0
DA:1970,0
DA:1972,0
DA:4855,0
DA:4865,0
DA:4866,0
end_of_record
SF:/usr/include/c++/9/ext/alloc_traits.h
FN:97,_ZN9__gnu_cxx14__alloc_traitsISaIiEiE17_S_select_on_copyERKS1_
FNDA:0,_ZN9__gnu_cxx14__alloc_traitsISaIiEiE17_S_select_on_copyERKS1_
FN:97,_ZN9__gnu_cxx14__alloc_traitsISaISt6vectorIiSaIiEEES3_E17_S_select_on_copyERKS4_
FNDA:0,_ZN9__gnu_cxx14__alloc_traitsISaISt6vectorIiSaIiEEES3_E17_S_select_on_copyERKS4_
FN:97,_ZN9__gnu_cxx14__alloc_traitsISaIcEcE17_S_select_on_copyERKS1_
FNDA:0,_ZN9__gnu_cxx14__alloc_traitsISaIcEcE17_S_select_on_copyERKS1_
FN:100,_ZN9__gnu_cxx14__alloc_traitsISaIiEiE10_S_on_swapERS1_S3_
FNDA:0,_ZN9__gnu_cxx14__alloc_traitsISaIiEiE10_S_on_swapERS1_S3_
DA:97,0
DA:98,0
DA:97,0
DA:98,0
DA:97,0
DA:98,0
DA:100,0
DA:101,0
end_of_record
SF:/usr/include/c++/9/bits/stl_heap.h
FN:128,_ZSt11__push_heapIN9__gnu_cxx17__normal_iteratorIPSt6vectorIiSaIiEES2_IS4_SaIS4_EEEElS4_NS0_5__ops14_Iter_less_valEEvT_T0_SC_T1_RT2_
FNDA:0,_ZSt11__push_heapIN9__gnu_cxx17__normal_iteratorIPSt6vectorIiSaIiEES2_IS4_SaIS4_EEEElS4_NS0_5__ops14_Iter_less_valEEvT_T0_SC_T1_RT2_
FN:214,_ZSt13__adjust_heapIN9__gnu_cxx17__normal_iteratorIPSt6vectorIiSaIiEES2_IS4_SaIS4_EEEElS4_NS0_5__ops15_Iter_less_iterEEvT_T0_SC_T1_T2_
FNDA:0,_ZSt13__adjust_heapIN9__gnu_cxx17__normal_iteratorIPSt6vectorIiSaIiEES2_IS4_SaIS4_EEEElS4_NS0_5__ops15_Iter_less_iterEEvT_T0_SC_T1_T2_
FN:243,_ZSt10__pop_heapIN9__gnu_cxx17__normal_iteratorIPSt6vectorIiSaIiEES2_IS4_SaIS4_EEEENS0_5__ops15_Iter_less_iterEEvT_SB_SB_RT0_
FNDA:0,_ZSt10__pop_heapIN9__gnu_cxx17__normal_iteratorIPSt6vectorIiSaIiEES2_IS4_SaIS4_EEEENS0_5__ops15_Iter_less_iterEEvT_SB_SB_RT0_
FN:326,_ZSt11__make_heapIN9__gnu_cxx17__normal_iteratorIPSt6vectorIiSaIiEES2_IS4_SaIS4_EEEENS0_5__ops15_Iter_less_iterEEvT_SB_RT0_
FNDA:0,_ZSt11__make_heapIN9__gnu_cxx17__normal_iteratorIPSt6vectorIiSaIiEES2_IS4_SaIS4_EEEENS0_5__ops15_Iter_less_iterEEvT_SB_RT0_
FN:402,_ZSt11__sort_heapIN9__gnu_cxx17__normal_iteratorIPSt6vectorIiSaIiEES2_IS4_SaIS4_EEEENS0_5__ops15_Iter_less_iterEEvT_SB_RT0_
FNDA:0,_ZSt11__sort_heapIN9__gnu_cxx17__normal_iteratorIPSt6vectorIiSaIiEES2_IS4_SaIS4_EEEENS0_5__ops15_Iter_less_iterEEvT_SB_RT0_
DA:128,0
DA:132,0
DA:133,0
DA:135,0
DA:136,0
DA:137,0
DA:139,0
DA:140,0
DA:214,0
DA:217,0
DA:218,0
DA:219,0
DA:221,0
DA:222,0
DA:224,0
DA:225,0
DA:226,0
DA:228,0
DA:230,0
DA:231,0
DA:233,0
DA:236,0
DA:237,0
DA:238,0
DA:239,0
DA:243,0
DA:251,0
DA:252,0
DA:253,0
DA:254,0
DA:255,0
DA:256,0
DA:326,0
DA:334,0
DA:335,0
DA:337,0
DA:338,0
DA:339,0
DA:341,0
DA:342,0
DA:344,0
DA:345,0
DA:346,0
DA:402,0
DA:405,0
DA:407,0
DA:408,0
DA:410,0
end_of_record
SF:/usr/include/c++/9/bits/move.h
FN:47,_ZSt11__addressofISt6vectorIiSaIiEEEPT_RS3_
FNDA:0,_ZSt11__addressofISt6vectorIiSaIiEEEPT_RS3_
FN:74,_ZSt7forwardISt6vectorIiSaIiEEEOT_RNSt16remove_referenceIS3_E4typeE
FNDA:0,_ZSt7forwardISt6vectorIiSaIiEEEOT_RNSt16remove_referenceIS3_E4typeE
FN:74,_ZSt7forwardIRKSt6vectorIiSaIiEEEOT_RNSt16remove_referenceIS5_E4typeE
FNDA:0,_ZSt7forwardIRKSt6vectorIiSaIiEEEOT_RNSt16remove_referenceIS5_E4typeE
FN:99,_ZSt4moveIRSaIiEEONSt16remove_referenceIT_E4typeEOS3_
FNDA:0,_ZSt4moveIRSaIiEEONSt16remove_referenceIT_E4typeEOS3_
FN:99,_ZSt4moveIRN9__gnu_cxx5__ops15_Iter_less_iterEEONSt16remove_referenceIT_E4typeEOS5_
FNDA:0,_ZSt4moveIRN9__gnu_cxx5__ops15_Iter_less_iterEEONSt16remove_referenceIT_E4typeEOS5_
FN:99,_ZSt4moveIRNSt12_Vector_baseIiSaIiEE12_Vector_implEEONSt16remove_referenceIT_E4typeEOS6_
FNDA:0,_ZSt4moveIRNSt12_Vector_baseIiSaIiEE12_Vector_implEEONSt16remove_referenceIT_E4typeEOS6_
FN:99,_ZSt4moveIRSt6vectorIiSaIiEEEONSt16remove_referenceIT_E4typeEOS5_
FNDA:0,_ZSt4moveIRSt6vectorIiSaIiEEEONSt16remove_referenceIT_E4typeEOS5_
FN:99,_ZSt4moveIRSaIcEEONSt16remove_referenceIT_E4typeEOS3_
FNDA:0,_ZSt4moveIRSaIcEEONSt16remove_referenceIT_E4typeEOS3_
DA:47,0
DA:48,0
DA:74,0
DA:75,0
DA:74,0
DA:75,0
DA:99,0
DA:100,0
DA:99,0
DA:100,0
DA:99,0
DA:100,0
DA:99,0
DA:100,0
DA:99,0
DA:100,0
end_of_record
SF:/home/pato/TPIMorfMat/template-alumnos/lib/googletest-master/googletest/include/gtest/gtest.h
FN:286,_ZN7testing15AssertionResultC2IbEERKT_PNS_8internal8EnableIfIXntsrNS5_21ImplicitlyConvertibleIS2_S0_EE5valueEE4typeE
FNDA:0,_ZN7testing15AssertionResultC2IbEERKT_PNS_8internal8EnableIfIXntsrNS5_21ImplicitlyConvertibleIS2_S0_EE5valueEE4typeE
FN:304,_ZNK7testing15AssertionResultcvbEv
FNDA:0,_ZNK7testing15AssertionResultcvbEv
FN:414,_ZN7testing4Test13SetUpTestCaseEv
FNDA:0,_ZN7testing4Test13SetUpTestCaseEv
FN:422,_ZN7testing4Test16TearDownTestCaseEv
FNDA:0,_ZN7testing4Test16TearDownTestCaseEv
FN:499,_ZN7testing4Test5SetupEv
FNDA:0,_ZN7testing4Test5SetupEv
DA:286,0
DA:291,0
DA:304,0
DA:414,0
DA:422,0
DA:499,0
end_of_record
SF:/usr/include/c++/9/bits/char_traits.h
FN:329,_ZNSt11char_traitsIcE6lengthEPKc
FNDA:0,_ZNSt11char_traitsIcE6lengthEPKc
DA:329,0
DA:335,0
end_of_record
SF:/usr/include/c++/9/iostream
end_of_record
SF:/usr/include/c++/9/new
FN:173,_ZnwmPv
FNDA:0,_ZnwmPv
FN:179,_ZdlPvS_
FNDA:0,_ZdlPvS_
DA:173,0
DA:174,0
DA:179,0
end_of_record
SF:/usr/include/c++/9/bits/stl_uninitialized.h
FN:76,_ZNSt20__uninitialized_copyILb0EE13__uninit_copyIN9__gnu_cxx17__normal_iteratorIPKSt6vectorIiSaIiEES4_IS6_SaIS6_EEEEPS6_EET0_T_SE_SD_
FNDA:0,_ZNSt20__uninitialized_copyILb0EE13__uninit_copyIN9__gnu_cxx17__normal_iteratorIPKSt6vectorIiSaIiEES4_IS6_SaIS6_EEEEPS6_EET0_T_SE_SD_
FN:76,_ZNSt20__uninitialized_copyILb0EE13__uninit_copyISt13move_iteratorIPSt6vectorIiSaIiEEES6_EET0_T_S9_S8_
FNDA:0,_ZNSt20__uninitialized_copyILb0EE13__uninit_copyISt13move_iteratorIPSt6vectorIiSaIiEEES6_EET0_T_S9_S8_
FN:76,_ZNSt20__uninitialized_copyILb0EE13__uninit_copyIPKSt6vectorIiSaIiEEPS4_EET0_T_S9_S8_
FNDA:0,_ZNSt20__uninitialized_copyILb0EE13__uninit_copyIPKSt6vectorIiSaIiEEPS4_EET0_T_S9_S8_
FN:99,_ZNSt20__uninitialized_copyILb1EE13__uninit_copyIN9__gnu_cxx17__normal_iteratorIPKiSt6vectorIiSaIiEEEEPiEET0_T_SC_SB_
FNDA:0,_ZNSt20__uninitialized_copyILb1EE13__uninit_copyIN9__gnu_cxx17__normal_iteratorIPKiSt6vectorIiSaIiEEEEPiEET0_T_SC_SB_
FN:99,_ZNSt20__uninitialized_copyILb1EE13__uninit_copyIPKiPiEET0_T_S6_S5_
FNDA:0,_ZNSt20__uninitialized_copyILb1EE13__uninit_copyIPKiPiEET0_T_S6_S5_
FN:115,_ZSt18uninitialized_copyIN9__gnu_cxx17__normal_iteratorIPKiSt6vectorIiSaIiEEEEPiET0_T_SA_S9_
FNDA:0,_ZSt18uninitialized_copyIN9__gnu_cxx17__normal_iteratorIPKiSt6vectorIiSaIiEEEEPiET0_T_SA_S9_
FN:115,_ZSt18uninitialized_copyISt13move_iteratorIPSt6vectorIiSaIiEEES4_ET0_T_S7_S6_
FNDA:0,_ZSt18uninitialized_copyISt13move_iteratorIPSt6vectorIiSaIiEEES4_ET0_T_S7_S6_
FN:115,_ZSt18uninitialized_copyIPKSt6vectorIiSaIiEEPS2_ET0_T_S7_S6_
FNDA:0,_ZSt18uninitialized_copyIPKSt6vectorIiSaIiEEPS2_ET0_T_S7_S6_
FN:115,_ZSt18uninitialized_copyIPKiPiET0_T_S4_S3_
FNDA:0,_ZSt18uninitialized_copyIPKiPiET0_T_S4_S3_
FN:115,_ZSt18uninitialized_copyIN9__gnu_cxx17__normal_iteratorIPKSt6vectorIiSaIiEES2_IS4_SaIS4_EEEEPS4_ET0_T_SC_SB_
FNDA:0,_ZSt18uninitialized_copyIN9__gnu_cxx17__normal_iteratorIPKSt6vectorIiSaIiEES2_IS4_SaIS4_EEEEPS4_ET0_T_SC_SB_
FN:287,_ZSt22__uninitialized_copy_aIN9__gnu_cxx17__normal_iteratorIPKiSt6vectorIiSaIiEEEEPiiET0_T_SA_S9_RSaIT1_E
FNDA:0,_ZSt22__uninitialized_copy_aIN9__gnu_cxx17__normal_iteratorIPKiSt6vectorIiSaIiEEEEPiiET0_T_SA_S9_RSaIT1_E
FN:287,_ZSt22__uninitialized_copy_aISt13move_iteratorIPSt6vectorIiSaIiEEES4_S3_ET0_T_S7_S6_RSaIT1_E
FNDA:0,_ZSt22__uninitialized_copy_aISt13move_iteratorIPSt6vectorIiSaIiEEES4_S3_ET0_T_S7_S6_RSaIT1_E
FN:287,_ZSt22__uninitialized_copy_aIPKSt6vectorIiSaIiEEPS2_S2_ET0_T_S7_S6_RSaIT1_E
FNDA:0,_ZSt22__uninitialized_copy_aIPKSt6vectorIiSaIiEEPS2_S2_ET0_T_S7_S6_RSaIT1_E
FN:287,_ZSt22__uninitialized_copy_aIPKiPiiET0_T_S4_S3_RSaIT1_E
FNDA:0,_ZSt22__uninitialized_copy_aIPKiPiiET0_T_S4_S3_RSaIT1_E
FN:287,_ZSt22__uninitialized_copy_aIN9__gnu_cxx17__normal_iteratorIPKSt6vectorIiSaIiEES2_IS4_SaIS4_EEEEPS4_S4_ET0_T_SC_SB_RSaIT1_E
FNDA:0,_ZSt22__uninitialized_copy_aIN9__gnu_cxx17__normal_iteratorIPKSt6vectorIiSaIiEES2_IS4_SaIS4_EEEEPS4_S4_ET0_T_SC_SB_RSaIT1_E
FN:305,_ZSt34__uninitialized_move_if_noexcept_aIPSt6vectorIiSaIiEES3_SaIS2_EET0_T_S6_S5_RT1_
FNDA:0,_ZSt34__uninitialized_move_if_noexcept_aIPSt6vectorIiSaIiEES3_SaIS2_EET0_T_S6_S5_RT1_
FN:887,_ZSt19__relocate_object_aISt6vectorIiSaIiEES2_SaIS2_EEvPT_PT0_RT1_
FNDA:0,_ZSt19__relocate_object_aISt6vectorIiSaIiEES2_SaIS2_EEvPT_PT0_RT1_
FN:918,_ZSt14__relocate_a_1IPSt6vectorIiSaIiEES3_SaIS2_EET0_T_S6_S5_RT1_
FNDA:0,_ZSt14__relocate_a_1IPSt6vectorIiSaIiEES3_SaIS2_EET0_T_S6_S5_RT1_
FN:940,_ZSt12__relocate_aIPSt6vectorIiSaIiEES3_SaIS2_EET0_T_S6_S5_RT1_
FNDA:0,_ZSt12__relocate_aIPSt6vectorIiSaIiEES3_SaIS2_EET0_T_S6_S5_RT1_
DA:76,0
DA:79,0
DA:82,0
DA:83,0
DA:84,0
DA:86,0
DA:88,0
DA:89,0
DA:76,0
DA:79,0
DA:82,0
DA:83,0
DA:84,0
DA:86,0
DA:88,0
DA:89,0
DA:76,0
DA:79,0
DA:82,0
DA:83,0
DA:84,0
DA:86,0
DA:88,0
DA:89,0
DA:99,0
DA:101,0
DA:99,0
DA:101,0
DA:115,0
DA:128,0
DA:134,0
DA:115,0
DA:128,0
DA:134,0
DA:115,0
DA:128,0
DA:134,0
DA:115,0
DA:128,0
DA:134,0
DA:115,0
DA:128,0
DA:134,0
DA:287,0
DA:289,0
DA:287,0
DA:289,0
DA:287,0
DA:289,0
DA:287,0
DA:289,0
DA:287,0
DA:289,0
DA:305,0
DA:311,0
DA:312,0
DA:887,0
DA:894,0
DA:895,0
DA:896,0
DA:918,0
DA:930,0
DA:931,0
DA:932,0
DA:934,0
DA:940,0
DA:946,0
DA:948,0
end_of_record
SF:/usr/include/c++/9/bits/stl_algobase.h
FN:123,_ZSt9iter_swapIN9__gnu_cxx17__normal_iteratorIPSt6vectorIiSaIiEES2_IS4_SaIS4_EEEES8_EvT_T0_
FNDA:0,_ZSt9iter_swapIN9__gnu_cxx17__normal_iteratorIPSt6vectorIiSaIiEES2_IS4_SaIS4_EEEES8_EvT_T0_
FN:198,_ZSt3minImERKT_S2_S2_
FNDA:0,_ZSt3minImERKT_S2_S2_
FN:222,_ZSt3maxImERKT_S2_S2_
FNDA:0,_ZSt3maxImERKT_S2_S2_
FN:280,_ZSt12__niter_baseIPSt6vectorIiSaIiEEET_S4_
FNDA:0,_ZSt12__niter_baseIPSt6vectorIiSaIiEEET_S4_
FN:280,_ZSt12__niter_baseIPKiET_S2_
FNDA:0,_ZSt12__niter_baseIPKiET_S2_
FN:280,_ZSt12__niter_baseIPiET_S1_
FNDA:0,_ZSt12__niter_baseIPiET_S1_
FN:289,_ZSt12__niter_wrapIN9__gnu_cxx17__normal_iteratorIPSt6vectorIiSaIiEES2_IS4_SaIS4_EEEES5_ET_S9_T0_
FNDA:0,_ZSt12__niter_wrapIN9__gnu_cxx17__normal_iteratorIPSt6vectorIiSaIiEES2_IS4_SaIS4_EEEES5_ET_S9_T0_
FN:295,_ZSt12__niter_wrapIPiET_RKS1_S1_
FNDA:0,_ZSt12__niter_wrapIPiET_RKS1_S1_
FN:375,_ZNSt11__copy_moveILb0ELb1ESt26random_access_iterator_tagE8__copy_mIiEEPT_PKS3_S6_S4_
FNDA:0,_ZNSt11__copy_moveILb0ELb1ESt26random_access_iterator_tagE8__copy_mIiEEPT_PKS3_S6_S4_
FN:393,_ZSt13__copy_move_aILb0EPKiPiET1_T0_S4_S3_
FNDA:0,_ZSt13__copy_move_aILb0EPKiPiET1_T0_S4_S3_
FN:438,_ZSt14__copy_move_a2ILb0EN9__gnu_cxx17__normal_iteratorIPKiSt6vectorIiSaIiEEEEPiET1_T0_SA_S9_
FNDA:0,_ZSt14__copy_move_a2ILb0EN9__gnu_cxx17__normal_iteratorIPKiSt6vectorIiSaIiEEEEPiET1_T0_SA_S9_
FN:438,_ZSt14__copy_move_a2ILb0EPKiPiET1_T0_S4_S3_
FNDA:0,_ZSt14__copy_move_a2ILb0EPKiPiET1_T0_S4_S3_
FN:465,_ZSt4copyIN9__gnu_cxx17__normal_iteratorIPKiSt6vectorIiSaIiEEEEPiET0_T_SA_S9_
FNDA:0,_ZSt4copyIN9__gnu_cxx17__normal_iteratorIPKiSt6vectorIiSaIiEEEEPiET0_T_SA_S9_
FN:465,_ZSt4copyIPKiPiET0_T_S4_S3_
FNDA:0,_ZSt4copyIPKiPiET0_T_S4_S3_
FN:562,_ZNSt20__copy_move_backwardILb1ELb0ESt26random_access_iterator_tagE13__copy_move_bIPSt6vectorIiSaIiEES6_EET0_T_S8_S7_
FNDA:0,_ZNSt20__copy_move_backwardILb1ELb0ESt26random_access_iterator_tagE13__copy_move_bIPSt6vectorIiSaIiEES6_EET0_T_S8_S7_
FN:595,_ZSt22__copy_move_backward_aILb1EPSt6vectorIiSaIiEES3_ET1_T0_S5_S4_
FNDA:0,_ZSt22__copy_move_backward_aILb1EPSt6vectorIiSaIiEES3_ET1_T0_S5_S4_
FN:613,_ZSt23__copy_move_backward_a2ILb1EN9__gnu_cxx17__normal_iteratorIPSt6vectorIiSaIiEES2_IS4_SaIS4_EEEES8_ET1_T0_SA_S9_
FNDA:0,_ZSt23__copy_move_backward_a2ILb1EN9__gnu_cxx17__normal_iteratorIPSt6vectorIiSaIiEES2_IS4_SaIS4_EEEES8_ET1_T0_SA_S9_
FN:676,_ZSt13move_backwardIN9__gnu_cxx17__normal_iteratorIPSt6vectorIiSaIiEES2_IS4_SaIS4_EEEES8_ET0_T_SA_S9_
FNDA:0,_ZSt13move_backwardIN9__gnu_cxx17__normal_iteratorIPSt6vectorIiSaIiEES2_IS4_SaIS4_EEEES8_ET0_T_SA_S9_
FN:817,_ZNSt7__equalILb0EE5equalIPKSt6vectorIiSaIiEES6_EEbT_S7_T0_
FNDA:0,_ZNSt7__equalILb0EE5equalIPKSt6vectorIiSaIiEES6_EEbT_S7_T0_
FN:831,_ZNSt7__equalILb1EE5equalIiEEbPKT_S4_S4_
FNDA:0,_ZNSt7__equalILb1EE5equalIiEEbPKT_S4_S4_
FN:841,_ZSt11__equal_auxIPKiS1_EbT_S2_T0_
FNDA:0,_ZSt11__equal_auxIPKiS1_EbT_S2_T0_
FN:841,_ZSt11__equal_auxIPKSt6vectorIiSaIiEES4_EbT_S5_T0_
FNDA:0,_ZSt11__equal_auxIPKSt6vectorIiSaIiEES4_EbT_S5_T0_
FN:873,_ZNSt8__lc_raiISt26random_access_iterator_tagS0_E10__newlast1IPKiS4_EET_S5_S5_T0_S6_
FNDA:0,_ZNSt8__lc_raiISt26random_access_iterator_tagS0_E10__newlast1IPKiS4_EET_S5_S5_T0_S6_
FN:885,_ZNSt8__lc_raiISt26random_access_iterator_tagS0_E6__cnd2IPKiEEbT_S5_
FNDA:0,_ZNSt8__lc_raiISt26random_access_iterator_tagS0_E6__cnd2IPKiEEbT_S5_
FN:891,_ZSt30__lexicographical_compare_implIPKiS1_N9__gnu_cxx5__ops15_Iter_less_iterEEbT_S5_T0_S6_T1_
FNDA:0,_ZSt30__lexicographical_compare_implIPKiS1_N9__gnu_cxx5__ops15_Iter_less_iterEEbT_S5_T0_S6_T1_
FN:921,_ZNSt25__lexicographical_compareILb0EE4__lcIPKiS3_EEbT_S4_T0_S5_
FNDA:0,_ZNSt25__lexicographical_compareILb0EE4__lcIPKiS3_EEbT_S4_T0_S5_
FN:948,_ZSt29__lexicographical_compare_auxIPKiS1_EbT_S2_T0_S3_
FNDA:0,_ZSt29__lexicographical_compare_auxIPKiS1_EbT_S2_T0_S3_
FN:1028,_ZSt4__lgl
FNDA:0,_ZSt4__lgl
FN:1059,_ZSt5equalIN9__gnu_cxx17__normal_iteratorIPKiSt6vectorIiSaIiEEEES7_EbT_S8_T0_
FNDA:0,_ZSt5equalIN9__gnu_cxx17__normal_iteratorIPKiSt6vectorIiSaIiEEEES7_EbT_S8_T0_
FN:1059,_ZSt5equalIN9__gnu_cxx17__normal_iteratorIPKSt6vectorIiSaIiEES2_IS4_SaIS4_EEEES9_EbT_SA_T0_
FNDA:0,_ZSt5equalIN9__gnu_cxx17__normal_iteratorIPKSt6vectorIiSaIiEES2_IS4_SaIS4_EEEES9_EbT_SA_T0_
FN:1241,_ZSt23lexicographical_compareIN9__gnu_cxx17__normal_iteratorIPKiSt6vectorIiSaIiEEEES7_EbT_S8_T0_S9_
FNDA:0,_ZSt23lexicographical_compareIN9__gnu_cxx17__normal_iteratorIPKiSt6vectorIiSaIiEEEES7_EbT_S8_T0_S9_
DA:123,0
DA:151,0
DA:153,0
DA:198,0
DA:203,0
DA:204,0
DA:205,0
DA:222,0
DA:227,0
DA:228,0
DA:229,0
DA:280,0
DA:282,0
DA:280,0
DA:282,0
DA:280,0
DA:282,0
DA:289,0
DA:290,0
DA:295,0
DA:296,0
DA:375,0
DA:384,0
DA:385,0
DA:386,0
DA:387,0
DA:393,0
DA:398,0
DA:404,0
DA:438,0
DA:440,0
DA:443,0
DA:438,0
DA:440,0
DA:443,0
DA:465,0
DA:474,0
DA:465,0
DA:474,0
DA:562,0
DA:565,0
DA:566,0
DA:567,0
DA:595,0
DA:600,0
DA:606,0
DA:608,0
DA:613,0
DA:615,0
DA:618,0
DA:676,0
DA:686,0
DA:688,0
DA:817,0
DA:819,0
DA:820,0
DA:821,0
DA:822,0
DA:831,0
DA:833,0
DA:834,0
DA:835,0
DA:841,0
DA:845,0
DA:851,0
DA:841,0
DA:845,0
DA:851,0
DA:873,0
DA:877,0
DA:879,0
DA:880,0
DA:885,0
DA:886,0
DA:891,0
DA:899,0
DA:900,0
DA:903,0
DA:904,0
DA:905,0
DA:906,0
DA:908,0
DA:921,0
DA:924,0
DA:926,0
DA:948,0
DA:953,0
DA:960,0
DA:961,0
DA:1028,0
DA:1029,0
DA:1059,0
DA:1069,0
DA:1071,0
DA:1059,0
DA:1069,0
DA:1071,0
DA:1241,0
DA:1256,0
DA:1259,0
end_of_record
SF:/usr/include/c++/9/bits/cpp_type_traits.h
FN:428,_ZSt12__miter_baseIN9__gnu_cxx17__normal_iteratorIPKiSt6vectorIiSaIiEEEEET_S8_
FNDA:0,_ZSt12__miter_baseIN9__gnu_cxx17__normal_iteratorIPKiSt6vectorIiSaIiEEEEET_S8_
FN:428,_ZSt12__miter_baseIPKiET_S2_
FNDA:0,_ZSt12__miter_baseIPKiET_S2_
FN:428,_ZSt12__miter_baseIN9__gnu_cxx17__normal_iteratorIPSt6vectorIiSaIiEES2_IS4_SaIS4_EEEEET_S9_
FNDA:0,_ZSt12__miter_baseIN9__gnu_cxx17__normal_iteratorIPSt6vectorIiSaIiEES2_IS4_SaIS4_EEEEET_S9_
DA:428,0
DA:429,0
DA:428,0
DA:429,0
DA:428,0
DA:429,0
end_of_record
SF:/usr/include/c++/9/ext/new_allocator.h
FN:80,_ZN9__gnu_cxx13new_allocatorIcEC2Ev
FNDA:0,_ZN9__gnu_cxx13new_allocatorIcEC2Ev
FN:80,_ZN9__gnu_cxx13new_allocatorIiEC2Ev
FNDA:0,_ZN9__gnu_cxx13new_allocatorIiEC2Ev
FN:80,_ZN9__gnu_cxx13new_allocatorISt6vectorIiSaIiEEEC2Ev
FNDA:0,_ZN9__gnu_cxx13new_allocatorISt6vectorIiSaIiEEEC2Ev
FN:83,_ZN9__gnu_cxx13new_allocatorIiEC2ERKS1_
FNDA:0,_ZN9__gnu_cxx13new_allocatorIiEC2ERKS1_
FN:83,_ZN9__gnu_cxx13new_allocatorISt6vectorIiSaIiEEEC2ERKS4_
FNDA:0,_ZN9__gnu_cxx13new_allocatorISt6vectorIiSaIiEEEC2ERKS4_
FN:83,_ZN9__gnu_cxx13new_allocatorIcEC2ERKS1_
FNDA:0,_ZN9__gnu_cxx13new_allocatorIcEC2ERKS1_
FN:89,_ZN9__gnu_cxx13new_allocatorIcED2Ev
FNDA:0,_ZN9__gnu_cxx13new_allocatorIcED2Ev
FN:89,_ZN9__gnu_cxx13new_allocatorISt6vectorIiSaIiEEED2Ev
FNDA:0,_ZN9__gnu_cxx13new_allocatorISt6vectorIiSaIiEEED2Ev
FN:89,_ZN9__gnu_cxx13new_allocatorIiED2Ev
FNDA:0,_ZN9__gnu_cxx13new_allocatorIiED2Ev
FN:102,_ZN9__gnu_cxx13new_allocatorISt6vectorIiSaIiEEE8allocateEmPKv
FNDA:0,_ZN9__gnu_cxx13new_allocatorISt6vectorIiSaIiEEE8allocateEmPKv
FN:102,_ZN9__gnu_cxx13new_allocatorIiE8allocateEmPKv
FNDA:0,_ZN9__gnu_cxx13new_allocatorIiE8allocateEmPKv
FN:119,_ZN9__gnu_cxx13new_allocatorISt6vectorIiSaIiEEE10deallocateEPS3_m
FNDA:0,_ZN9__gnu_cxx13new_allocatorISt6vectorIiSaIiEEE10deallocateEPS3_m
FN:119,_ZN9__gnu_cxx13new_allocatorIiE10deallocateEPim
FNDA:0,_ZN9__gnu_cxx13new_allocatorIiE10deallocateEPim
FN:132,_ZNK9__gnu_cxx13new_allocatorIiE8max_sizeEv
FNDA:0,_ZNK9__gnu_cxx13new_allocatorIiE8max_sizeEv
FN:132,_ZNK9__gnu_cxx13new_allocatorISt6vectorIiSaIiEEE8max_sizeEv
FNDA:0,_ZNK9__gnu_cxx13new_allocatorISt6vectorIiSaIiEEE8max_sizeEv
FN:144,_ZN9__gnu_cxx13new_allocatorISt6vectorIiSaIiEEE9constructIS3_JRKS3_EEEvPT_DpOT0_
FNDA:0,_ZN9__gnu_cxx13new_allocatorISt6vectorIiSaIiEEE9constructIS3_JRKS3_EEEvPT_DpOT0_
FN:144,_ZN9__gnu_cxx13new_allocatorISt6vectorIiSaIiEEE9constructIS3_JS3_EEEvPT_DpOT0_
FNDA:0,_ZN9__gnu_cxx13new_allocatorISt6vectorIiSaIiEEE9constructIS3_JS3_EEEvPT_DpOT0_
FN:151,_ZN9__gnu_cxx13new_allocatorISt6vectorIiSaIiEEE7destroyIS3_EEvPT_
FNDA:0,_ZN9__gnu_cxx13new_allocatorISt6vectorIiSaIiEEE7destroyIS3_EEvPT_
DA:80,0
DA:80,0
DA:80,0
DA:83,0
DA:83,0
DA:83,0
DA:89,0
DA:89,0
DA:89,0
DA:102,0
DA:104,0
DA:105,0
DA:114,0
DA:102,0
DA:104,0
DA:105,0
DA:114,0
DA:119,0
DA:128,0
DA:129,0
DA:119,0
DA:128,0
DA:129,0
DA:132,0
DA:135,0
DA:132,0
DA:135,0
DA:144,0
DA:147,0
DA:144,0
DA:147,0
DA:151,0
DA:153,0
end_of_record
SF:/usr/include/c++/9/bits/stl_construct.h
FN:74,_ZSt10_ConstructISt6vectorIiSaIiEEJS2_EEvPT_DpOT0_
FNDA:0,_ZSt10_ConstructISt6vectorIiSaIiEEJS2_EEvPT_DpOT0_
FN:74,_ZSt10_ConstructISt6vectorIiSaIiEEJRKS2_EEvPT_DpOT0_
FNDA:0,_ZSt10_ConstructISt6vectorIiSaIiEEJRKS2_EEvPT_DpOT0_
FN:97,_ZSt8_DestroyISt6vectorIiSaIiEEEvPT_
FNDA:0,_ZSt8_DestroyISt6vectorIiSaIiEEEvPT_
FN:105,_ZNSt12_Destroy_auxILb0EE9__destroyIPSt6vectorIiSaIiEEEEvT_S6_
FNDA:0,_ZNSt12_Destroy_auxILb0EE9__destroyIPSt6vectorIiSaIiEEEEvT_S6_
FN:117,_ZNSt12_Destroy_auxILb1EE9__destroyIPiEEvT_S3_
FNDA:0,_ZNSt12_Destroy_auxILb1EE9__destroyIPiEEvT_S3_
FN:127,_ZSt8_DestroyIPiEvT_S1_
FNDA:0,_ZSt8_DestroyIPiEvT_S1_
FN:127,_ZSt8_DestroyIPSt6vectorIiSaIiEEEvT_S4_
FNDA:0,_ZSt8_DestroyIPSt6vectorIiSaIiEEEvT_S4_
FN:203,_ZSt8_DestroyIPiiEvT_S1_RSaIT0_E
FNDA:0,_ZSt8_DestroyIPiiEvT_S1_RSaIT0_E
FN:203,_ZSt8_DestroyIPSt6vectorIiSaIiEES2_EvT_S4_RSaIT0_E
FNDA:0,_ZSt8_DestroyIPSt6vectorIiSaIiEES2_EvT_S4_RSaIT0_E
DA:74,0
DA:75,0
DA:74,0
DA:75,0
DA:97,0
DA:98,0
DA:105,0
DA:107,0
DA:108,0
DA:109,0
DA:117,0
DA:127,0
DA:137,0
DA:138,0
DA:127,0
DA:137,0
DA:138,0
DA:203,0
DA:206,0
DA:207,0
DA:203,0
DA:206,0
DA:207,0
end_of_record
SF:/usr/include/c++/9/bits/stl_iterator.h
FN:806,_ZN9__gnu_cxx17__normal_iteratorIPSt6vectorIiSaIiEES1_IS3_SaIS3_EEEC2ERKS4_
FNDA:0,_ZN9__gnu_cxx17__normal_iteratorIPSt6vectorIiSaIiEES1_IS3_SaIS3_EEEC2ERKS4_
FN:806,_ZN9__gnu_cxx17__normal_iteratorIPKSt6vectorIiSaIiEES1_IS3_SaIS3_EEEC2ERKS5_
FNDA:0,_ZN9__gnu_cxx17__normal_iteratorIPKSt6vectorIiSaIiEES1_IS3_SaIS3_EEEC2ERKS5_
FN:806,_ZN9__gnu_cxx17__normal_iteratorIPKiSt6vectorIiSaIiEEEC2ERKS2_
FNDA:0,_ZN9__gnu_cxx17__normal_iteratorIPKiSt6vectorIiSaIiEEEC2ERKS2_
FN:819,_ZNK9__gnu_cxx17__normal_iteratorIPSt6vectorIiSaIiEES1_IS3_SaIS3_EEEdeEv
FNDA:0,_ZNK9__gnu_cxx17__normal_iteratorIPSt6vectorIiSaIiEES1_IS3_SaIS3_EEEdeEv
FN:819,_ZNK9__gnu_cxx17__normal_iteratorIPKSt6vectorIiSaIiEES1_IS3_SaIS3_EEEdeEv
FNDA:0,_ZNK9__gnu_cxx17__normal_iteratorIPKSt6vectorIiSaIiEES1_IS3_SaIS3_EEEdeEv
FN:827,_ZN9__gnu_cxx17__normal_iteratorIPKSt6vectorIiSaIiEES1_IS3_SaIS3_EEEppEv
FNDA:0,_ZN9__gnu_cxx17__normal_iteratorIPKSt6vectorIiSaIiEES1_IS3_SaIS3_EEEppEv
FN:827,_ZN9__gnu_cxx17__normal_iteratorIPSt6vectorIiSaIiEES1_IS3_SaIS3_EEEppEv
FNDA:0,_ZN9__gnu_cxx17__normal_iteratorIPSt6vectorIiSaIiEES1_IS3_SaIS3_EEEppEv
FN:839,_ZN9__gnu_cxx17__normal_iteratorIPSt6vectorIiSaIiEES1_IS3_SaIS3_EEEmmEv
FNDA:0,_ZN9__gnu_cxx17__normal_iteratorIPSt6vectorIiSaIiEES1_IS3_SaIS3_EEEmmEv
FN:859,_ZNK9__gnu_cxx17__normal_iteratorIPSt6vectorIiSaIiEES1_IS3_SaIS3_EEEplEl
FNDA:0,_ZNK9__gnu_cxx17__normal_iteratorIPSt6vectorIiSaIiEES1_IS3_SaIS3_EEEplEl
FN:867,_ZNK9__gnu_cxx17__normal_iteratorIPSt6vectorIiSaIiEES1_IS3_SaIS3_EEEmiEl
FNDA:0,_ZNK9__gnu_cxx17__normal_iteratorIPSt6vectorIiSaIiEES1_IS3_SaIS3_EEEmiEl
FN:871,_ZNK9__gnu_cxx17__normal_iteratorIPKiSt6vectorIiSaIiEEE4baseEv
FNDA:0,_ZNK9__gnu_cxx17__normal_iteratorIPKiSt6vectorIiSaIiEEE4baseEv
FN:871,_ZNK9__gnu_cxx17__normal_iteratorIPSt6vectorIiSaIiEES1_IS3_SaIS3_EEE4baseEv
FNDA:0,_ZNK9__gnu_cxx17__normal_iteratorIPSt6vectorIiSaIiEES1_IS3_SaIS3_EEE4baseEv
FN:871,_ZNK9__gnu_cxx17__normal_iteratorIPKSt6vectorIiSaIiEES1_IS3_SaIS3_EEE4baseEv
FNDA:0,_ZNK9__gnu_cxx17__normal_iteratorIPKSt6vectorIiSaIiEES1_IS3_SaIS3_EEE4baseEv
FN:893,_ZN9__gnu_cxxeqIPSt6vectorIiSaIiEES1_IS3_SaIS3_EEEEbRKNS_17__normal_iteratorIT_T0_EESC_
FNDA:0,_ZN9__gnu_cxxeqIPSt6vectorIiSaIiEES1_IS3_SaIS3_EEEEbRKNS_17__normal_iteratorIT_T0_EESC_
FN:907,_ZN9__gnu_cxxneIPKSt6vectorIiSaIiEES1_IS3_SaIS3_EEEEbRKNS_17__normal_iteratorIT_T0_EESD_
FNDA:0,_ZN9__gnu_cxxneIPKSt6vectorIiSaIiEES1_IS3_SaIS3_EEEEbRKNS_17__normal_iteratorIT_T0_EESD_
FN:907,_ZN9__gnu_cxxneIPSt6vectorIiSaIiEES1_IS3_SaIS3_EEEEbRKNS_17__normal_iteratorIT_T0_EESC_
FNDA:0,_ZN9__gnu_cxxneIPSt6vectorIiSaIiEES1_IS3_SaIS3_EEEEbRKNS_17__normal_iteratorIT_T0_EESC_
FN:922,_ZN9__gnu_cxxltIPSt6vectorIiSaIiEES1_IS3_SaIS3_EEEEbRKNS_17__normal_iteratorIT_T0_EESC_
FNDA:0,_ZN9__gnu_cxxltIPSt6vectorIiSaIiEES1_IS3_SaIS3_EEEEbRKNS_17__normal_iteratorIT_T0_EESC_
FN:989,_ZN9__gnu_cxxmiIPSt6vectorIiSaIiEES1_IS3_SaIS3_EEEENS_17__normal_iteratorIT_T0_E15difference_typeERKSA_SD_
FNDA:0,_ZN9__gnu_cxxmiIPSt6vectorIiSaIiEES1_IS3_SaIS3_EEEENS_17__normal_iteratorIT_T0_E15difference_typeERKSA_SD_
FN:1010,_ZSt12__niter_baseIPKiSt6vectorIiSaIiEEET_N9__gnu_cxx17__normal_iteratorIS5_T0_EE
FNDA:0,_ZSt12__niter_baseIPKiSt6vectorIiSaIiEEET_N9__gnu_cxx17__normal_iteratorIS5_T0_EE
FN:1010,_ZSt12__niter_baseIPSt6vectorIiSaIiEES0_IS2_SaIS2_EEET_N9__gnu_cxx17__normal_iteratorIS6_T0_EE
FNDA:0,_ZSt12__niter_baseIPSt6vectorIiSaIiEES0_IS2_SaIS2_EEET_N9__gnu_cxx17__normal_iteratorIS6_T0_EE
FN:1010,_ZSt12__niter_baseIPKSt6vectorIiSaIiEES0_IS2_SaIS2_EEET_N9__gnu_cxx17__normal_iteratorIS7_T0_EE
FNDA:0,_ZSt12__niter_baseIPKSt6vectorIiSaIiEES0_IS2_SaIS2_EEET_N9__gnu_cxx17__normal_iteratorIS7_T0_EE
FN:1057,_ZNSt13move_iteratorIPSt6vectorIiSaIiEEEC2ES3_
FNDA:0,_ZNSt13move_iteratorIPSt6vectorIiSaIiEEEC2ES3_
FN:1066,_ZNKSt13move_iteratorIPSt6vectorIiSaIiEEE4baseEv
FNDA:0,_ZNKSt13move_iteratorIPSt6vectorIiSaIiEEE4baseEv
FN:1070,_ZNKSt13move_iteratorIPSt6vectorIiSaIiEEEdeEv
FNDA:0,_ZNKSt13move_iteratorIPSt6vectorIiSaIiEEEdeEv
FN:1078,_ZNSt13move_iteratorIPSt6vectorIiSaIiEEEppEv
FNDA:0,_ZNSt13move_iteratorIPSt6vectorIiSaIiEEEppEv
FN:1145,_ZSteqIPSt6vectorIiSaIiEEEbRKSt13move_iteratorIT_ES8_
FNDA:0,_ZSteqIPSt6vectorIiSaIiEEEbRKSt13move_iteratorIT_ES8_
FN:1157,_ZStneIPSt6vectorIiSaIiEEEbRKSt13move_iteratorIT_ES8_
FNDA:0,_ZStneIPSt6vectorIiSaIiEEEbRKSt13move_iteratorIT_ES8_
FN:1242,_ZSt32__make_move_if_noexcept_iteratorISt6vectorIiSaIiEESt13move_iteratorIPS2_EET0_PT_
FNDA:0,_ZSt32__make_move_if_noexcept_iteratorISt6vectorIiSaIiEESt13move_iteratorIPS2_EET0_PT_
DA:806,0
DA:807,0
DA:806,0
DA:807,0
DA:806,0
DA:807,0
DA:819,0
DA:820,0
DA:819,0
DA:820,0
DA:827,0
DA:829,0
DA:830,0
DA:827,0
DA:829,0
DA:830,0
DA:839,0
DA:841,0
DA:842,0
DA:859,0
DA:860,0
DA:867,0
DA:868,0
DA:871,0
DA:872,0
DA:871,0
DA:872,0
DA:871,0
DA:872,0
DA:893,0
DA:896,0
DA:907,0
DA:910,0
DA:907,0
DA:910,0
DA:922,0
DA:925,0
DA:989,0
DA:992,0
DA:1010,0
DA:1012,0
DA:1010,0
DA:1012,0
DA:1010,0
DA:1012,0
DA:1057,0
DA:1058,0
DA:1066,0
DA:1067,0
DA:1070,0
DA:1071,0
DA:1078,0
DA:1080,0
DA:1081,0
DA:1145,0
DA:1147,0
DA:1157,0
DA:1159,0
DA:1242,0
DA:1243,0
end_of_record
SF:/usr/include/c++/9/bits/alloc_traits.h
FN:443,_ZNSt16allocator_traitsISaISt6vectorIiSaIiEEEE8allocateERS3_m
FNDA:0,_ZNSt16allocator_traitsISaISt6vectorIiSaIiEEEE8allocateERS3_m
FN:443,_ZNSt16allocator_traitsISaIiEE8allocateERS0_m
FNDA:0,_ZNSt16allocator_traitsISaIiEE8allocateERS0_m
FN:469,_ZNSt16allocator_traitsISaIiEE10deallocateERS0_Pim
FNDA:0,_ZNSt16allocator_traitsISaIiEE10deallocateERS0_Pim
FN:469,_ZNSt16allocator_traitsISaISt6vectorIiSaIiEEEE10deallocateERS3_PS2_m
FNDA:0,_ZNSt16allocator_traitsISaISt6vectorIiSaIiEEEE10deallocateERS3_PS2_m
FN:482,_ZNSt16allocator_traitsISaISt6vectorIiSaIiEEEE9constructIS2_JS2_EEEvRS3_PT_DpOT0_
FNDA:0,_ZNSt16allocator_traitsISaISt6vectorIiSaIiEEEE9constructIS2_JS2_EEEvRS3_PT_DpOT0_
FN:482,_ZNSt16allocator_traitsISaISt6vectorIiSaIiEEEE9constructIS2_JRKS2_EEEvRS3_PT_DpOT0_
FNDA:0,_ZNSt16allocator_traitsISaISt6vectorIiSaIiEEEE9constructIS2_JRKS2_EEEvRS3_PT_DpOT0_
FN:495,_ZNSt16allocator_traitsISaISt6vectorIiSaIiEEEE7destroyIS2_EEvRS3_PT_
FNDA:0,_ZNSt16allocator_traitsISaISt6vectorIiSaIiEEEE7destroyIS2_EEvRS3_PT_
FN:505,_ZNSt16allocator_traitsISaISt6vectorIiSaIiEEEE8max_sizeERKS3_
FNDA:0,_ZNSt16allocator_traitsISaISt6vectorIiSaIiEEEE8max_sizeERKS3_
FN:505,_ZNSt16allocator_traitsISaIiEE8max_sizeERKS0_
FNDA:0,_ZNSt16allocator_traitsISaIiEE8max_sizeERKS0_
FN:514,_ZNSt16allocator_traitsISaIiEE37select_on_container_copy_constructionERKS0_
FNDA:0,_ZNSt16allocator_traitsISaIiEE37select_on_container_copy_constructionERKS0_
FN:514,_ZNSt16allocator_traitsISaISt6vectorIiSaIiEEEE37select_on_container_copy_constructionERKS3_
FNDA:0,_ZNSt16allocator_traitsISaISt6vectorIiSaIiEEEE37select_on_container_copy_constructionERKS3_
FN:514,_ZNSt16allocator_traitsISaIcEE37select_on_container_copy_constructionERKS0_
FNDA:0,_ZNSt16allocator_traitsISaIcEE37select_on_container_copy_constructionERKS0_
FN:545,_ZSt18__do_alloc_on_moveISaIiEEvRT_S2_St17integral_constantIbLb1EE
FNDA:0,_ZSt18__do_alloc_on_moveISaIiEEvRT_S2_St17integral_constantIbLb1EE
FN:553,_ZSt15__alloc_on_moveISaIiEEvRT_S2_
FNDA:0,_ZSt15__alloc_on_moveISaIiEEvRT_S2_
FN:568,_ZSt18__do_alloc_on_swapISaIiEEvRT_S2_St17integral_constantIbLb0EE
FNDA:0,_ZSt18__do_alloc_on_swapISaIiEEvRT_S2_St17integral_constantIbLb0EE
FN:572,_ZSt15__alloc_on_swapISaIiEEvRT_S2_
FNDA:0,_ZSt15__alloc_on_swapISaIiEEvRT_S2_
DA:443,0
DA:444,0
DA:443,0
DA:444,0
DA:469,0
DA:470,0
DA:469,0
DA:470,0
DA:482,0
DA:484,0
DA:482,0
DA:484,0
DA:495,0
DA:497,0
DA:505,0
DA:506,0
DA:505,0
DA:506,0
DA:514,0
DA:515,0
DA:514,0
DA:515,0
DA:514,0
DA:515,0
DA:545,0
DA:546,0
DA:553,0
DA:557,0
DA:558,0
DA:568,0
DA:569,0
DA:572,0
DA:576,0
DA:577,0
end_of_record
SF:/usr/include/c++/9/bits/vector.tcc
FN:426,_ZNSt6vectorIS_IiSaIiEESaIS1_EE17_M_realloc_insertIJRKS1_EEEvN9__gnu_cxx17__normal_iteratorIPS1_S3_EEDpOT_
FNDA:0,_ZNSt6vectorIS_IiSaIiEESaIS1_EE17_M_realloc_insertIJRKS1_EEEvN9__gnu_cxx17__normal_iteratorIPS1_S3_EEDpOT_
DA:426,0
DA:435,0
DA:437,0
DA:438,0
DA:439,0
DA:440,0
DA:441,0
DA:449,0
DA:450,0
DA:456,0
DA:459,0
DA:461,0
DA:462,0
DA:464,0
DA:466,0
DA:467,0
DA:474,0
DA:475,0
DA:477,0
DA:481,0
DA:482,0
DA:485,0
DA:487,0
DA:488,0
DA:489,0
DA:491,0
DA:492,0
DA:493,0
DA:496,0
DA:498,0
DA:500,0
DA:501,0
DA:502,0
DA:503,0
DA:504,0
DA:505,0
end_of_record
SF:/usr/include/c++/9/bits/allocator.h
FN:138,_ZNSaISt6vectorIiSaIiEEEC2Ev
FNDA:0,_ZNSaISt6vectorIiSaIiEEEC2Ev
FN:138,_ZNSaIiEC2Ev
FNDA:0,_ZNSaIiEC2Ev
FN:141,_ZNSaIiEC2ERKS_
FNDA:0,_ZNSaIiEC2ERKS_
FN:141,_ZNSaISt6vectorIiSaIiEEEC2ERKS2_
FNDA:0,_ZNSaISt6vectorIiSaIiEEEC2ERKS2_
FN:153,_ZNSaIiED2Ev
FNDA:0,_ZNSaIiED2Ev
FN:153,_ZNSaISt6vectorIiSaIiEEED2Ev
FNDA:0,_ZNSaISt6vectorIiSaIiEEED2Ev
DA:138,0
DA:138,0
DA:141,0
DA:142,0
DA:141,0
DA:142,0
DA:153,0
DA:153,0
end_of_record
SF:/home/pato/TPIMorfMat/template-alumnos/lib/googletest-master/googletest/include/gtest/gtest-message.h
end_of_record
SF:/usr/include/c++/9/bits/predefined_ops.h
FN:42,_ZNK9__gnu_cxx5__ops15_Iter_less_iterclIPKiS4_EEbT_T0_
FNDA:0,_ZNK9__gnu_cxx5__ops15_Iter_less_iterclIPKiS4_EEbT_T0_
FN:42,_ZNK9__gnu_cxx5__ops15_Iter_less_iterclINS_17__normal_iteratorIPSt6vectorIiSaIiEES4_IS6_SaIS6_EEEESA_EEbT_T0_
FNDA:0,_ZNK9__gnu_cxx5__ops15_Iter_less_iterclINS_17__normal_iteratorIPSt6vectorIiSaIiEES4_IS6_SaIS6_EEEESA_EEbT_T0_
FN:48,_ZN9__gnu_cxx5__ops16__iter_less_iterEv
FNDA:0,_ZN9__gnu_cxx5__ops16__iter_less_iterEv
FN:60,_ZN9__gnu_cxx5__ops14_Iter_less_valC2ENS0_15_Iter_less_iterE
FNDA:0,_ZN9__gnu_cxx5__ops14_Iter_less_valC2ENS0_15_Iter_less_iterE
FN:64,_ZNK9__gnu_cxx5__ops14_Iter_less_valclINS_17__normal_iteratorIPSt6vectorIiSaIiEES4_IS6_SaIS6_EEEES6_EEbT_RT0_
FNDA:0,_ZNK9__gnu_cxx5__ops14_Iter_less_valclINS_17__normal_iteratorIPSt6vectorIiSaIiEES4_IS6_SaIS6_EEEES6_EEbT_RT0_
FN:89,_ZNK9__gnu_cxx5__ops14_Val_less_iterclISt6vectorIiSaIiEENS_17__normal_iteratorIPS5_S3_IS5_SaIS5_EEEEEEbRT_T0_
FNDA:0,_ZNK9__gnu_cxx5__ops14_Val_less_iterclISt6vectorIiSaIiEENS_17__normal_iteratorIPS5_S3_IS5_SaIS5_EEEEEEbRT_T0_
FN:98,_ZN9__gnu_cxx5__ops15__val_comp_iterENS0_15_Iter_less_iterE
FNDA:0,_ZN9__gnu_cxx5__ops15__val_comp_iterENS0_15_Iter_less_iterE
DA:42,0
DA:43,0
DA:42,0
DA:43,0
DA:48,0
DA:49,0
DA:60,0
DA:64,0
DA:65,0
DA:89,0
DA:90,0
DA:98,0
DA:99,0
end_of_record
SF:/usr/include/c++/9/bits/stl_iterator_base_funcs.h
FN:98,_ZSt10__distanceIPcENSt15iterator_traitsIT_E15difference_typeES2_S2_St26random_access_iterator_tag
FNDA:0,_ZSt10__distanceIPcENSt15iterator_traitsIT_E15difference_typeES2_S2_St26random_access_iterator_tag
FN:98,_ZSt10__distanceIPKcENSt15iterator_traitsIT_E15difference_typeES3_S3_St26random_access_iterator_tag
FNDA:0,_ZSt10__distanceIPKcENSt15iterator_traitsIT_E15difference_typeES3_S3_St26random_access_iterator_tag
FN:98,_ZSt10__distanceIPKSt6vectorIiSaIiEEENSt15iterator_traitsIT_E15difference_typeES6_S6_St26random_access_iterator_tag
FNDA:0,_ZSt10__distanceIPKSt6vectorIiSaIiEEENSt15iterator_traitsIT_E15difference_typeES6_S6_St26random_access_iterator_tag
FN:98,_ZSt10__distanceIPKiENSt15iterator_traitsIT_E15difference_typeES3_S3_St26random_access_iterator_tag
FNDA:0,_ZSt10__distanceIPKiENSt15iterator_traitsIT_E15difference_typeES3_S3_St26random_access_iterator_tag
FN:138,_ZSt8distanceIPcENSt15iterator_traitsIT_E15difference_typeES2_S2_
FNDA:0,_ZSt8distanceIPcENSt15iterator_traitsIT_E15difference_typeES2_S2_
FN:138,_ZSt8distanceIPKcENSt15iterator_traitsIT_E15difference_typeES3_S3_
FNDA:0,_ZSt8distanceIPKcENSt15iterator_traitsIT_E15difference_typeES3_S3_
FN:138,_ZSt8distanceIPKSt6vectorIiSaIiEEENSt15iterator_traitsIT_E15difference_typeES6_S6_
FNDA:0,_ZSt8distanceIPKSt6vectorIiSaIiEEENSt15iterator_traitsIT_E15difference_typeES6_S6_
FN:138,_ZSt8distanceIPKiENSt15iterator_traitsIT_E15difference_typeES3_S3_
FNDA:0,_ZSt8distanceIPKiENSt15iterator_traitsIT_E15difference_typeES3_S3_
DA:98,0
DA:104,0
DA:98,0
DA:104,0
DA:98,0
DA:104,0
DA:98,0
DA:104,0
DA:138,0
DA:141,0
DA:142,0
DA:138,0
DA:141,0
DA:142,0
DA:138,0
DA:141,0
DA:142,0
DA:138,0
DA:141,0
DA:142,0
end_of_record
SF:/home/pato/TPIMorfMat/template-alumnos/tests/ej4TESTNUESTROS.cpp
FN:8,_Z14sonLosActivos2RKSt6vectorIS_IiSaIiEESaIS1_EES5_
FNDA:4,_Z14sonLosActivos2RKSt6vectorIS_IiSaIiEESaIS1_EES5_
FN:26,_ZN48calcularContornoTest_CalcularContorno8Adyv1_Test8TestBodyEv
FNDA:1,_ZN48calcularContornoTest_CalcularContorno8Adyv1_Test8TestBodyEv
FN:26,_ZN48calcularContornoTest_CalcularContorno8Adyv1_TestC2Ev
FNDA:1,_ZN48calcularContornoTest_CalcularContorno8Adyv1_TestC2Ev
FN:46,_ZN48calcularContornoTest_CalcularContorno4Adyv1_Test8TestBodyEv
FNDA:1,_ZN48calcularContornoTest_CalcularContorno4Adyv1_Test8TestBodyEv
FN:46,_ZN48calcularContornoTest_CalcularContorno4Adyv1_TestC2Ev
FNDA:1,_ZN48calcularContornoTest_CalcularContorno4Adyv1_TestC2Ev
FN:66,_ZN48calcularContornoTest_CalcularContorno4Adyv2_Test8TestBodyEv
FNDA:1,_ZN48calcularContornoTest_CalcularContorno4Adyv2_Test8TestBodyEv
FN:66,_ZN48calcularContornoTest_CalcularContorno4Adyv2_TestC2Ev
FNDA:1,_ZN48calcularContornoTest_CalcularContorno4Adyv2_TestC2Ev
FN:86,_ZN48calcularContornoTest_CalcularContorno8Adyv2_Test8TestBodyEv
FNDA:1,_ZN48calcularContornoTest_CalcularContorno8Adyv2_Test8TestBodyEv
FN:86,_ZN48calcularContornoTest_CalcularContorno8Adyv2_TestC2Ev
FNDA:1,_ZN48calcularContornoTest_CalcularContorno8Adyv2_TestC2Ev
DA:8,4
DA:9,8
DA:10,28
DA:11,168
DA:12,144
DA:13,120
DA:14,60
DA:19,4
DA:20,8
DA:21,4
DA:22,8
DA:26,1
DA:34,10
DA:42,10
DA:43,1
DA:44,1
DA:26,1
DA:46,1
DA:54,10
DA:62,10
DA:63,1
DA:64,1
DA:46,1
DA:66,1
DA:74,10
DA:82,10
DA:83,1
DA:84,1
DA:66,1
DA:86,1
DA:94,10
DA:102,10
DA:103,1
DA:104,1
DA:86,1
end_of_record
SF:/usr/include/c++/9/bits/basic_string.tcc
FN:206,_ZNSt7__cxx1112basic_stringIcSt11char_traitsIcESaIcEE12_M_constructIPcEEvT_S7_St20forward_iterator_tag
FNDA:0,_ZNSt7__cxx1112basic_stringIcSt11char_traitsIcESaIcEE12_M_constructIPcEEvT_S7_St20forward_iterator_tag
FN:206,_ZNSt7__cxx1112basic_stringIcSt11char_traitsIcESaIcEE12_M_constructIPKcEEvT_S8_St20forward_iterator_tag
FNDA:0,_ZNSt7__cxx1112basic_stringIcSt11char_traitsIcESaIcEE12_M_constructIPKcEEvT_S8_St20forward_iterator_tag
DA:206,0
DA:211,0
DA:212,0
DA:215,0
DA:217,0
DA:219,0
DA:220,0
DA:225,0
DA:226,0
DA:228,0
DA:229,0
DA:232,0
DA:233,0
DA:206,0
DA:211,0
DA:212,0
DA:215,0
DA:217,0
DA:219,0
DA:220,0
DA:225,0
DA:226,0
DA:228,0
DA:229,0
DA:232,0
DA:233,0
end_of_record
SF:/usr/include/c++/9/ext/type_traits.h
FN:152,_ZN9__gnu_cxx17__is_null_pointerIcEEbPT_
FNDA:0,_ZN9__gnu_cxx17__is_null_pointerIcEEbPT_
FN:152,_ZN9__gnu_cxx17__is_null_pointerIKcEEbPT_
FNDA:0,_ZN9__gnu_cxx17__is_null_pointerIKcEEbPT_
DA:152,0
DA:153,0
DA:152,0
DA:153,0
end_of_record
SF:/home/pato/TPIMorfMat/template-alumnos/lib/googletest-master/googletest/include/gtest/internal/gtest-port.h
FN:1184,_ZN7testing8internal10scoped_ptrINSt7__cxx1112basic_stringIcSt11char_traitsIcESaIcEEEEC2EPS7_
FNDA:0,_ZN7testing8internal10scoped_ptrINSt7__cxx1112basic_stringIcSt11char_traitsIcESaIcEEEEC2EPS7_
FN:1185,_ZN7testing8internal10scoped_ptrINSt7__cxx1112basic_stringIcSt11char_traitsIcESaIcEEEED2Ev
FNDA:0,_ZN7testing8internal10scoped_ptrINSt7__cxx1112basic_stringIcSt11char_traitsIcESaIcEEEED2Ev
FN:1185,_ZN7testing8internal10scoped_ptrINSt7__cxx1118basic_stringstreamIcSt11char_traitsIcESaIcEEEED2Ev
FNDA:0,_ZN7testing8internal10scoped_ptrINSt7__cxx1118basic_stringstreamIcSt11char_traitsIcESaIcEEEED2Ev
FN:1197,_ZN7testing8internal10scoped_ptrINSt7__cxx1118basic_stringstreamIcSt11char_traitsIcESaIcEEEE5resetEPS7_
FNDA:0,_ZN7testing8internal10scoped_ptrINSt7__cxx1118basic_stringstreamIcSt11char_traitsIcESaIcEEEE5resetEPS7_
FN:1197,_ZN7testing8internal10scoped_ptrINSt7__cxx1112basic_stringIcSt11char_traitsIcESaIcEEEE5resetEPS7_
FNDA:0,_ZN7testing8internal10scoped_ptrINSt7__cxx1112basic_stringIcSt11char_traitsIcESaIcEEEE5resetEPS7_
DA:1184,0
DA:1185,0
DA:1185,0
DA:1197,0
DA:1198,0
DA:1199,0
DA:1200,0
DA:1202,0
DA:1204,0
DA:1197,0
DA:1198,0
DA:1199,0
DA:1200,0
DA:1202,0
DA:1204,0
end_of_record
SF:/usr/include/c++/9/bits/stl_vector.h
FN:94,_ZNSt12_Vector_baseIiSaIiEE17_Vector_impl_dataC2Ev
FNDA:0,_ZNSt12_Vector_baseIiSaIiEE17_Vector_impl_dataC2Ev
FN:94,_ZNSt12_Vector_baseISt6vectorIiSaIiEESaIS2_EE17_Vector_impl_dataC2Ev
FNDA:0,_ZNSt12_Vector_baseISt6vectorIiSaIiEESaIS2_EE17_Vector_impl_dataC2Ev
FN:99,_ZNSt12_Vector_baseIiSaIiEE17_Vector_impl_dataC2EOS2_
FNDA:0,_ZNSt12_Vector_baseIiSaIiEE17_Vector_impl_dataC2EOS2_
FN:106,_ZNSt12_Vector_baseIiSaIiEE17_Vector_impl_data12_M_copy_dataERKS2_
FNDA:0,_ZNSt12_Vector_baseIiSaIiEE17_Vector_impl_data12_M_copy_dataERKS2_
FN:114,_ZNSt12_Vector_baseIiSaIiEE17_Vector_impl_data12_M_swap_dataERS2_
FNDA:0,_ZNSt12_Vector_baseIiSaIiEE17_Vector_impl_data12_M_swap_dataERS2_
FN:128,_ZNSt12_Vector_baseISt6vectorIiSaIiEESaIS2_EE12_Vector_implC2Ev
FNDA:0,_ZNSt12_Vector_baseISt6vectorIiSaIiEESaIS2_EE12_Vector_implC2Ev
FN:133,_ZNSt12_Vector_baseISt6vectorIiSaIiEESaIS2_EE12_Vector_implC2ERKS3_
FNDA:0,_ZNSt12_Vector_baseISt6vectorIiSaIiEESaIS2_EE12_Vector_implC2ERKS3_
FN:133,_ZNSt12_Vector_baseIiSaIiEE12_Vector_implC2ERKS0_
FNDA:0,_ZNSt12_Vector_baseIiSaIiEE12_Vector_implC2ERKS0_
FN:140,_ZNSt12_Vector_baseIiSaIiEE12_Vector_implC2EOS2_
FNDA:0,_ZNSt12_Vector_baseIiSaIiEE12_Vector_implC2EOS2_
FN:273,_ZNSt12_Vector_baseIiSaIiEE19_M_get_Tp_allocatorEv
FNDA:0,_ZNSt12_Vector_baseIiSaIiEE19_M_get_Tp_allocatorEv
FN:273,_ZNSt12_Vector_baseISt6vectorIiSaIiEESaIS2_EE19_M_get_Tp_allocatorEv
FNDA:0,_ZNSt12_Vector_baseISt6vectorIiSaIiEESaIS2_EE19_M_get_Tp_allocatorEv
FN:277,_ZNKSt12_Vector_baseISt6vectorIiSaIiEESaIS2_EE19_M_get_Tp_allocatorEv
FNDA:0,_ZNKSt12_Vector_baseISt6vectorIiSaIiEESaIS2_EE19_M_get_Tp_allocatorEv
FN:277,_ZNKSt12_Vector_baseIiSaIiEE19_M_get_Tp_allocatorEv
FNDA:0,_ZNKSt12_Vector_baseIiSaIiEE19_M_get_Tp_allocatorEv
FN:281,_ZNKSt12_Vector_baseIiSaIiEE13get_allocatorEv
FNDA:0,_ZNKSt12_Vector_baseIiSaIiEE13get_allocatorEv
FN:285,_ZNSt12_Vector_baseISt6vectorIiSaIiEESaIS2_EEC2Ev
FNDA:0,_ZNSt12_Vector_baseISt6vectorIiSaIiEESaIS2_EEC2Ev
FN:290,_ZNSt12_Vector_baseIiSaIiEEC2ERKS0_
FNDA:0,_ZNSt12_Vector_baseIiSaIiEEC2ERKS0_
FN:290,_ZNSt12_Vector_baseISt6vectorIiSaIiEESaIS2_EEC2ERKS3_
FNDA:0,_ZNSt12_Vector_baseISt6vectorIiSaIiEESaIS2_EEC2ERKS3_
FN:300,_ZNSt12_Vector_baseIiSaIiEEC2EmRKS0_
FNDA:0,_ZNSt12_Vector_baseIiSaIiEEC2EmRKS0_
FN:300,_ZNSt12_Vector_baseISt6vectorIiSaIiEESaIS2_EEC2EmRKS3_
FNDA:0,_ZNSt12_Vector_baseISt6vectorIiSaIiEESaIS2_EEC2EmRKS3_
FN:305,_ZNSt12_Vector_baseIiSaIiEEC2EOS1_
FNDA:0,_ZNSt12_Vector_baseIiSaIiEEC2EOS1_
FN:330,_ZNSt12_Vector_baseIiSaIiEED2Ev
FNDA:0,_ZNSt12_Vector_baseIiSaIiEED2Ev
FN:330,_ZNSt12_Vector_baseISt6vectorIiSaIiEESaIS2_EED2Ev
FNDA:0,_ZNSt12_Vector_baseISt6vectorIiSaIiEESaIS2_EED2Ev
FN:340,_ZNSt12_Vector_baseIiSaIiEE11_M_allocateEm
FNDA:0,_ZNSt12_Vector_baseIiSaIiEE11_M_allocateEm
FN:340,_ZNSt12_Vector_baseISt6vectorIiSaIiEESaIS2_EE11_M_allocateEm
FNDA:0,_ZNSt12_Vector_baseISt6vectorIiSaIiEESaIS2_EE11_M_allocateEm
FN:347,_ZNSt12_Vector_baseIiSaIiEE13_M_deallocateEPim
FNDA:0,_ZNSt12_Vector_baseIiSaIiEE13_M_deallocateEPim
FN:347,_ZNSt12_Vector_baseISt6vectorIiSaIiEESaIS2_EE13_M_deallocateEPS2_m
FNDA:0,_ZNSt12_Vector_baseISt6vectorIiSaIiEESaIS2_EE13_M_deallocateEPS2_m
FN:356,_ZNSt12_Vector_baseISt6vectorIiSaIiEESaIS2_EE17_M_create_storageEm
FNDA:0,_ZNSt12_Vector_baseISt6vectorIiSaIiEESaIS2_EE17_M_create_storageEm
FN:356,_ZNSt12_Vector_baseIiSaIiEE17_M_create_storageEm
FNDA:0,_ZNSt12_Vector_baseIiSaIiEE17_M_create_storageEm
FN:428,_ZNSt6vectorIS_IiSaIiEESaIS1_EE19_S_nothrow_relocateESt17integral_constantIbLb1EE
FNDA:0,_ZNSt6vectorIS_IiSaIiEESaIS1_EE19_S_nothrow_relocateESt17integral_constantIbLb1EE
FN:441,_ZNSt6vectorIS_IiSaIiEESaIS1_EE15_S_use_relocateEv
FNDA:0,_ZNSt6vectorIS_IiSaIiEESaIS1_EE15_S_use_relocateEv
FN:450,_ZNSt6vectorIS_IiSaIiEESaIS1_EE14_S_do_relocateEPS1_S4_S4_RS2_St17integral_constantIbLb1EE
FNDA:0,_ZNSt6vectorIS_IiSaIiEESaIS1_EE14_S_do_relocateEPS1_S4_S4_RS2_St17integral_constantIbLb1EE
FN:462,_ZNSt6vectorIS_IiSaIiEESaIS1_EE11_S_relocateEPS1_S4_S4_RS2_
FNDA:0,_ZNSt6vectorIS_IiSaIiEESaIS1_EE11_S_relocateEPS1_S4_S4_RS2_
FN:484,_ZNSt6vectorIS_IiSaIiEESaIS1_EEC2Ev
FNDA:0,_ZNSt6vectorIS_IiSaIiEESaIS1_EEC2Ev
FN:494,_ZNSt6vectorIiSaIiEEC2ERKS0_
FNDA:0,_ZNSt6vectorIiSaIiEEC2ERKS0_
FN:550,_ZNSt6vectorIiSaIiEEC2ERKS1_
FNDA:0,_ZNSt6vectorIiSaIiEEC2ERKS1_
FN:550,_ZNSt6vectorIS_IiSaIiEESaIS1_EEC2ERKS3_
FNDA:0,_ZNSt6vectorIS_IiSaIiEESaIS1_EEC2ERKS3_
FN:569,_ZNSt6vectorIiSaIiEEC2EOS1_
FNDA:0,_ZNSt6vectorIiSaIiEEC2EOS1_
FN:622,_ZNSt6vectorIS_IiSaIiEESaIS1_EEC2ESt16initializer_listIS1_ERKS2_
FNDA:0,_ZNSt6vectorIS_IiSaIiEESaIS1_EEC2ESt16initializer_listIS1_ERKS2_
FN:622,_ZNSt6vectorIiSaIiEEC2ESt16initializer_listIiERKS0_
FNDA:0,_ZNSt6vectorIiSaIiEEC2ESt16initializer_listIiERKS0_
FN:675,_ZNSt6vectorIiSaIiEED2Ev
FNDA:0,_ZNSt6vectorIiSaIiEED2Ev
FN:675,_ZNSt6vectorIS_IiSaIiEESaIS1_EED2Ev
FNDA:0,_ZNSt6vectorIS_IiSaIiEESaIS1_EED2Ev
FN:706,_ZNSt6vectorIiSaIiEEaSEOS1_
FNDA:0,_ZNSt6vectorIiSaIiEEaSEOS1_
FN:808,_ZNSt6vectorIS_IiSaIiEESaIS1_EE5beginEv
FNDA:0,_ZNSt6vectorIS_IiSaIiEESaIS1_EE5beginEv
FN:817,_ZNKSt6vectorIiSaIiEE5beginEv
FNDA:0,_ZNKSt6vectorIiSaIiEE5beginEv
FN:817,_ZNKSt6vectorIS_IiSaIiEESaIS1_EE5beginEv
FNDA:0,_ZNKSt6vectorIS_IiSaIiEESaIS1_EE5beginEv
FN:826,_ZNSt6vectorIS_IiSaIiEESaIS1_EE3endEv
FNDA:0,_ZNSt6vectorIS_IiSaIiEESaIS1_EE3endEv
FN:835,_ZNKSt6vectorIiSaIiEE3endEv
FNDA:0,_ZNKSt6vectorIiSaIiEE3endEv
FN:835,_ZNKSt6vectorIS_IiSaIiEESaIS1_EE3endEv
FNDA:0,_ZNKSt6vectorIS_IiSaIiEESaIS1_EE3endEv
FN:915,_ZNKSt6vectorIS_IiSaIiEESaIS1_EE4sizeEv
FNDA:0,_ZNKSt6vectorIS_IiSaIiEESaIS1_EE4sizeEv
FN:915,_ZNKSt6vectorIiSaIiEE4sizeEv
FNDA:0,_ZNKSt6vectorIiSaIiEE4sizeEv
FN:920,_ZNKSt6vectorIS_IiSaIiEESaIS1_EE8max_sizeEv
FNDA:0,_ZNKSt6vectorIS_IiSaIiEESaIS1_EE8max_sizeEv
FN:1058,_ZNKSt6vectorIiSaIiEEixEm
FNDA:0,_ZNKSt6vectorIiSaIiEEixEm
FN:1058,_ZNKSt6vectorIS_IiSaIiEESaIS1_EEixEm
FNDA:0,_ZNKSt6vectorIS_IiSaIiEESaIS1_EEixEm
FN:1184,_ZNSt6vectorIS_IiSaIiEESaIS1_EE9push_backERKS1_
FNDA:0,_ZNSt6vectorIS_IiSaIiEESaIS1_EE9push_backERKS1_
FN:1477,_ZNSt6vectorIiSaIiEE4swapERS1_
FNDA:0,_ZNSt6vectorIiSaIiEE4swapERS1_
FN:1574,_ZNSt6vectorIiSaIiEE19_M_range_initializeIPKiEEvT_S5_St20forward_iterator_tag
FNDA:0,_ZNSt6vectorIiSaIiEE19_M_range_initializeIPKiEEvT_S5_St20forward_iterator_tag
FN:1574,_ZNSt6vectorIS_IiSaIiEESaIS1_EE19_M_range_initializeIPKS1_EEvT_S7_St20forward_iterator_tag
FNDA:0,_ZNSt6vectorIS_IiSaIiEESaIS1_EE19_M_range_initializeIPKS1_EEvT_S7_St20forward_iterator_tag
FN:1753,_ZNKSt6vectorIS_IiSaIiEESaIS1_EE12_M_check_lenEmPKc
FNDA:0,_ZNKSt6vectorIS_IiSaIiEESaIS1_EE12_M_check_lenEmPKc
FN:1764,_ZNSt6vectorIS_IiSaIiEESaIS1_EE17_S_check_init_lenEmRKS2_
FNDA:0,_ZNSt6vectorIS_IiSaIiEESaIS1_EE17_S_check_init_lenEmRKS2_
FN:1764,_ZNSt6vectorIiSaIiEE17_S_check_init_lenEmRKS0_
FNDA:0,_ZNSt6vectorIiSaIiEE17_S_check_init_lenEmRKS0_
FN:1773,_ZNSt6vectorIS_IiSaIiEESaIS1_EE11_S_max_sizeERKS2_
FNDA:0,_ZNSt6vectorIS_IiSaIiEESaIS1_EE11_S_max_sizeERKS2_
FN:1773,_ZNSt6vectorIiSaIiEE11_S_max_sizeERKS0_
FNDA:0,_ZNSt6vectorIiSaIiEE11_S_max_sizeERKS0_
FN:1812,_ZNSt6vectorIiSaIiEE14_M_move_assignEOS1_St17integral_constantIbLb1EE
FNDA:0,_ZNSt6vectorIiSaIiEE14_M_move_assignEOS1_St17integral_constantIbLb1EE
FN:1888,_ZSteqISt6vectorIiSaIiEESaIS2_EEbRKS0_IT_T0_ES8_
FNDA:0,_ZSteqISt6vectorIiSaIiEESaIS2_EEbRKS0_IT_T0_ES8_
FN:1888,_ZSteqIiSaIiEEbRKSt6vectorIT_T0_ES6_
FNDA:0,_ZSteqIiSaIiEEbRKSt6vectorIT_T0_ES6_
FN:1905,_ZStltIiSaIiEEbRKSt6vectorIT_T0_ES6_
FNDA:0,_ZStltIiSaIiEEbRKSt6vectorIT_T0_ES6_
FN:1936,_ZSt4swapIiSaIiEEvRSt6vectorIT_T0_ES5_
FNDA:0,_ZSt4swapIiSaIiEEvRSt6vectorIT_T0_ES5_
DA:94,0
DA:95,0
DA:96,0
DA:94,0
DA:95,0
DA:96,0
DA:99,0
DA:100,0
DA:101,0
DA:102,0
DA:106,0
DA:108,0
DA:109,0
DA:110,0
DA:111,0
DA:114,0
DA:118,0
DA:119,0
DA:120,0
DA:121,0
DA:122,0
DA:128,0
DA:130,0
DA:131,0
DA:133,0
DA:134,0
DA:135,0
DA:133,0
DA:134,0
DA:135,0
DA:140,0
DA:141,0
DA:142,0
DA:273,0
DA:274,0
DA:273,0
DA:274,0
DA:277,0
DA:278,0
DA:277,0
DA:278,0
DA:281,0
DA:282,0
DA:285,0
DA:290,0
DA:291,0
DA:290,0
DA:291,0
DA:300,0
DA:301,0
DA:302,0
DA:300,0
DA:301,0
DA:302,0
DA:305,0
DA:330,0
DA:332,0
DA:333,0
DA:334,0
DA:330,0
DA:332,0
DA:333,0
DA:334,0
DA:340,0
DA:343,0
DA:340,0
DA:343,0
DA:347,0
DA:350,0
DA:351,0
DA:352,0
DA:347,0
DA:350,0
DA:351,0
DA:352,0
DA:356,0
DA:358,0
DA:359,0
DA:360,0
DA:361,0
DA:356,0
DA:358,0
DA:359,0
DA:360,0
DA:361,0
DA:428,0
DA:433,0
DA:441,0
DA:446,0
DA:450,0
DA:453,0
DA:462,0
DA:466,0
DA:484,0
DA:494,0
DA:495,0
DA:550,0
DA:552,0
DA:554,0
DA:555,0
DA:557,0
DA:558,0
DA:550,0
DA:552,0
DA:554,0
DA:555,0
DA:557,0
DA:558,0
DA:569,0
DA:622,0
DA:624,0
DA:626,0
DA:628,0
DA:622,0
DA:624,0
DA:626,0
DA:628,0
DA:675,0
DA:677,0
DA:678,0
DA:680,0
DA:675,0
DA:677,0
DA:678,0
DA:680,0
DA:706,0
DA:708,0
DA:711,0
DA:712,0
DA:808,0
DA:809,0
DA:817,0
DA:818,0
DA:817,0
DA:818,0
DA:826,0
DA:827,0
DA:835,0
DA:836,0
DA:835,0
DA:836,0
DA:915,0
DA:916,0
DA:915,0
DA:916,0
DA:920,0
DA:921,0
DA:1058,0
DA:1061,0
DA:1058,0
DA:1061,0
DA:1184,0
DA:1186,0
DA:1189,0
DA:1191,0
DA:1195,0
DA:1196,0
DA:1477,0
DA:1483,0
DA:1484,0
DA:1486,0
DA:1574,0
DA:1577,0
DA:1578,0
DA:1579,0
DA:1580,0
DA:1581,0
DA:1582,0
DA:1584,0
DA:1585,0
DA:1574,0
DA:1577,0
DA:1578,0
DA:1579,0
DA:1580,0
DA:1581,0
DA:1582,0
DA:1584,0
DA:1585,0
DA:1753,0
DA:1755,0
DA:1756,0
DA:1758,0
DA:1759,0
DA:1764,0
DA:1766,0
DA:1767,0
DA:1769,0
DA:1764,0
DA:1766,0
DA:1767,0
DA:1769,0
DA:1773,0
DA:1778,0
DA:1780,0
DA:1781,0
DA:1773,0
DA:1778,0
DA:1780,0
DA:1781,0
DA:1812,0
DA:1814,0
DA:1815,0
DA:1816,0
DA:1817,0
DA:1818,0
DA:1888,0
DA:1889,0
DA:1890,0
DA:1888,0
DA:1889,0
DA:1890,0
DA:1905,0
DA:1906,0
DA:1907,0
DA:1936,0
DA:1938,0
end_of_record
TN:
SF:/usr/include/c++/9/iostream
end_of_record
SF:/home/pato/TPIMorfMat/template-alumnos/ejercicios.h
end_of_record
TN:
SF:/usr/include/c++/9/bits/basic_string.tcc
FN:206,_ZNSt7__cxx1112basic_stringIcSt11char_traitsIcESaIcEE12_M_constructIPcEEvT_S7_St20forward_iterator_tag
FNDA:0,_ZNSt7__cxx1112basic_stringIcSt11char_traitsIcESaIcEE12_M_constructIPcEEvT_S7_St20forward_iterator_tag
FN:206,_ZNSt7__cxx1112basic_stringIcSt11char_traitsIcESaIcEE12_M_constructIPKcEEvT_S8_St20forward_iterator_tag
FNDA:0,_ZNSt7__cxx1112basic_stringIcSt11char_traitsIcESaIcEE12_M_constructIPKcEEvT_S8_St20forward_iterator_tag
DA:206,0
DA:211,0
DA:212,0
DA:215,0
DA:217,0
DA:219,0
DA:220,0
DA:225,0
DA:226,0
DA:228,0
DA:229,0
DA:232,0
DA:233,0
DA:206,0
DA:211,0
DA:212,0
DA:215,0
DA:217,0
DA:219,0
DA:220,0
DA:225,0
DA:226,0
DA:228,0
DA:229,0
DA:232,0
DA:233,0
end_of_record
SF:/usr/include/c++/9/ext/type_traits.h
FN:152,_ZN9__gnu_cxx17__is_null_pointerIcEEbPT_
FNDA:0,_ZN9__gnu_cxx17__is_null_pointerIcEEbPT_
FN:152,_ZN9__gnu_cxx17__is_null_pointerIKcEEbPT_
FNDA:0,_ZN9__gnu_cxx17__is_null_pointerIKcEEbPT_
DA:152,0
DA:153,0
DA:152,0
DA:153,0
end_of_record
SF:/home/pato/TPIMorfMat/template-alumnos/lib/googletest-master/googletest/include/gtest/internal/gtest-port.h
FN:1184,_ZN7testing8internal10scoped_ptrINSt7__cxx1112basic_stringIcSt11char_traitsIcESaIcEEEEC2EPS7_
FNDA:0,_ZN7testing8internal10scoped_ptrINSt7__cxx1112basic_stringIcSt11char_traitsIcESaIcEEEEC2EPS7_
FN:1185,_ZN7testing8internal10scoped_ptrINSt7__cxx1112basic_stringIcSt11char_traitsIcESaIcEEEED2Ev
FNDA:0,_ZN7testing8internal10scoped_ptrINSt7__cxx1112basic_stringIcSt11char_traitsIcESaIcEEEED2Ev
FN:1185,_ZN7testing8internal10scoped_ptrINSt7__cxx1118basic_stringstreamIcSt11char_traitsIcESaIcEEEED2Ev
FNDA:0,_ZN7testing8internal10scoped_ptrINSt7__cxx1118basic_stringstreamIcSt11char_traitsIcESaIcEEEED2Ev
FN:1197,_ZN7testing8internal10scoped_ptrINSt7__cxx1118basic_stringstreamIcSt11char_traitsIcESaIcEEEE5resetEPS7_
FNDA:0,_ZN7testing8internal10scoped_ptrINSt7__cxx1118basic_stringstreamIcSt11char_traitsIcESaIcEEEE5resetEPS7_
FN:1197,_ZN7testing8internal10scoped_ptrINSt7__cxx1112basic_stringIcSt11char_traitsIcESaIcEEEE5resetEPS7_
FNDA:0,_ZN7testing8internal10scoped_ptrINSt7__cxx1112basic_stringIcSt11char_traitsIcESaIcEEEE5resetEPS7_
DA:1184,0
DA:1185,0
DA:1185,0
DA:1197,0
DA:1198,0
DA:1199,0
DA:1200,0
DA:1202,0
DA:1204,0
DA:1197,0
DA:1198,0
DA:1199,0
DA:1200,0
DA:1202,0
DA:1204,0
end_of_record
SF:/usr/include/c++/9/bits/stl_vector.h
FN:94,_ZNSt12_Vector_baseIiSaIiEE17_Vector_impl_dataC2Ev
FNDA:0,_ZNSt12_Vector_baseIiSaIiEE17_Vector_impl_dataC2Ev
FN:94,_ZNSt12_Vector_baseISt6vectorIiSaIiEESaIS2_EE17_Vector_impl_dataC2Ev
FNDA:0,_ZNSt12_Vector_baseISt6vectorIiSaIiEESaIS2_EE17_Vector_impl_dataC2Ev
FN:99,_ZNSt12_Vector_baseIiSaIiEE17_Vector_impl_dataC2EOS2_
FNDA:0,_ZNSt12_Vector_baseIiSaIiEE17_Vector_impl_dataC2EOS2_
FN:106,_ZNSt12_Vector_baseIiSaIiEE17_Vector_impl_data12_M_copy_dataERKS2_
FNDA:1362,_ZNSt12_Vector_baseIiSaIiEE17_Vector_impl_data12_M_copy_dataERKS2_
FN:114,_ZNSt12_Vector_baseIiSaIiEE17_Vector_impl_data12_M_swap_dataERS2_
FNDA:454,_ZNSt12_Vector_baseIiSaIiEE17_Vector_impl_data12_M_swap_dataERS2_
FN:128,_ZNSt12_Vector_baseISt6vectorIiSaIiEESaIS2_EE12_Vector_implC2Ev
FNDA:0,_ZNSt12_Vector_baseISt6vectorIiSaIiEESaIS2_EE12_Vector_implC2Ev
FN:133,_ZNSt12_Vector_baseISt6vectorIiSaIiEESaIS2_EE12_Vector_implC2ERKS3_
FNDA:0,_ZNSt12_Vector_baseISt6vectorIiSaIiEESaIS2_EE12_Vector_implC2ERKS3_
FN:133,_ZNSt12_Vector_baseIiSaIiEE12_Vector_implC2ERKS0_
FNDA:0,_ZNSt12_Vector_baseIiSaIiEE12_Vector_implC2ERKS0_
FN:140,_ZNSt12_Vector_baseIiSaIiEE12_Vector_implC2EOS2_
FNDA:0,_ZNSt12_Vector_baseIiSaIiEE12_Vector_implC2EOS2_
FN:273,_ZNSt12_Vector_baseIiSaIiEE19_M_get_Tp_allocatorEv
FNDA:0,_ZNSt12_Vector_baseIiSaIiEE19_M_get_Tp_allocatorEv
FN:273,_ZNSt12_Vector_baseISt6vectorIiSaIiEESaIS2_EE19_M_get_Tp_allocatorEv
FNDA:0,_ZNSt12_Vector_baseISt6vectorIiSaIiEESaIS2_EE19_M_get_Tp_allocatorEv
FN:277,_ZNKSt12_Vector_baseISt6vectorIiSaIiEESaIS2_EE19_M_get_Tp_allocatorEv
FNDA:0,_ZNKSt12_Vector_baseISt6vectorIiSaIiEESaIS2_EE19_M_get_Tp_allocatorEv
FN:277,_ZNKSt12_Vector_baseIiSaIiEE19_M_get_Tp_allocatorEv
FNDA:0,_ZNKSt12_Vector_baseIiSaIiEE19_M_get_Tp_allocatorEv
FN:281,_ZNKSt12_Vector_baseIiSaIiEE13get_allocatorEv
FNDA:226,_ZNKSt12_Vector_baseIiSaIiEE13get_allocatorEv
FN:285,_ZNSt12_Vector_baseISt6vectorIiSaIiEESaIS2_EEC2Ev
FNDA:0,_ZNSt12_Vector_baseISt6vectorIiSaIiEESaIS2_EEC2Ev
FN:290,_ZNSt12_Vector_baseIiSaIiEEC2ERKS0_
FNDA:0,_ZNSt12_Vector_baseIiSaIiEEC2ERKS0_
FN:290,_ZNSt12_Vector_baseISt6vectorIiSaIiEESaIS2_EEC2ERKS3_
FNDA:0,_ZNSt12_Vector_baseISt6vectorIiSaIiEESaIS2_EEC2ERKS3_
FN:300,_ZNSt12_Vector_baseIiSaIiEEC2EmRKS0_
FNDA:0,_ZNSt12_Vector_baseIiSaIiEEC2EmRKS0_
FN:300,_ZNSt12_Vector_baseISt6vectorIiSaIiEESaIS2_EEC2EmRKS3_
FNDA:0,_ZNSt12_Vector_baseISt6vectorIiSaIiEESaIS2_EEC2EmRKS3_
FN:305,_ZNSt12_Vector_baseIiSaIiEEC2EOS1_
FNDA:0,_ZNSt12_Vector_baseIiSaIiEEC2EOS1_
FN:330,_ZNSt12_Vector_baseIiSaIiEED2Ev
FNDA:0,_ZNSt12_Vector_baseIiSaIiEED2Ev
FN:330,_ZNSt12_Vector_baseISt6vectorIiSaIiEESaIS2_EED2Ev
FNDA:0,_ZNSt12_Vector_baseISt6vectorIiSaIiEESaIS2_EED2Ev
FN:340,_ZNSt12_Vector_baseIiSaIiEE11_M_allocateEm
FNDA:0,_ZNSt12_Vector_baseIiSaIiEE11_M_allocateEm
FN:340,_ZNSt12_Vector_baseISt6vectorIiSaIiEESaIS2_EE11_M_allocateEm
FNDA:0,_ZNSt12_Vector_baseISt6vectorIiSaIiEESaIS2_EE11_M_allocateEm
FN:347,_ZNSt12_Vector_baseIiSaIiEE13_M_deallocateEPim
FNDA:0,_ZNSt12_Vector_baseIiSaIiEE13_M_deallocateEPim
FN:347,_ZNSt12_Vector_baseISt6vectorIiSaIiEESaIS2_EE13_M_deallocateEPS2_m
FNDA:0,_ZNSt12_Vector_baseISt6vectorIiSaIiEESaIS2_EE13_M_deallocateEPS2_m
FN:356,_ZNSt12_Vector_baseISt6vectorIiSaIiEESaIS2_EE17_M_create_storageEm
FNDA:0,_ZNSt12_Vector_baseISt6vectorIiSaIiEESaIS2_EE17_M_create_storageEm
FN:356,_ZNSt12_Vector_baseIiSaIiEE17_M_create_storageEm
FNDA:0,_ZNSt12_Vector_baseIiSaIiEE17_M_create_storageEm
FN:428,_ZNSt6vectorIS_IiSaIiEESaIS1_EE19_S_nothrow_relocateESt17integral_constantIbLb1EE
FNDA:0,_ZNSt6vectorIS_IiSaIiEESaIS1_EE19_S_nothrow_relocateESt17integral_constantIbLb1EE
FN:441,_ZNSt6vectorIS_IiSaIiEESaIS1_EE15_S_use_relocateEv
FNDA:0,_ZNSt6vectorIS_IiSaIiEESaIS1_EE15_S_use_relocateEv
FN:450,_ZNSt6vectorIS_IiSaIiEESaIS1_EE14_S_do_relocateEPS1_S4_S4_RS2_St17integral_constantIbLb1EE
FNDA:0,_ZNSt6vectorIS_IiSaIiEESaIS1_EE14_S_do_relocateEPS1_S4_S4_RS2_St17integral_constantIbLb1EE
FN:462,_ZNSt6vectorIS_IiSaIiEESaIS1_EE11_S_relocateEPS1_S4_S4_RS2_
FNDA:0,_ZNSt6vectorIS_IiSaIiEESaIS1_EE11_S_relocateEPS1_S4_S4_RS2_
FN:484,_ZNSt6vectorIS_IiSaIiEESaIS1_EEC2Ev
FNDA:0,_ZNSt6vectorIS_IiSaIiEESaIS1_EEC2Ev
FN:494,_ZNSt6vectorIiSaIiEEC2ERKS0_
FNDA:226,_ZNSt6vectorIiSaIiEEC2ERKS0_
FN:550,_ZNSt6vectorIiSaIiEEC2ERKS1_
FNDA:0,_ZNSt6vectorIiSaIiEEC2ERKS1_
FN:550,_ZNSt6vectorIS_IiSaIiEESaIS1_EEC2ERKS3_
FNDA:0,_ZNSt6vectorIS_IiSaIiEESaIS1_EEC2ERKS3_
FN:569,_ZNSt6vectorIiSaIiEEC2EOS1_
FNDA:0,_ZNSt6vectorIiSaIiEEC2EOS1_
FN:622,_ZNSt6vectorIS_IiSaIiEESaIS1_EEC2ESt16initializer_listIS1_ERKS2_
FNDA:0,_ZNSt6vectorIS_IiSaIiEESaIS1_EEC2ESt16initializer_listIS1_ERKS2_
FN:622,_ZNSt6vectorIiSaIiEEC2ESt16initializer_listIiERKS0_
FNDA:0,_ZNSt6vectorIiSaIiEEC2ESt16initializer_listIiERKS0_
FN:675,_ZNSt6vectorIiSaIiEED2Ev
FNDA:0,_ZNSt6vectorIiSaIiEED2Ev
FN:675,_ZNSt6vectorIS_IiSaIiEESaIS1_EED2Ev
FNDA:0,_ZNSt6vectorIS_IiSaIiEESaIS1_EED2Ev
FN:706,_ZNSt6vectorIiSaIiEEaSEOS1_
FNDA:226,_ZNSt6vectorIiSaIiEEaSEOS1_
FN:808,_ZNSt6vectorIS_IiSaIiEESaIS1_EE5beginEv
FNDA:0,_ZNSt6vectorIS_IiSaIiEESaIS1_EE5beginEv
FN:817,_ZNKSt6vectorIiSaIiEE5beginEv
FNDA:0,_ZNKSt6vectorIiSaIiEE5beginEv
FN:817,_ZNKSt6vectorIS_IiSaIiEESaIS1_EE5beginEv
FNDA:0,_ZNKSt6vectorIS_IiSaIiEESaIS1_EE5beginEv
FN:826,_ZNSt6vectorIS_IiSaIiEESaIS1_EE3endEv
FNDA:0,_ZNSt6vectorIS_IiSaIiEESaIS1_EE3endEv
FN:835,_ZNKSt6vectorIiSaIiEE3endEv
FNDA:0,_ZNKSt6vectorIiSaIiEE3endEv
FN:835,_ZNKSt6vectorIS_IiSaIiEESaIS1_EE3endEv
FNDA:0,_ZNKSt6vectorIS_IiSaIiEESaIS1_EE3endEv
FN:915,_ZNKSt6vectorIS_IiSaIiEESaIS1_EE4sizeEv
FNDA:0,_ZNKSt6vectorIS_IiSaIiEESaIS1_EE4sizeEv
FN:915,_ZNKSt6vectorIiSaIiEE4sizeEv
FNDA:0,_ZNKSt6vectorIiSaIiEE4sizeEv
FN:920,_ZNKSt6vectorIS_IiSaIiEESaIS1_EE8max_sizeEv
FNDA:0,_ZNKSt6vectorIS_IiSaIiEESaIS1_EE8max_sizeEv
FN:1058,_ZNKSt6vectorIiSaIiEEixEm
FNDA:0,_ZNKSt6vectorIiSaIiEEixEm
FN:1058,_ZNKSt6vectorIS_IiSaIiEESaIS1_EEixEm
FNDA:0,_ZNKSt6vectorIS_IiSaIiEESaIS1_EEixEm
FN:1184,_ZNSt6vectorIS_IiSaIiEESaIS1_EE9push_backERKS1_
FNDA:0,_ZNSt6vectorIS_IiSaIiEESaIS1_EE9push_backERKS1_
FN:1477,_ZNSt6vectorIiSaIiEE4swapERS1_
FNDA:2,_ZNSt6vectorIiSaIiEE4swapERS1_
FN:1574,_ZNSt6vectorIiSaIiEE19_M_range_initializeIPKiEEvT_S5_St20forward_iterator_tag
FNDA:0,_ZNSt6vectorIiSaIiEE19_M_range_initializeIPKiEEvT_S5_St20forward_iterator_tag
FN:1574,_ZNSt6vectorIS_IiSaIiEESaIS1_EE19_M_range_initializeIPKS1_EEvT_S7_St20forward_iterator_tag
FNDA:0,_ZNSt6vectorIS_IiSaIiEESaIS1_EE19_M_range_initializeIPKS1_EEvT_S7_St20forward_iterator_tag
FN:1753,_ZNKSt6vectorIS_IiSaIiEESaIS1_EE12_M_check_lenEmPKc
FNDA:0,_ZNKSt6vectorIS_IiSaIiEESaIS1_EE12_M_check_lenEmPKc
FN:1764,_ZNSt6vectorIS_IiSaIiEESaIS1_EE17_S_check_init_lenEmRKS2_
FNDA:0,_ZNSt6vectorIS_IiSaIiEESaIS1_EE17_S_check_init_lenEmRKS2_
FN:1764,_ZNSt6vectorIiSaIiEE17_S_check_init_lenEmRKS0_
FNDA:0,_ZNSt6vectorIiSaIiEE17_S_check_init_lenEmRKS0_
FN:1773,_ZNSt6vectorIS_IiSaIiEESaIS1_EE11_S_max_sizeERKS2_
FNDA:0,_ZNSt6vectorIS_IiSaIiEESaIS1_EE11_S_max_sizeERKS2_
FN:1773,_ZNSt6vectorIiSaIiEE11_S_max_sizeERKS0_
FNDA:0,_ZNSt6vectorIiSaIiEE11_S_max_sizeERKS0_
FN:1812,_ZNSt6vectorIiSaIiEE14_M_move_assignEOS1_St17integral_constantIbLb1EE
FNDA:226,_ZNSt6vectorIiSaIiEE14_M_move_assignEOS1_St17integral_constantIbLb1EE
FN:1888,_ZSteqISt6vectorIiSaIiEESaIS2_EEbRKS0_IT_T0_ES8_
FNDA:12,_ZSteqISt6vectorIiSaIiEESaIS2_EEbRKS0_IT_T0_ES8_
FN:1888,_ZSteqIiSaIiEEbRKSt6vectorIT_T0_ES6_
FNDA:0,_ZSteqIiSaIiEEbRKSt6vectorIT_T0_ES6_
FN:1905,_ZStltIiSaIiEEbRKSt6vectorIT_T0_ES6_
FNDA:432,_ZStltIiSaIiEEbRKSt6vectorIT_T0_ES6_
FN:1936,_ZSt4swapIiSaIiEEvRSt6vectorIT_T0_ES5_
FNDA:2,_ZSt4swapIiSaIiEEvRSt6vectorIT_T0_ES5_
DA:94,0
DA:95,0
DA:96,0
DA:94,0
DA:95,0
DA:96,0
DA:99,0
DA:100,0
DA:101,0
DA:102,0
DA:106,1362
DA:108,1362
DA:109,1362
DA:110,1362
DA:111,1362
DA:114,454
DA:118,454
DA:119,454
DA:120,454
DA:121,454
DA:122,454
DA:128,0
DA:130,0
DA:131,0
DA:133,0
DA:134,0
DA:135,0
DA:133,0
DA:134,0
DA:135,0
DA:140,0
DA:141,0
DA:142,0
DA:273,0
DA:274,0
DA:273,0
DA:274,0
DA:277,0
DA:278,0
DA:277,0
DA:278,0
DA:281,226
DA:282,226
DA:285,0
DA:290,0
DA:291,0
DA:290,0
DA:291,0
DA:300,0
DA:301,0
DA:302,0
DA:300,0
DA:301,0
DA:302,0
DA:305,0
DA:330,0
DA:332,0
DA:333,0
DA:334,0
DA:330,0
DA:332,0
DA:333,0
DA:334,0
DA:340,0
DA:343,0
DA:340,0
DA:343,0
DA:347,0
DA:350,0
DA:351,0
DA:352,0
DA:347,0
DA:350,0
DA:351,0
DA:352,0
DA:356,0
DA:358,0
DA:359,0
DA:360,0
DA:361,0
DA:356,0
DA:358,0
DA:359,0
DA:360,0
DA:361,0
DA:428,0
DA:433,0
DA:441,0
DA:446,0
DA:450,0
DA:453,0
DA:462,0
DA:466,0
DA:484,0
DA:494,226
DA:495,226
DA:550,0
DA:552,0
DA:554,0
DA:555,0
DA:557,0
DA:558,0
DA:550,0
DA:552,0
DA:554,0
DA:555,0
DA:557,0
DA:558,0
DA:569,0
DA:622,0
DA:624,0
DA:626,0
DA:628,0
DA:622,0
DA:624,0
DA:626,0
DA:628,0
DA:675,0
DA:677,0
DA:678,0
DA:680,0
DA:675,0
DA:677,0
DA:678,0
DA:680,0
DA:706,226
DA:708,226
DA:711,226
DA:712,226
DA:808,0
DA:809,0
DA:817,0
DA:818,0
DA:817,0
DA:818,0
DA:826,0
DA:827,0
DA:835,0
DA:836,0
DA:835,0
DA:836,0
DA:915,0
DA:916,0
DA:915,0
DA:916,0
DA:920,0
DA:921,0
DA:1058,0
DA:1061,0
DA:1058,0
DA:1061,0
DA:1184,0
DA:1186,0
DA:1189,0
DA:1191,0
DA:1195,0
DA:1196,0
DA:1477,2
DA:1483,2
DA:1484,2
DA:1486,2
DA:1574,0
DA:1577,0
DA:1578,0
DA:1579,0
DA:1580,0
DA:1581,0
DA:1582,0
DA:1584,0
DA:1585,0
DA:1574,0
DA:1577,0
DA:1578,0
DA:1579,0
DA:1580,0
DA:1581,0
DA:1582,0
DA:1584,0
DA:1585,0
DA:1753,0
DA:1755,0
DA:1756,0
DA:1758,0
DA:1759,0
DA:1764,0
DA:1766,0
DA:1767,0
DA:1769,0
DA:1764,0
DA:1766,0
DA:1767,0
DA:1769,0
DA:1773,0
DA:1778,0
DA:1780,0
DA:1781,0
DA:1773,0
DA:1778,0
DA:1780,0
DA:1781,0
DA:1812,226
DA:1814,452
DA:1815,226
DA:1816,226
DA:1817,226
DA:1818,226
DA:1888,0
DA:1889,0
DA:1890,0
DA:1888,12
DA:1889,12
DA:1890,12
DA:1905,432
DA:1906,432
DA:1907,432
DA:1936,2
DA:1938,2
end_of_record
SF:/usr/include/c++/9/bits/stl_iterator.h
FN:806,_ZN9__gnu_cxx17__normal_iteratorIPSt6vectorIiSaIiEES1_IS3_SaIS3_EEEC2ERKS4_
FNDA:0,_ZN9__gnu_cxx17__normal_iteratorIPSt6vectorIiSaIiEES1_IS3_SaIS3_EEEC2ERKS4_
FN:806,_ZN9__gnu_cxx17__normal_iteratorIPKSt6vectorIiSaIiEES1_IS3_SaIS3_EEEC2ERKS5_
FNDA:0,_ZN9__gnu_cxx17__normal_iteratorIPKSt6vectorIiSaIiEES1_IS3_SaIS3_EEEC2ERKS5_
FN:806,_ZN9__gnu_cxx17__normal_iteratorIPKiSt6vectorIiSaIiEEEC2ERKS2_
FNDA:0,_ZN9__gnu_cxx17__normal_iteratorIPKiSt6vectorIiSaIiEEEC2ERKS2_
FN:819,_ZNK9__gnu_cxx17__normal_iteratorIPSt6vectorIiSaIiEES1_IS3_SaIS3_EEEdeEv
FNDA:0,_ZNK9__gnu_cxx17__normal_iteratorIPSt6vectorIiSaIiEES1_IS3_SaIS3_EEEdeEv
FN:819,_ZNK9__gnu_cxx17__normal_iteratorIPKSt6vectorIiSaIiEES1_IS3_SaIS3_EEEdeEv
FNDA:0,_ZNK9__gnu_cxx17__normal_iteratorIPKSt6vectorIiSaIiEES1_IS3_SaIS3_EEEdeEv
FN:827,_ZN9__gnu_cxx17__normal_iteratorIPKSt6vectorIiSaIiEES1_IS3_SaIS3_EEEppEv
FNDA:0,_ZN9__gnu_cxx17__normal_iteratorIPKSt6vectorIiSaIiEES1_IS3_SaIS3_EEEppEv
FN:827,_ZN9__gnu_cxx17__normal_iteratorIPSt6vectorIiSaIiEES1_IS3_SaIS3_EEEppEv
FNDA:0,_ZN9__gnu_cxx17__normal_iteratorIPSt6vectorIiSaIiEES1_IS3_SaIS3_EEEppEv
FN:839,_ZN9__gnu_cxx17__normal_iteratorIPSt6vectorIiSaIiEES1_IS3_SaIS3_EEEmmEv
FNDA:220,_ZN9__gnu_cxx17__normal_iteratorIPSt6vectorIiSaIiEES1_IS3_SaIS3_EEEmmEv
FN:859,_ZNK9__gnu_cxx17__normal_iteratorIPSt6vectorIiSaIiEES1_IS3_SaIS3_EEEplEl
FNDA:0,_ZNK9__gnu_cxx17__normal_iteratorIPSt6vectorIiSaIiEES1_IS3_SaIS3_EEEplEl
FN:867,_ZNK9__gnu_cxx17__normal_iteratorIPSt6vectorIiSaIiEES1_IS3_SaIS3_EEEmiEl
FNDA:2,_ZNK9__gnu_cxx17__normal_iteratorIPSt6vectorIiSaIiEES1_IS3_SaIS3_EEEmiEl
FN:871,_ZNK9__gnu_cxx17__normal_iteratorIPKiSt6vectorIiSaIiEEE4baseEv
FNDA:0,_ZNK9__gnu_cxx17__normal_iteratorIPKiSt6vectorIiSaIiEEE4baseEv
FN:871,_ZNK9__gnu_cxx17__normal_iteratorIPSt6vectorIiSaIiEES1_IS3_SaIS3_EEE4baseEv
FNDA:0,_ZNK9__gnu_cxx17__normal_iteratorIPSt6vectorIiSaIiEES1_IS3_SaIS3_EEE4baseEv
FN:871,_ZNK9__gnu_cxx17__normal_iteratorIPKSt6vectorIiSaIiEES1_IS3_SaIS3_EEE4baseEv
FNDA:0,_ZNK9__gnu_cxx17__normal_iteratorIPKSt6vectorIiSaIiEES1_IS3_SaIS3_EEE4baseEv
FN:893,_ZN9__gnu_cxxeqIPSt6vectorIiSaIiEES1_IS3_SaIS3_EEEEbRKNS_17__normal_iteratorIT_T0_EESC_
FNDA:16,_ZN9__gnu_cxxeqIPSt6vectorIiSaIiEES1_IS3_SaIS3_EEEEbRKNS_17__normal_iteratorIT_T0_EESC_
FN:907,_ZN9__gnu_cxxneIPKSt6vectorIiSaIiEES1_IS3_SaIS3_EEEEbRKNS_17__normal_iteratorIT_T0_EESD_
FNDA:0,_ZN9__gnu_cxxneIPKSt6vectorIiSaIiEES1_IS3_SaIS3_EEEEbRKNS_17__normal_iteratorIT_T0_EESD_
FN:907,_ZN9__gnu_cxxneIPSt6vectorIiSaIiEES1_IS3_SaIS3_EEEEbRKNS_17__normal_iteratorIT_T0_EESC_
FNDA:0,_ZN9__gnu_cxxneIPSt6vectorIiSaIiEES1_IS3_SaIS3_EEEEbRKNS_17__normal_iteratorIT_T0_EESC_
FN:922,_ZN9__gnu_cxxltIPSt6vectorIiSaIiEES1_IS3_SaIS3_EEEEbRKNS_17__normal_iteratorIT_T0_EESC_
FNDA:2,_ZN9__gnu_cxxltIPSt6vectorIiSaIiEES1_IS3_SaIS3_EEEEbRKNS_17__normal_iteratorIT_T0_EESC_
FN:989,_ZN9__gnu_cxxmiIPSt6vectorIiSaIiEES1_IS3_SaIS3_EEEENS_17__normal_iteratorIT_T0_E15difference_typeERKSA_SD_
FNDA:0,_ZN9__gnu_cxxmiIPSt6vectorIiSaIiEES1_IS3_SaIS3_EEEENS_17__normal_iteratorIT_T0_E15difference_typeERKSA_SD_
FN:1010,_ZSt12__niter_baseIPKiSt6vectorIiSaIiEEET_N9__gnu_cxx17__normal_iteratorIS5_T0_EE
FNDA:0,_ZSt12__niter_baseIPKiSt6vectorIiSaIiEEET_N9__gnu_cxx17__normal_iteratorIS5_T0_EE
FN:1010,_ZSt12__niter_baseIPSt6vectorIiSaIiEES0_IS2_SaIS2_EEET_N9__gnu_cxx17__normal_iteratorIS6_T0_EE
FNDA:0,_ZSt12__niter_baseIPSt6vectorIiSaIiEES0_IS2_SaIS2_EEET_N9__gnu_cxx17__normal_iteratorIS6_T0_EE
FN:1010,_ZSt12__niter_baseIPKSt6vectorIiSaIiEES0_IS2_SaIS2_EEET_N9__gnu_cxx17__normal_iteratorIS7_T0_EE
FNDA:0,_ZSt12__niter_baseIPKSt6vectorIiSaIiEES0_IS2_SaIS2_EEET_N9__gnu_cxx17__normal_iteratorIS7_T0_EE
FN:1057,_ZNSt13move_iteratorIPSt6vectorIiSaIiEEEC2ES3_
FNDA:0,_ZNSt13move_iteratorIPSt6vectorIiSaIiEEEC2ES3_
FN:1066,_ZNKSt13move_iteratorIPSt6vectorIiSaIiEEE4baseEv
FNDA:0,_ZNKSt13move_iteratorIPSt6vectorIiSaIiEEE4baseEv
FN:1070,_ZNKSt13move_iteratorIPSt6vectorIiSaIiEEEdeEv
FNDA:0,_ZNKSt13move_iteratorIPSt6vectorIiSaIiEEEdeEv
FN:1078,_ZNSt13move_iteratorIPSt6vectorIiSaIiEEEppEv
FNDA:0,_ZNSt13move_iteratorIPSt6vectorIiSaIiEEEppEv
FN:1145,_ZSteqIPSt6vectorIiSaIiEEEbRKSt13move_iteratorIT_ES8_
FNDA:0,_ZSteqIPSt6vectorIiSaIiEEEbRKSt13move_iteratorIT_ES8_
FN:1157,_ZStneIPSt6vectorIiSaIiEEEbRKSt13move_iteratorIT_ES8_
FNDA:0,_ZStneIPSt6vectorIiSaIiEEEbRKSt13move_iteratorIT_ES8_
FN:1242,_ZSt32__make_move_if_noexcept_iteratorISt6vectorIiSaIiEESt13move_iteratorIPS2_EET0_PT_
FNDA:0,_ZSt32__make_move_if_noexcept_iteratorISt6vectorIiSaIiEESt13move_iteratorIPS2_EET0_PT_
DA:806,0
DA:807,0
DA:806,0
DA:807,0
DA:806,0
DA:807,0
DA:819,0
DA:820,0
DA:819,0
DA:820,0
DA:827,0
DA:829,0
DA:830,0
DA:827,0
DA:829,0
DA:830,0
DA:839,220
DA:841,220
DA:842,220
DA:859,0
DA:860,0
DA:867,2
DA:868,2
DA:871,0
DA:872,0
DA:871,0
DA:872,0
DA:871,0
DA:872,0
DA:893,16
DA:896,16
DA:907,0
DA:910,0
DA:907,0
DA:910,0
DA:922,2
DA:925,2
DA:989,0
DA:992,0
DA:1010,0
DA:1012,0
DA:1010,0
DA:1012,0
DA:1010,0
DA:1012,0
DA:1057,0
DA:1058,0
DA:1066,0
DA:1067,0
DA:1070,0
DA:1071,0
DA:1078,0
DA:1080,0
DA:1081,0
DA:1145,0
DA:1147,0
DA:1157,0
DA:1159,0
DA:1242,0
DA:1243,0
end_of_record
SF:/usr/include/c++/9/bits/vector.tcc
FN:426,_ZNSt6vectorIS_IiSaIiEESaIS1_EE17_M_realloc_insertIJRKS1_EEEvN9__gnu_cxx17__normal_iteratorIPS1_S3_EEDpOT_
FNDA:0,_ZNSt6vectorIS_IiSaIiEESaIS1_EE17_M_realloc_insertIJRKS1_EEEvN9__gnu_cxx17__normal_iteratorIPS1_S3_EEDpOT_
DA:426,0
DA:435,0
DA:437,0
DA:438,0
DA:439,0
DA:440,0
DA:441,0
DA:449,0
DA:450,0
DA:456,0
DA:459,0
DA:461,0
DA:462,0
DA:464,0
DA:466,0
DA:467,0
DA:474,0
DA:475,0
DA:477,0
DA:481,0
DA:482,0
DA:485,0
DA:487,0
DA:488,0
DA:489,0
DA:491,0
DA:492,0
DA:493,0
DA:496,0
DA:498,0
DA:500,0
DA:501,0
DA:502,0
DA:503,0
DA:504,0
DA:505,0
end_of_record
SF:/usr/include/c++/9/bits/alloc_traits.h
FN:443,_ZNSt16allocator_traitsISaISt6vectorIiSaIiEEEE8allocateERS3_m
FNDA:0,_ZNSt16allocator_traitsISaISt6vectorIiSaIiEEEE8allocateERS3_m
FN:443,_ZNSt16allocator_traitsISaIiEE8allocateERS0_m
FNDA:0,_ZNSt16allocator_traitsISaIiEE8allocateERS0_m
FN:469,_ZNSt16allocator_traitsISaIiEE10deallocateERS0_Pim
FNDA:0,_ZNSt16allocator_traitsISaIiEE10deallocateERS0_Pim
FN:469,_ZNSt16allocator_traitsISaISt6vectorIiSaIiEEEE10deallocateERS3_PS2_m
FNDA:0,_ZNSt16allocator_traitsISaISt6vectorIiSaIiEEEE10deallocateERS3_PS2_m
FN:482,_ZNSt16allocator_traitsISaISt6vectorIiSaIiEEEE9constructIS2_JS2_EEEvRS3_PT_DpOT0_
FNDA:0,_ZNSt16allocator_traitsISaISt6vectorIiSaIiEEEE9constructIS2_JS2_EEEvRS3_PT_DpOT0_
FN:482,_ZNSt16allocator_traitsISaISt6vectorIiSaIiEEEE9constructIS2_JRKS2_EEEvRS3_PT_DpOT0_
FNDA:0,_ZNSt16allocator_traitsISaISt6vectorIiSaIiEEEE9constructIS2_JRKS2_EEEvRS3_PT_DpOT0_
FN:495,_ZNSt16allocator_traitsISaISt6vectorIiSaIiEEEE7destroyIS2_EEvRS3_PT_
FNDA:0,_ZNSt16allocator_traitsISaISt6vectorIiSaIiEEEE7destroyIS2_EEvRS3_PT_
FN:505,_ZNSt16allocator_traitsISaISt6vectorIiSaIiEEEE8max_sizeERKS3_
FNDA:0,_ZNSt16allocator_traitsISaISt6vectorIiSaIiEEEE8max_sizeERKS3_
FN:505,_ZNSt16allocator_traitsISaIiEE8max_sizeERKS0_
FNDA:0,_ZNSt16allocator_traitsISaIiEE8max_sizeERKS0_
FN:514,_ZNSt16allocator_traitsISaIiEE37select_on_container_copy_constructionERKS0_
FNDA:0,_ZNSt16allocator_traitsISaIiEE37select_on_container_copy_constructionERKS0_
FN:514,_ZNSt16allocator_traitsISaISt6vectorIiSaIiEEEE37select_on_container_copy_constructionERKS3_
FNDA:0,_ZNSt16allocator_traitsISaISt6vectorIiSaIiEEEE37select_on_container_copy_constructionERKS3_
FN:514,_ZNSt16allocator_traitsISaIcEE37select_on_container_copy_constructionERKS0_
FNDA:0,_ZNSt16allocator_traitsISaIcEE37select_on_container_copy_constructionERKS0_
FN:545,_ZSt18__do_alloc_on_moveISaIiEEvRT_S2_St17integral_constantIbLb1EE
FNDA:226,_ZSt18__do_alloc_on_moveISaIiEEvRT_S2_St17integral_constantIbLb1EE
FN:553,_ZSt15__alloc_on_moveISaIiEEvRT_S2_
FNDA:226,_ZSt15__alloc_on_moveISaIiEEvRT_S2_
FN:568,_ZSt18__do_alloc_on_swapISaIiEEvRT_S2_St17integral_constantIbLb0EE
FNDA:2,_ZSt18__do_alloc_on_swapISaIiEEvRT_S2_St17integral_constantIbLb0EE
FN:572,_ZSt15__alloc_on_swapISaIiEEvRT_S2_
FNDA:2,_ZSt15__alloc_on_swapISaIiEEvRT_S2_
DA:443,0
DA:444,0
DA:443,0
DA:444,0
DA:469,0
DA:470,0
DA:469,0
DA:470,0
DA:482,0
DA:484,0
DA:482,0
DA:484,0
DA:495,0
DA:497,0
DA:505,0
DA:506,0
DA:505,0
DA:506,0
DA:514,0
DA:515,0
DA:514,0
DA:515,0
DA:514,0
DA:515,0
DA:545,226
DA:546,226
DA:553,226
DA:557,226
DA:558,226
DA:568,2
DA:569,2
DA:572,2
DA:576,2
DA:577,2
end_of_record
SF:/usr/include/c++/9/bits/allocator.h
FN:138,_ZNSaISt6vectorIiSaIiEEEC2Ev
FNDA:0,_ZNSaISt6vectorIiSaIiEEEC2Ev
FN:138,_ZNSaIiEC2Ev
FNDA:0,_ZNSaIiEC2Ev
FN:141,_ZNSaIiEC2ERKS_
FNDA:0,_ZNSaIiEC2ERKS_
FN:141,_ZNSaISt6vectorIiSaIiEEEC2ERKS2_
FNDA:0,_ZNSaISt6vectorIiSaIiEEEC2ERKS2_
FN:153,_ZNSaIiED2Ev
FNDA:0,_ZNSaIiED2Ev
FN:153,_ZNSaISt6vectorIiSaIiEEED2Ev
FNDA:0,_ZNSaISt6vectorIiSaIiEEED2Ev
DA:138,0
DA:138,0
DA:141,0
DA:142,0
DA:141,0
DA:142,0
DA:153,0
DA:153,0
end_of_record
SF:/home/pato/TPIMorfMat/template-alumnos/lib/googletest-master/googletest/include/gtest/gtest-message.h
end_of_record
SF:/usr/include/c++/9/bits/predefined_ops.h
FN:42,_ZNK9__gnu_cxx5__ops15_Iter_less_iterclIPKiS4_EEbT_T0_
FNDA:1144,_ZNK9__gnu_cxx5__ops15_Iter_less_iterclIPKiS4_EEbT_T0_
FN:42,_ZNK9__gnu_cxx5__ops15_Iter_less_iterclINS_17__normal_iteratorIPSt6vectorIiSaIiEES4_IS6_SaIS6_EEEESA_EEbT_T0_
FNDA:230,_ZNK9__gnu_cxx5__ops15_Iter_less_iterclINS_17__normal_iteratorIPSt6vectorIiSaIiEES4_IS6_SaIS6_EEEESA_EEbT_T0_
FN:48,_ZN9__gnu_cxx5__ops16__iter_less_iterEv
FNDA:448,_ZN9__gnu_cxx5__ops16__iter_less_iterEv
FN:60,_ZN9__gnu_cxx5__ops14_Iter_less_valC2ENS0_15_Iter_less_iterE
FNDA:0,_ZN9__gnu_cxx5__ops14_Iter_less_valC2ENS0_15_Iter_less_iterE
FN:64,_ZNK9__gnu_cxx5__ops14_Iter_less_valclINS_17__normal_iteratorIPSt6vectorIiSaIiEES4_IS6_SaIS6_EEEES6_EEbT_RT0_
FNDA:0,_ZNK9__gnu_cxx5__ops14_Iter_less_valclINS_17__normal_iteratorIPSt6vectorIiSaIiEES4_IS6_SaIS6_EEEES6_EEbT_RT0_
FN:89,_ZNK9__gnu_cxx5__ops14_Val_less_iterclISt6vectorIiSaIiEENS_17__normal_iteratorIPS5_S3_IS5_SaIS5_EEEEEEbRT_T0_
FNDA:202,_ZNK9__gnu_cxx5__ops14_Val_less_iterclISt6vectorIiSaIiEENS_17__normal_iteratorIPS5_S3_IS5_SaIS5_EEEEEEbRT_T0_
FN:98,_ZN9__gnu_cxx5__ops15__val_comp_iterENS0_15_Iter_less_iterE
FNDA:188,_ZN9__gnu_cxx5__ops15__val_comp_iterENS0_15_Iter_less_iterE
DA:42,1144
DA:43,1144
DA:42,230
DA:43,230
DA:48,448
DA:49,448
DA:60,0
DA:64,0
DA:65,0
DA:89,202
DA:90,202
DA:98,188
DA:99,188
end_of_record
SF:/usr/include/c++/9/bits/stl_iterator_base_funcs.h
FN:98,_ZSt10__distanceIPcENSt15iterator_traitsIT_E15difference_typeES2_S2_St26random_access_iterator_tag
FNDA:0,_ZSt10__distanceIPcENSt15iterator_traitsIT_E15difference_typeES2_S2_St26random_access_iterator_tag
FN:98,_ZSt10__distanceIPKcENSt15iterator_traitsIT_E15difference_typeES3_S3_St26random_access_iterator_tag
FNDA:0,_ZSt10__distanceIPKcENSt15iterator_traitsIT_E15difference_typeES3_S3_St26random_access_iterator_tag
FN:98,_ZSt10__distanceIPKSt6vectorIiSaIiEEENSt15iterator_traitsIT_E15difference_typeES6_S6_St26random_access_iterator_tag
FNDA:0,_ZSt10__distanceIPKSt6vectorIiSaIiEEENSt15iterator_traitsIT_E15difference_typeES6_S6_St26random_access_iterator_tag
FN:98,_ZSt10__distanceIPKiENSt15iterator_traitsIT_E15difference_typeES3_S3_St26random_access_iterator_tag
FNDA:0,_ZSt10__distanceIPKiENSt15iterator_traitsIT_E15difference_typeES3_S3_St26random_access_iterator_tag
FN:138,_ZSt8distanceIPcENSt15iterator_traitsIT_E15difference_typeES2_S2_
FNDA:0,_ZSt8distanceIPcENSt15iterator_traitsIT_E15difference_typeES2_S2_
FN:138,_ZSt8distanceIPKcENSt15iterator_traitsIT_E15difference_typeES3_S3_
FNDA:0,_ZSt8distanceIPKcENSt15iterator_traitsIT_E15difference_typeES3_S3_
FN:138,_ZSt8distanceIPKSt6vectorIiSaIiEEENSt15iterator_traitsIT_E15difference_typeES6_S6_
FNDA:0,_ZSt8distanceIPKSt6vectorIiSaIiEEENSt15iterator_traitsIT_E15difference_typeES6_S6_
FN:138,_ZSt8distanceIPKiENSt15iterator_traitsIT_E15difference_typeES3_S3_
FNDA:0,_ZSt8distanceIPKiENSt15iterator_traitsIT_E15difference_typeES3_S3_
DA:98,0
DA:104,0
DA:98,0
DA:104,0
DA:98,0
DA:104,0
DA:98,0
DA:104,0
DA:138,0
DA:141,0
DA:142,0
DA:138,0
DA:141,0
DA:142,0
DA:138,0
DA:141,0
DA:142,0
DA:138,0
DA:141,0
DA:142,0
end_of_record
SF:/usr/include/c++/9/iostream
end_of_record
SF:/usr/include/c++/9/new
FN:173,_ZnwmPv
FNDA:0,_ZnwmPv
FN:179,_ZdlPvS_
FNDA:0,_ZdlPvS_
DA:173,0
DA:174,0
DA:179,0
end_of_record
SF:/usr/include/c++/9/bits/stl_uninitialized.h
FN:76,_ZNSt20__uninitialized_copyILb0EE13__uninit_copyIN9__gnu_cxx17__normal_iteratorIPKSt6vectorIiSaIiEES4_IS6_SaIS6_EEEEPS6_EET0_T_SE_SD_
FNDA:0,_ZNSt20__uninitialized_copyILb0EE13__uninit_copyIN9__gnu_cxx17__normal_iteratorIPKSt6vectorIiSaIiEES4_IS6_SaIS6_EEEEPS6_EET0_T_SE_SD_
FN:76,_ZNSt20__uninitialized_copyILb0EE13__uninit_copyISt13move_iteratorIPSt6vectorIiSaIiEEES6_EET0_T_S9_S8_
FNDA:0,_ZNSt20__uninitialized_copyILb0EE13__uninit_copyISt13move_iteratorIPSt6vectorIiSaIiEEES6_EET0_T_S9_S8_
FN:76,_ZNSt20__uninitialized_copyILb0EE13__uninit_copyIPKSt6vectorIiSaIiEEPS4_EET0_T_S9_S8_
FNDA:0,_ZNSt20__uninitialized_copyILb0EE13__uninit_copyIPKSt6vectorIiSaIiEEPS4_EET0_T_S9_S8_
FN:99,_ZNSt20__uninitialized_copyILb1EE13__uninit_copyIN9__gnu_cxx17__normal_iteratorIPKiSt6vectorIiSaIiEEEEPiEET0_T_SC_SB_
FNDA:0,_ZNSt20__uninitialized_copyILb1EE13__uninit_copyIN9__gnu_cxx17__normal_iteratorIPKiSt6vectorIiSaIiEEEEPiEET0_T_SC_SB_
FN:99,_ZNSt20__uninitialized_copyILb1EE13__uninit_copyIPKiPiEET0_T_S6_S5_
FNDA:0,_ZNSt20__uninitialized_copyILb1EE13__uninit_copyIPKiPiEET0_T_S6_S5_
FN:115,_ZSt18uninitialized_copyIN9__gnu_cxx17__normal_iteratorIPKiSt6vectorIiSaIiEEEEPiET0_T_SA_S9_
FNDA:0,_ZSt18uninitialized_copyIN9__gnu_cxx17__normal_iteratorIPKiSt6vectorIiSaIiEEEEPiET0_T_SA_S9_
FN:115,_ZSt18uninitialized_copyISt13move_iteratorIPSt6vectorIiSaIiEEES4_ET0_T_S7_S6_
FNDA:0,_ZSt18uninitialized_copyISt13move_iteratorIPSt6vectorIiSaIiEEES4_ET0_T_S7_S6_
FN:115,_ZSt18uninitialized_copyIPKSt6vectorIiSaIiEEPS2_ET0_T_S7_S6_
FNDA:0,_ZSt18uninitialized_copyIPKSt6vectorIiSaIiEEPS2_ET0_T_S7_S6_
FN:115,_ZSt18uninitialized_copyIPKiPiET0_T_S4_S3_
FNDA:0,_ZSt18uninitialized_copyIPKiPiET0_T_S4_S3_
FN:115,_ZSt18uninitialized_copyIN9__gnu_cxx17__normal_iteratorIPKSt6vectorIiSaIiEES2_IS4_SaIS4_EEEEPS4_ET0_T_SC_SB_
FNDA:0,_ZSt18uninitialized_copyIN9__gnu_cxx17__normal_iteratorIPKSt6vectorIiSaIiEES2_IS4_SaIS4_EEEEPS4_ET0_T_SC_SB_
FN:287,_ZSt22__uninitialized_copy_aIN9__gnu_cxx17__normal_iteratorIPKiSt6vectorIiSaIiEEEEPiiET0_T_SA_S9_RSaIT1_E
FNDA:0,_ZSt22__uninitialized_copy_aIN9__gnu_cxx17__normal_iteratorIPKiSt6vectorIiSaIiEEEEPiiET0_T_SA_S9_RSaIT1_E
FN:287,_ZSt22__uninitialized_copy_aISt13move_iteratorIPSt6vectorIiSaIiEEES4_S3_ET0_T_S7_S6_RSaIT1_E
FNDA:0,_ZSt22__uninitialized_copy_aISt13move_iteratorIPSt6vectorIiSaIiEEES4_S3_ET0_T_S7_S6_RSaIT1_E
FN:287,_ZSt22__uninitialized_copy_aIPKSt6vectorIiSaIiEEPS2_S2_ET0_T_S7_S6_RSaIT1_E
FNDA:0,_ZSt22__uninitialized_copy_aIPKSt6vectorIiSaIiEEPS2_S2_ET0_T_S7_S6_RSaIT1_E
FN:287,_ZSt22__uninitialized_copy_aIPKiPiiET0_T_S4_S3_RSaIT1_E
FNDA:0,_ZSt22__uninitialized_copy_aIPKiPiiET0_T_S4_S3_RSaIT1_E
FN:287,_ZSt22__uninitialized_copy_aIN9__gnu_cxx17__normal_iteratorIPKSt6vectorIiSaIiEES2_IS4_SaIS4_EEEEPS4_S4_ET0_T_SC_SB_RSaIT1_E
FNDA:0,_ZSt22__uninitialized_copy_aIN9__gnu_cxx17__normal_iteratorIPKSt6vectorIiSaIiEES2_IS4_SaIS4_EEEEPS4_S4_ET0_T_SC_SB_RSaIT1_E
FN:305,_ZSt34__uninitialized_move_if_noexcept_aIPSt6vectorIiSaIiEES3_SaIS2_EET0_T_S6_S5_RT1_
FNDA:0,_ZSt34__uninitialized_move_if_noexcept_aIPSt6vectorIiSaIiEES3_SaIS2_EET0_T_S6_S5_RT1_
FN:887,_ZSt19__relocate_object_aISt6vectorIiSaIiEES2_SaIS2_EEvPT_PT0_RT1_
FNDA:0,_ZSt19__relocate_object_aISt6vectorIiSaIiEES2_SaIS2_EEvPT_PT0_RT1_
FN:918,_ZSt14__relocate_a_1IPSt6vectorIiSaIiEES3_SaIS2_EET0_T_S6_S5_RT1_
FNDA:0,_ZSt14__relocate_a_1IPSt6vectorIiSaIiEES3_SaIS2_EET0_T_S6_S5_RT1_
FN:940,_ZSt12__relocate_aIPSt6vectorIiSaIiEES3_SaIS2_EET0_T_S6_S5_RT1_
FNDA:0,_ZSt12__relocate_aIPSt6vectorIiSaIiEES3_SaIS2_EET0_T_S6_S5_RT1_
DA:76,0
DA:79,0
DA:82,0
DA:83,0
DA:84,0
DA:86,0
DA:88,0
DA:89,0
DA:76,0
DA:79,0
DA:82,0
DA:83,0
DA:84,0
DA:86,0
DA:88,0
DA:89,0
DA:76,0
DA:79,0
DA:82,0
DA:83,0
DA:84,0
DA:86,0
DA:88,0
DA:89,0
DA:99,0
DA:101,0
DA:99,0
DA:101,0
DA:115,0
DA:128,0
DA:134,0
DA:115,0
DA:128,0
DA:134,0
DA:115,0
DA:128,0
DA:134,0
DA:115,0
DA:128,0
DA:134,0
DA:115,0
DA:128,0
DA:134,0
DA:287,0
DA:289,0
DA:287,0
DA:289,0
DA:287,0
DA:289,0
DA:287,0
DA:289,0
DA:287,0
DA:289,0
DA:305,0
DA:311,0
DA:312,0
DA:887,0
DA:894,0
DA:895,0
DA:896,0
DA:918,0
DA:930,0
DA:931,0
DA:932,0
DA:934,0
DA:940,0
DA:946,0
DA:948,0
end_of_record
SF:/usr/include/c++/9/bits/stl_algobase.h
FN:123,_ZSt9iter_swapIN9__gnu_cxx17__normal_iteratorIPSt6vectorIiSaIiEES2_IS4_SaIS4_EEEES8_EvT_T0_
FNDA:2,_ZSt9iter_swapIN9__gnu_cxx17__normal_iteratorIPSt6vectorIiSaIiEES2_IS4_SaIS4_EEEES8_EvT_T0_
FN:198,_ZSt3minImERKT_S2_S2_
FNDA:0,_ZSt3minImERKT_S2_S2_
FN:222,_ZSt3maxImERKT_S2_S2_
FNDA:0,_ZSt3maxImERKT_S2_S2_
FN:280,_ZSt12__niter_baseIPSt6vectorIiSaIiEEET_S4_
FNDA:0,_ZSt12__niter_baseIPSt6vectorIiSaIiEEET_S4_
FN:280,_ZSt12__niter_baseIPKiET_S2_
FNDA:0,_ZSt12__niter_baseIPKiET_S2_
FN:280,_ZSt12__niter_baseIPiET_S1_
FNDA:0,_ZSt12__niter_baseIPiET_S1_
FN:289,_ZSt12__niter_wrapIN9__gnu_cxx17__normal_iteratorIPSt6vectorIiSaIiEES2_IS4_SaIS4_EEEES5_ET_S9_T0_
FNDA:0,_ZSt12__niter_wrapIN9__gnu_cxx17__normal_iteratorIPSt6vectorIiSaIiEES2_IS4_SaIS4_EEEES5_ET_S9_T0_
FN:295,_ZSt12__niter_wrapIPiET_RKS1_S1_
FNDA:0,_ZSt12__niter_wrapIPiET_RKS1_S1_
FN:375,_ZNSt11__copy_moveILb0ELb1ESt26random_access_iterator_tagE8__copy_mIiEEPT_PKS3_S6_S4_
FNDA:0,_ZNSt11__copy_moveILb0ELb1ESt26random_access_iterator_tagE8__copy_mIiEEPT_PKS3_S6_S4_
FN:393,_ZSt13__copy_move_aILb0EPKiPiET1_T0_S4_S3_
FNDA:0,_ZSt13__copy_move_aILb0EPKiPiET1_T0_S4_S3_
FN:438,_ZSt14__copy_move_a2ILb0EN9__gnu_cxx17__normal_iteratorIPKiSt6vectorIiSaIiEEEEPiET1_T0_SA_S9_
FNDA:0,_ZSt14__copy_move_a2ILb0EN9__gnu_cxx17__normal_iteratorIPKiSt6vectorIiSaIiEEEEPiET1_T0_SA_S9_
FN:438,_ZSt14__copy_move_a2ILb0EPKiPiET1_T0_S4_S3_
FNDA:0,_ZSt14__copy_move_a2ILb0EPKiPiET1_T0_S4_S3_
FN:465,_ZSt4copyIN9__gnu_cxx17__normal_iteratorIPKiSt6vectorIiSaIiEEEEPiET0_T_SA_S9_
FNDA:0,_ZSt4copyIN9__gnu_cxx17__normal_iteratorIPKiSt6vectorIiSaIiEEEEPiET0_T_SA_S9_
FN:465,_ZSt4copyIPKiPiET0_T_S4_S3_
FNDA:0,_ZSt4copyIPKiPiET0_T_S4_S3_
FN:562,_ZNSt20__copy_move_backwardILb1ELb0ESt26random_access_iterator_tagE13__copy_move_bIPSt6vectorIiSaIiEES6_EET0_T_S8_S7_
FNDA:4,_ZNSt20__copy_move_backwardILb1ELb0ESt26random_access_iterator_tagE13__copy_move_bIPSt6vectorIiSaIiEES6_EET0_T_S8_S7_
FN:595,_ZSt22__copy_move_backward_aILb1EPSt6vectorIiSaIiEES3_ET1_T0_S5_S4_
FNDA:4,_ZSt22__copy_move_backward_aILb1EPSt6vectorIiSaIiEES3_ET1_T0_S5_S4_
FN:613,_ZSt23__copy_move_backward_a2ILb1EN9__gnu_cxx17__normal_iteratorIPSt6vectorIiSaIiEES2_IS4_SaIS4_EEEES8_ET1_T0_SA_S9_
FNDA:4,_ZSt23__copy_move_backward_a2ILb1EN9__gnu_cxx17__normal_iteratorIPSt6vectorIiSaIiEES2_IS4_SaIS4_EEEES8_ET1_T0_SA_S9_
FN:676,_ZSt13move_backwardIN9__gnu_cxx17__normal_iteratorIPSt6vectorIiSaIiEES2_IS4_SaIS4_EEEES8_ET0_T_SA_S9_
FNDA:4,_ZSt13move_backwardIN9__gnu_cxx17__normal_iteratorIPSt6vectorIiSaIiEES2_IS4_SaIS4_EEEES8_ET0_T_SA_S9_
FN:817,_ZNSt7__equalILb0EE5equalIPKSt6vectorIiSaIiEES6_EEbT_S7_T0_
FNDA:12,_ZNSt7__equalILb0EE5equalIPKSt6vectorIiSaIiEES6_EEbT_S7_T0_
FN:831,_ZNSt7__equalILb1EE5equalIiEEbPKT_S4_S4_
FNDA:0,_ZNSt7__equalILb1EE5equalIiEEbPKT_S4_S4_
FN:841,_ZSt11__equal_auxIPKiS1_EbT_S2_T0_
FNDA:0,_ZSt11__equal_auxIPKiS1_EbT_S2_T0_
FN:841,_ZSt11__equal_auxIPKSt6vectorIiSaIiEES4_EbT_S5_T0_
FNDA:12,_ZSt11__equal_auxIPKSt6vectorIiSaIiEES4_EbT_S5_T0_
FN:873,_ZNSt8__lc_raiISt26random_access_iterator_tagS0_E10__newlast1IPKiS4_EET_S5_S5_T0_S6_
FNDA:432,_ZNSt8__lc_raiISt26random_access_iterator_tagS0_E10__newlast1IPKiS4_EET_S5_S5_T0_S6_
FN:885,_ZNSt8__lc_raiISt26random_access_iterator_tagS0_E6__cnd2IPKiEEbT_S5_
FNDA:600,_ZNSt8__lc_raiISt26random_access_iterator_tagS0_E6__cnd2IPKiEEbT_S5_
FN:891,_ZSt30__lexicographical_compare_implIPKiS1_N9__gnu_cxx5__ops15_Iter_less_iterEEbT_S5_T0_S6_T1_
FNDA:432,_ZSt30__lexicographical_compare_implIPKiS1_N9__gnu_cxx5__ops15_Iter_less_iterEEbT_S5_T0_S6_T1_
FN:921,_ZNSt25__lexicographical_compareILb0EE4__lcIPKiS3_EEbT_S4_T0_S5_
FNDA:432,_ZNSt25__lexicographical_compareILb0EE4__lcIPKiS3_EEbT_S4_T0_S5_
FN:948,_ZSt29__lexicographical_compare_auxIPKiS1_EbT_S2_T0_S3_
FNDA:432,_ZSt29__lexicographical_compare_auxIPKiS1_EbT_S2_T0_S3_
FN:1028,_ZSt4__lgl
FNDA:16,_ZSt4__lgl
FN:1059,_ZSt5equalIN9__gnu_cxx17__normal_iteratorIPKiSt6vectorIiSaIiEEEES7_EbT_S8_T0_
FNDA:0,_ZSt5equalIN9__gnu_cxx17__normal_iteratorIPKiSt6vectorIiSaIiEEEES7_EbT_S8_T0_
FN:1059,_ZSt5equalIN9__gnu_cxx17__normal_iteratorIPKSt6vectorIiSaIiEES2_IS4_SaIS4_EEEES9_EbT_SA_T0_
FNDA:12,_ZSt5equalIN9__gnu_cxx17__normal_iteratorIPKSt6vectorIiSaIiEES2_IS4_SaIS4_EEEES9_EbT_SA_T0_
FN:1241,_ZSt23lexicographical_compareIN9__gnu_cxx17__normal_iteratorIPKiSt6vectorIiSaIiEEEES7_EbT_S8_T0_S9_
FNDA:432,_ZSt23lexicographical_compareIN9__gnu_cxx17__normal_iteratorIPKiSt6vectorIiSaIiEEEES7_EbT_S8_T0_S9_
DA:123,2
DA:151,2
DA:153,2
DA:198,0
DA:203,0
DA:204,0
DA:205,0
DA:222,0
DA:227,0
DA:228,0
DA:229,0
DA:280,0
DA:282,0
DA:280,0
DA:282,0
DA:280,0
DA:282,0
DA:289,0
DA:290,0
DA:295,0
DA:296,0
DA:375,0
DA:384,0
DA:385,0
DA:386,0
DA:387,0
DA:393,0
DA:398,0
DA:404,0
DA:438,0
DA:440,0
DA:443,0
DA:438,0
DA:440,0
DA:443,0
DA:465,0
DA:474,0
DA:465,0
DA:474,0
DA:562,4
DA:565,24
DA:566,20
DA:567,4
DA:595,4
DA:600,4
DA:606,4
DA:608,4
DA:613,4
DA:615,4
DA:618,4
DA:676,4
DA:686,4
DA:688,4
DA:817,147
DA:819,147
DA:820,135
DA:821,0
DA:822,12
DA:831,0
DA:833,0
DA:834,0
DA:835,0
DA:841,0
DA:845,0
DA:851,0
DA:841,12
DA:845,12
DA:851,12
DA:873,432
DA:877,432
DA:879,432
DA:880,432
DA:885,600
DA:886,600
DA:891,432
DA:899,432
DA:900,600
DA:903,600
DA:904,56
DA:905,544
DA:906,376
DA:908,0
DA:921,432
DA:924,432
DA:926,864
DA:948,432
DA:953,432
DA:960,432
DA:961,432
DA:1028,16
DA:1029,16
DA:1059,0
DA:1069,0
DA:1071,0
DA:1059,12
DA:1069,12
DA:1071,12
DA:1241,432
DA:1256,432
DA:1259,432
end_of_record
SF:/usr/include/c++/9/bits/cpp_type_traits.h
FN:428,_ZSt12__miter_baseIN9__gnu_cxx17__normal_iteratorIPKiSt6vectorIiSaIiEEEEET_S8_
FNDA:0,_ZSt12__miter_baseIN9__gnu_cxx17__normal_iteratorIPKiSt6vectorIiSaIiEEEEET_S8_
FN:428,_ZSt12__miter_baseIPKiET_S2_
FNDA:0,_ZSt12__miter_baseIPKiET_S2_
FN:428,_ZSt12__miter_baseIN9__gnu_cxx17__normal_iteratorIPSt6vectorIiSaIiEES2_IS4_SaIS4_EEEEET_S9_
FNDA:8,_ZSt12__miter_baseIN9__gnu_cxx17__normal_iteratorIPSt6vectorIiSaIiEES2_IS4_SaIS4_EEEEET_S9_
DA:428,0
DA:429,0
DA:428,0
DA:429,0
DA:428,8
DA:429,8
end_of_record
SF:/usr/include/c++/9/ext/new_allocator.h
FN:80,_ZN9__gnu_cxx13new_allocatorIcEC2Ev
FNDA:0,_ZN9__gnu_cxx13new_allocatorIcEC2Ev
FN:80,_ZN9__gnu_cxx13new_allocatorIiEC2Ev
FNDA:0,_ZN9__gnu_cxx13new_allocatorIiEC2Ev
FN:80,_ZN9__gnu_cxx13new_allocatorISt6vectorIiSaIiEEEC2Ev
FNDA:0,_ZN9__gnu_cxx13new_allocatorISt6vectorIiSaIiEEEC2Ev
FN:83,_ZN9__gnu_cxx13new_allocatorIiEC2ERKS1_
FNDA:0,_ZN9__gnu_cxx13new_allocatorIiEC2ERKS1_
FN:83,_ZN9__gnu_cxx13new_allocatorISt6vectorIiSaIiEEEC2ERKS4_
FNDA:0,_ZN9__gnu_cxx13new_allocatorISt6vectorIiSaIiEEEC2ERKS4_
FN:83,_ZN9__gnu_cxx13new_allocatorIcEC2ERKS1_
FNDA:0,_ZN9__gnu_cxx13new_allocatorIcEC2ERKS1_
FN:89,_ZN9__gnu_cxx13new_allocatorIcED2Ev
FNDA:0,_ZN9__gnu_cxx13new_allocatorIcED2Ev
FN:89,_ZN9__gnu_cxx13new_allocatorISt6vectorIiSaIiEEED2Ev
FNDA:0,_ZN9__gnu_cxx13new_allocatorISt6vectorIiSaIiEEED2Ev
FN:89,_ZN9__gnu_cxx13new_allocatorIiED2Ev
FNDA:0,_ZN9__gnu_cxx13new_allocatorIiED2Ev
FN:102,_ZN9__gnu_cxx13new_allocatorISt6vectorIiSaIiEEE8allocateEmPKv
FNDA:0,_ZN9__gnu_cxx13new_allocatorISt6vectorIiSaIiEEE8allocateEmPKv
FN:102,_ZN9__gnu_cxx13new_allocatorIiE8allocateEmPKv
FNDA:0,_ZN9__gnu_cxx13new_allocatorIiE8allocateEmPKv
FN:119,_ZN9__gnu_cxx13new_allocatorISt6vectorIiSaIiEEE10deallocateEPS3_m
FNDA:0,_ZN9__gnu_cxx13new_allocatorISt6vectorIiSaIiEEE10deallocateEPS3_m
FN:119,_ZN9__gnu_cxx13new_allocatorIiE10deallocateEPim
FNDA:0,_ZN9__gnu_cxx13new_allocatorIiE10deallocateEPim
FN:132,_ZNK9__gnu_cxx13new_allocatorIiE8max_sizeEv
FNDA:0,_ZNK9__gnu_cxx13new_allocatorIiE8max_sizeEv
FN:132,_ZNK9__gnu_cxx13new_allocatorISt6vectorIiSaIiEEE8max_sizeEv
FNDA:0,_ZNK9__gnu_cxx13new_allocatorISt6vectorIiSaIiEEE8max_sizeEv
FN:144,_ZN9__gnu_cxx13new_allocatorISt6vectorIiSaIiEEE9constructIS3_JRKS3_EEEvPT_DpOT0_
FNDA:0,_ZN9__gnu_cxx13new_allocatorISt6vectorIiSaIiEEE9constructIS3_JRKS3_EEEvPT_DpOT0_
FN:144,_ZN9__gnu_cxx13new_allocatorISt6vectorIiSaIiEEE9constructIS3_JS3_EEEvPT_DpOT0_
FNDA:0,_ZN9__gnu_cxx13new_allocatorISt6vectorIiSaIiEEE9constructIS3_JS3_EEEvPT_DpOT0_
FN:151,_ZN9__gnu_cxx13new_allocatorISt6vectorIiSaIiEEE7destroyIS3_EEvPT_
FNDA:0,_ZN9__gnu_cxx13new_allocatorISt6vectorIiSaIiEEE7destroyIS3_EEvPT_
DA:80,0
DA:80,0
DA:80,0
DA:83,0
DA:83,0
DA:83,0
DA:89,0
DA:89,0
DA:89,0
DA:102,0
DA:104,0
DA:105,0
DA:114,0
DA:102,0
DA:104,0
DA:105,0
DA:114,0
DA:119,0
DA:128,0
DA:129,0
DA:119,0
DA:128,0
DA:129,0
DA:132,0
DA:135,0
DA:132,0
DA:135,0
DA:144,0
DA:147,0
DA:144,0
DA:147,0
DA:151,0
DA:153,0
end_of_record
SF:/usr/include/c++/9/bits/stl_construct.h
FN:74,_ZSt10_ConstructISt6vectorIiSaIiEEJS2_EEvPT_DpOT0_
FNDA:0,_ZSt10_ConstructISt6vectorIiSaIiEEJS2_EEvPT_DpOT0_
FN:74,_ZSt10_ConstructISt6vectorIiSaIiEEJRKS2_EEvPT_DpOT0_
FNDA:0,_ZSt10_ConstructISt6vectorIiSaIiEEJRKS2_EEvPT_DpOT0_
FN:97,_ZSt8_DestroyISt6vectorIiSaIiEEEvPT_
FNDA:0,_ZSt8_DestroyISt6vectorIiSaIiEEEvPT_
FN:105,_ZNSt12_Destroy_auxILb0EE9__destroyIPSt6vectorIiSaIiEEEEvT_S6_
FNDA:0,_ZNSt12_Destroy_auxILb0EE9__destroyIPSt6vectorIiSaIiEEEEvT_S6_
FN:117,_ZNSt12_Destroy_auxILb1EE9__destroyIPiEEvT_S3_
FNDA:0,_ZNSt12_Destroy_auxILb1EE9__destroyIPiEEvT_S3_
FN:127,_ZSt8_DestroyIPiEvT_S1_
FNDA:0,_ZSt8_DestroyIPiEvT_S1_
FN:127,_ZSt8_DestroyIPSt6vectorIiSaIiEEEvT_S4_
FNDA:0,_ZSt8_DestroyIPSt6vectorIiSaIiEEEvT_S4_
FN:203,_ZSt8_DestroyIPiiEvT_S1_RSaIT0_E
FNDA:0,_ZSt8_DestroyIPiiEvT_S1_RSaIT0_E
FN:203,_ZSt8_DestroyIPSt6vectorIiSaIiEES2_EvT_S4_RSaIT0_E
FNDA:0,_ZSt8_DestroyIPSt6vectorIiSaIiEES2_EvT_S4_RSaIT0_E
DA:74,0
DA:75,0
DA:74,0
DA:75,0
DA:97,0
DA:98,0
DA:105,0
DA:107,0
DA:108,0
DA:109,0
DA:117,0
DA:127,0
DA:137,0
DA:138,0
DA:127,0
DA:137,0
DA:138,0
DA:203,0
DA:206,0
DA:207,0
DA:203,0
DA:206,0
DA:207,0
end_of_record
SF:/usr/include/c++/9/initializer_list
FN:71,_ZNKSt16initializer_listISt6vectorIiSaIiEEE4sizeEv
FNDA:0,_ZNKSt16initializer_listISt6vectorIiSaIiEEE4sizeEv
FN:71,_ZNKSt16initializer_listIiE4sizeEv
FNDA:0,_ZNKSt16initializer_listIiE4sizeEv
FN:75,_ZNKSt16initializer_listISt6vectorIiSaIiEEE5beginEv
FNDA:0,_ZNKSt16initializer_listISt6vectorIiSaIiEEE5beginEv
FN:75,_ZNKSt16initializer_listIiE5beginEv
FNDA:0,_ZNKSt16initializer_listIiE5beginEv
FN:79,_ZNKSt16initializer_listISt6vectorIiSaIiEEE3endEv
FNDA:0,_ZNKSt16initializer_listISt6vectorIiSaIiEEE3endEv
FN:79,_ZNKSt16initializer_listIiE3endEv
FNDA:0,_ZNKSt16initializer_listIiE3endEv
DA:71,0
DA:71,0
DA:75,0
DA:75,0
DA:79,0
DA:79,0
end_of_record
SF:/home/pato/TPIMorfMat/template-alumnos/tests/ej4TEST.cpp
FN:5,_Z13sonLosActivosRKSt6vectorIS_IiSaIiEESaIS1_EES5_
FNDA:4,_Z13sonLosActivosRKSt6vectorIS_IiSaIiEESaIS1_EES5_
FN:22,_ZN56calcularContornoTest_CalcularContornoTodoActivo4Ady_Test8TestBodyEv
FNDA:1,_ZN56calcularContornoTest_CalcularContornoTodoActivo4Ady_Test8TestBodyEv
FN:22,_ZN56calcularContornoTest_CalcularContornoTodoActivo4Ady_TestC2Ev
FNDA:1,_ZN56calcularContornoTest_CalcularContornoTodoActivo4Ady_TestC2Ev
FN:38,_ZN56calcularContornoTest_CalcularContornoTodoActivo8Ady_Test8TestBodyEv
FNDA:1,_ZN56calcularContornoTest_CalcularContornoTodoActivo8Ady_Test8TestBodyEv
FN:38,_ZN56calcularContornoTest_CalcularContornoTodoActivo8Ady_TestC2Ev
FNDA:1,_ZN56calcularContornoTest_CalcularContornoTodoActivo8Ady_TestC2Ev
FN:54,_ZN50calcularContornoTest_CalcularContornoCruz4Ady_Test8TestBodyEv
FNDA:1,_ZN50calcularContornoTest_CalcularContornoCruz4Ady_Test8TestBodyEv
FN:54,_ZN50calcularContornoTest_CalcularContornoCruz4Ady_TestC2Ev
FNDA:1,_ZN50calcularContornoTest_CalcularContornoCruz4Ady_TestC2Ev
FN:74,_ZN50calcularContornoTest_CalcularContornoCruz8Ady_Test8TestBodyEv
FNDA:1,_ZN50calcularContornoTest_CalcularContornoCruz8Ady_Test8TestBodyEv
FN:74,_ZN50calcularContornoTest_CalcularContornoCruz8Ady_TestC2Ev
FNDA:1,_ZN50calcularContornoTest_CalcularContornoCruz8Ady_TestC2Ev
DA:5,4
DA:6,8
DA:7,24
DA:8,124
DA:9,104
DA:10,88
DA:11,44
DA:16,4
DA:17,8
DA:18,4
DA:19,8
DA:22,1
DA:28,8
DA:34,8
DA:35,1
DA:36,1
DA:22,1
DA:38,1
DA:44,8
DA:50,8
DA:51,1
DA:52,1
DA:38,1
DA:54,1
DA:62,10
DA:70,10
DA:71,1
DA:72,1
DA:54,1
DA:74,1
DA:82,10
DA:90,10
DA:91,1
DA:92,1
DA:74,1
end_of_record
SF:/home/pato/TPIMorfMat/template-alumnos/lib/googletest-master/googletest/include/gtest/internal/gtest-internal.h
FN:448,_ZN7testing8internal15TestFactoryBaseD0Ev
FNDA:0,_ZN7testing8internal15TestFactoryBaseD0Ev
FN:448,_ZN7testing8internal15TestFactoryBaseD2Ev
FNDA:0,_ZN7testing8internal15TestFactoryBaseD2Ev
FN:455,_ZN7testing8internal15TestFactoryBaseC2Ev
FNDA:0,_ZN7testing8internal15TestFactoryBaseC2Ev
FN:466,_ZN7testing8internal15TestFactoryImplI56calcularContornoTest_CalcularContornoTodoActivo4Ady_TestE10CreateTestEv
FNDA:1,_ZN7testing8internal15TestFactoryImplI56calcularContornoTest_CalcularContornoTodoActivo4Ady_TestE10CreateTestEv
FN:466,_ZN7testing8internal15TestFactoryImplI56calcularContornoTest_CalcularContornoTodoActivo8Ady_TestE10CreateTestEv
FNDA:1,_ZN7testing8internal15TestFactoryImplI56calcularContornoTest_CalcularContornoTodoActivo8Ady_TestE10CreateTestEv
FN:466,_ZN7testing8internal15TestFactoryImplI50calcularContornoTest_CalcularContornoCruz4Ady_TestE10CreateTestEv
FNDA:1,_ZN7testing8internal15TestFactoryImplI50calcularContornoTest_CalcularContornoCruz4Ady_TestE10CreateTestEv
FN:466,_ZN7testing8internal15TestFactoryImplI50calcularContornoTest_CalcularContornoCruz8Ady_TestE10CreateTestEv
FNDA:1,_ZN7testing8internal15TestFactoryImplI50calcularContornoTest_CalcularContornoCruz8Ady_TestE10CreateTestEv
FN:487,_ZN7testing8internal12CodeLocationC2ERKNSt7__cxx1112basic_stringIcSt11char_traitsIcESaIcEEEi
FNDA:0,_ZN7testing8internal12CodeLocationC2ERKNSt7__cxx1112basic_stringIcSt11char_traitsIcESaIcEEEi
DA:448,0
DA:448,0
DA:455,0
DA:466,1
DA:466,1
DA:466,1
DA:466,1
DA:487,0
DA:488,0
end_of_record
SF:/usr/include/c++/9/bits/basic_string.h
FN:243,_ZNSt7__cxx1112basic_stringIcSt11char_traitsIcESaIcEE16_M_construct_auxIPcEEvT_S7_St12__false_type
FNDA:0,_ZNSt7__cxx1112basic_stringIcSt11char_traitsIcESaIcEE16_M_construct_auxIPcEEvT_S7_St12__false_type
FN:243,_ZNSt7__cxx1112basic_stringIcSt11char_traitsIcESaIcEE16_M_construct_auxIPKcEEvT_S8_St12__false_type
FNDA:0,_ZNSt7__cxx1112basic_stringIcSt11char_traitsIcESaIcEE16_M_construct_auxIPKcEEvT_S8_St12__false_type
FN:263,_ZNSt7__cxx1112basic_stringIcSt11char_traitsIcESaIcEE12_M_constructIPcEEvT_S7_
FNDA:0,_ZNSt7__cxx1112basic_stringIcSt11char_traitsIcESaIcEE12_M_constructIPcEEvT_S7_
FN:263,_ZNSt7__cxx1112basic_stringIcSt11char_traitsIcESaIcEE12_M_constructIPKcEEvT_S8_
FNDA:0,_ZNSt7__cxx1112basic_stringIcSt11char_traitsIcESaIcEE12_M_constructIPKcEEvT_S8_
DA:243,0
DA:247,0
DA:248,0
DA:243,0
DA:247,0
DA:248,0
DA:263,0
DA:266,0
DA:267,0
DA:263,0
DA:266,0
DA:267,0
end_of_record
SF:/usr/include/c++/9/bits/stl_iterator_base_types.h
FN:205,_ZSt19__iterator_categoryIPcENSt15iterator_traitsIT_E17iterator_categoryERKS2_
FNDA:0,_ZSt19__iterator_categoryIPcENSt15iterator_traitsIT_E17iterator_categoryERKS2_
FN:205,_ZSt19__iterator_categoryIPKcENSt15iterator_traitsIT_E17iterator_categoryERKS3_
FNDA:0,_ZSt19__iterator_categoryIPKcENSt15iterator_traitsIT_E17iterator_categoryERKS3_
FN:205,_ZSt19__iterator_categoryIPKSt6vectorIiSaIiEEENSt15iterator_traitsIT_E17iterator_categoryERKS6_
FNDA:0,_ZSt19__iterator_categoryIPKSt6vectorIiSaIiEEENSt15iterator_traitsIT_E17iterator_categoryERKS6_
FN:205,_ZSt19__iterator_categoryIPKiENSt15iterator_traitsIT_E17iterator_categoryERKS3_
FNDA:0,_ZSt19__iterator_categoryIPKiENSt15iterator_traitsIT_E17iterator_categoryERKS3_
DA:205,0
DA:206,0
DA:205,0
DA:206,0
DA:205,0
DA:206,0
DA:205,0
DA:206,0
end_of_record
SF:/usr/include/c++/9/bits/stl_algo.h
FN:78,_ZSt22__move_median_to_firstIN9__gnu_cxx17__normal_iteratorIPSt6vectorIiSaIiEES2_IS4_SaIS4_EEEENS0_5__ops15_Iter_less_iterEEvT_SB_SB_SB_T0_
FNDA:2,_ZSt22__move_median_to_firstIN9__gnu_cxx17__normal_iteratorIPSt6vectorIiSaIiEES2_IS4_SaIS4_EEEENS0_5__ops15_Iter_less_iterEEvT_SB_SB_SB_T0_
FN:1667,_ZSt13__heap_selectIN9__gnu_cxx17__normal_iteratorIPSt6vectorIiSaIiEES2_IS4_SaIS4_EEEENS0_5__ops15_Iter_less_iterEEvT_SB_SB_T0_
FNDA:0,_ZSt13__heap_selectIN9__gnu_cxx17__normal_iteratorIPSt6vectorIiSaIiEES2_IS4_SaIS4_EEEENS0_5__ops15_Iter_less_iterEEvT_SB_SB_T0_
FN:1820,_ZSt25__unguarded_linear_insertIN9__gnu_cxx17__normal_iteratorIPSt6vectorIiSaIiEES2_IS4_SaIS4_EEEENS0_5__ops14_Val_less_iterEEvT_T0_
FNDA:188,_ZSt25__unguarded_linear_insertIN9__gnu_cxx17__normal_iteratorIPSt6vectorIiSaIiEES2_IS4_SaIS4_EEEENS0_5__ops14_Val_less_iterEEvT_T0_
FN:1839,_ZSt16__insertion_sortIN9__gnu_cxx17__normal_iteratorIPSt6vectorIiSaIiEES2_IS4_SaIS4_EEEENS0_5__ops15_Iter_less_iterEEvT_SB_T0_
FNDA:16,_ZSt16__insertion_sortIN9__gnu_cxx17__normal_iteratorIPSt6vectorIiSaIiEES2_IS4_SaIS4_EEEENS0_5__ops15_Iter_less_iterEEvT_SB_T0_
FN:1862,_ZSt26__unguarded_insertion_sortIN9__gnu_cxx17__normal_iteratorIPSt6vectorIiSaIiEES2_IS4_SaIS4_EEEENS0_5__ops15_Iter_less_iterEEvT_SB_T0_
FNDA:2,_ZSt26__unguarded_insertion_sortIN9__gnu_cxx17__normal_iteratorIPSt6vectorIiSaIiEES2_IS4_SaIS4_EEEENS0_5__ops15_Iter_less_iterEEvT_SB_T0_
FN:1879,_ZSt22__final_insertion_sortIN9__gnu_cxx17__normal_iteratorIPSt6vectorIiSaIiEES2_IS4_SaIS4_EEEENS0_5__ops15_Iter_less_iterEEvT_SB_T0_
FNDA:16,_ZSt22__final_insertion_sortIN9__gnu_cxx17__normal_iteratorIPSt6vectorIiSaIiEES2_IS4_SaIS4_EEEENS0_5__ops15_Iter_less_iterEEvT_SB_T0_
FN:1895,_ZSt21__unguarded_partitionIN9__gnu_cxx17__normal_iteratorIPSt6vectorIiSaIiEES2_IS4_SaIS4_EEEENS0_5__ops15_Iter_less_iterEET_SB_SB_SB_T0_
FNDA:2,_ZSt21__unguarded_partitionIN9__gnu_cxx17__normal_iteratorIPSt6vectorIiSaIiEES2_IS4_SaIS4_EEEENS0_5__ops15_Iter_less_iterEET_SB_SB_SB_T0_
FN:1916,_ZSt27__unguarded_partition_pivotIN9__gnu_cxx17__normal_iteratorIPSt6vectorIiSaIiEES2_IS4_SaIS4_EEEENS0_5__ops15_Iter_less_iterEET_SB_SB_T0_
FNDA:2,_ZSt27__unguarded_partition_pivotIN9__gnu_cxx17__normal_iteratorIPSt6vectorIiSaIiEES2_IS4_SaIS4_EEEENS0_5__ops15_Iter_less_iterEET_SB_SB_T0_
FN:1927,_ZSt14__partial_sortIN9__gnu_cxx17__normal_iteratorIPSt6vectorIiSaIiEES2_IS4_SaIS4_EEEENS0_5__ops15_Iter_less_iterEEvT_SB_SB_T0_
FNDA:0,_ZSt14__partial_sortIN9__gnu_cxx17__normal_iteratorIPSt6vectorIiSaIiEES2_IS4_SaIS4_EEEENS0_5__ops15_Iter_less_iterEEvT_SB_SB_T0_
FN:1939,_ZSt16__introsort_loopIN9__gnu_cxx17__normal_iteratorIPSt6vectorIiSaIiEES2_IS4_SaIS4_EEEElNS0_5__ops15_Iter_less_iterEEvT_SB_T0_T1_
FNDA:18,_ZSt16__introsort_loopIN9__gnu_cxx17__normal_iteratorIPSt6vectorIiSaIiEES2_IS4_SaIS4_EEEElNS0_5__ops15_Iter_less_iterEEvT_SB_T0_T1_
FN:1962,_ZSt6__sortIN9__gnu_cxx17__normal_iteratorIPSt6vectorIiSaIiEES2_IS4_SaIS4_EEEENS0_5__ops15_Iter_less_iterEEvT_SB_T0_
FNDA:16,_ZSt6__sortIN9__gnu_cxx17__normal_iteratorIPSt6vectorIiSaIiEES2_IS4_SaIS4_EEEENS0_5__ops15_Iter_less_iterEEvT_SB_T0_
FN:4855,_ZSt4sortIN9__gnu_cxx17__normal_iteratorIPSt6vectorIiSaIiEES2_IS4_SaIS4_EEEEEvT_S9_
FNDA:16,_ZSt4sortIN9__gnu_cxx17__normal_iteratorIPSt6vectorIiSaIiEES2_IS4_SaIS4_EEEEEvT_S9_
DA:78,2
DA:81,2
DA:83,2
DA:84,2
DA:85,0
DA:86,0
DA:88,0
DA:90,0
DA:91,0
DA:92,0
DA:93,0
DA:95,0
DA:96,2
DA:1667,0
DA:1671,0
DA:1672,0
DA:1673,0
DA:1674,0
DA:1675,0
DA:1820,188
DA:1824,376
DA:1825,188
DA:1826,188
DA:1827,202
DA:1829,14
DA:1830,14
DA:1831,14
DA:1833,188
DA:1834,188
DA:1839,16
DA:1842,16
DA:1844,204
DA:1846,188
DA:1849,8
DA:1850,4
DA:1851,4
DA:1854,184
DA:1855,368
DA:1862,2
DA:1865,6
DA:1866,4
DA:1867,8
DA:1868,2
DA:1879,16
DA:1882,16
DA:1884,2
DA:1885,2
DA:1889,14
DA:1890,16
DA:1895,20
DA:1901,20
DA:1902,18
DA:1903,2
DA:1904,18
DA:1905,16
DA:1906,2
DA:1907,2
DA:1908,0
DA:1909,0
DA:1916,2
DA:1919,2
DA:1920,2
DA:1922,4
DA:1927,0
DA:1932,0
DA:1933,0
DA:1934,0
DA:1939,20
DA:1943,20
DA:1945,2
DA:1947,0
DA:1948,0
DA:1950,2
DA:1952,2
DA:1953,2
DA:1954,2
DA:1962,16
DA:1965,16
DA:1967,16
DA:1968,16
DA:1970,16
DA:1972,16
DA:4855,16
DA:4865,16
DA:4866,16
end_of_record
SF:/usr/include/c++/9/ext/alloc_traits.h
FN:97,_ZN9__gnu_cxx14__alloc_traitsISaIiEiE17_S_select_on_copyERKS1_
FNDA:0,_ZN9__gnu_cxx14__alloc_traitsISaIiEiE17_S_select_on_copyERKS1_
FN:97,_ZN9__gnu_cxx14__alloc_traitsISaISt6vectorIiSaIiEEES3_E17_S_select_on_copyERKS4_
FNDA:0,_ZN9__gnu_cxx14__alloc_traitsISaISt6vectorIiSaIiEEES3_E17_S_select_on_copyERKS4_
FN:97,_ZN9__gnu_cxx14__alloc_traitsISaIcEcE17_S_select_on_copyERKS1_
FNDA:0,_ZN9__gnu_cxx14__alloc_traitsISaIcEcE17_S_select_on_copyERKS1_
FN:100,_ZN9__gnu_cxx14__alloc_traitsISaIiEiE10_S_on_swapERS1_S3_
FNDA:2,_ZN9__gnu_cxx14__alloc_traitsISaIiEiE10_S_on_swapERS1_S3_
DA:97,0
DA:98,0
DA:97,0
DA:98,0
DA:97,0
DA:98,0
DA:100,2
DA:101,2
end_of_record
SF:/usr/include/c++/9/bits/stl_heap.h
FN:128,_ZSt11__push_heapIN9__gnu_cxx17__normal_iteratorIPSt6vectorIiSaIiEES2_IS4_SaIS4_EEEElS4_NS0_5__ops14_Iter_less_valEEvT_T0_SC_T1_RT2_
FNDA:0,_ZSt11__push_heapIN9__gnu_cxx17__normal_iteratorIPSt6vectorIiSaIiEES2_IS4_SaIS4_EEEElS4_NS0_5__ops14_Iter_less_valEEvT_T0_SC_T1_RT2_
FN:214,_ZSt13__adjust_heapIN9__gnu_cxx17__normal_iteratorIPSt6vectorIiSaIiEES2_IS4_SaIS4_EEEElS4_NS0_5__ops15_Iter_less_iterEEvT_T0_SC_T1_T2_
FNDA:0,_ZSt13__adjust_heapIN9__gnu_cxx17__normal_iteratorIPSt6vectorIiSaIiEES2_IS4_SaIS4_EEEElS4_NS0_5__ops15_Iter_less_iterEEvT_T0_SC_T1_T2_
FN:243,_ZSt10__pop_heapIN9__gnu_cxx17__normal_iteratorIPSt6vectorIiSaIiEES2_IS4_SaIS4_EEEENS0_5__ops15_Iter_less_iterEEvT_SB_SB_RT0_
FNDA:0,_ZSt10__pop_heapIN9__gnu_cxx17__normal_iteratorIPSt6vectorIiSaIiEES2_IS4_SaIS4_EEEENS0_5__ops15_Iter_less_iterEEvT_SB_SB_RT0_
FN:326,_ZSt11__make_heapIN9__gnu_cxx17__normal_iteratorIPSt6vectorIiSaIiEES2_IS4_SaIS4_EEEENS0_5__ops15_Iter_less_iterEEvT_SB_RT0_
FNDA:0,_ZSt11__make_heapIN9__gnu_cxx17__normal_iteratorIPSt6vectorIiSaIiEES2_IS4_SaIS4_EEEENS0_5__ops15_Iter_less_iterEEvT_SB_RT0_
FN:402,_ZSt11__sort_heapIN9__gnu_cxx17__normal_iteratorIPSt6vectorIiSaIiEES2_IS4_SaIS4_EEEENS0_5__ops15_Iter_less_iterEEvT_SB_RT0_
FNDA:0,_ZSt11__sort_heapIN9__gnu_cxx17__normal_iteratorIPSt6vectorIiSaIiEES2_IS4_SaIS4_EEEENS0_5__ops15_Iter_less_iterEEvT_SB_RT0_
DA:128,0
DA:132,0
DA:133,0
DA:135,0
DA:136,0
DA:137,0
DA:139,0
DA:140,0
DA:214,0
DA:217,0
DA:218,0
DA:219,0
DA:221,0
DA:222,0
DA:224,0
DA:225,0
DA:226,0
DA:228,0
DA:230,0
DA:231,0
DA:233,0
DA:236,0
DA:237,0
DA:238,0
DA:239,0
DA:243,0
DA:251,0
DA:252,0
DA:253,0
DA:254,0
DA:255,0
DA:256,0
DA:326,0
DA:334,0
DA:335,0
DA:337,0
DA:338,0
DA:339,0
DA:341,0
DA:342,0
DA:344,0
DA:345,0
DA:346,0
DA:402,0
DA:405,0
DA:407,0
DA:408,0
DA:410,0
end_of_record
SF:/usr/include/c++/9/bits/move.h
FN:47,_ZSt11__addressofISt6vectorIiSaIiEEEPT_RS3_
FNDA:0,_ZSt11__addressofISt6vectorIiSaIiEEEPT_RS3_
FN:74,_ZSt7forwardISt6vectorIiSaIiEEEOT_RNSt16remove_referenceIS3_E4typeE
FNDA:0,_ZSt7forwardISt6vectorIiSaIiEEEOT_RNSt16remove_referenceIS3_E4typeE
FN:74,_ZSt7forwardIRKSt6vectorIiSaIiEEEOT_RNSt16remove_referenceIS5_E4typeE
FNDA:0,_ZSt7forwardIRKSt6vectorIiSaIiEEEOT_RNSt16remove_referenceIS5_E4typeE
FN:99,_ZSt4moveIRSaIiEEONSt16remove_referenceIT_E4typeEOS3_
FNDA:226,_ZSt4moveIRSaIiEEONSt16remove_referenceIT_E4typeEOS3_
FN:99,_ZSt4moveIRN9__gnu_cxx5__ops15_Iter_less_iterEEONSt16remove_referenceIT_E4typeEOS5_
FNDA:0,_ZSt4moveIRN9__gnu_cxx5__ops15_Iter_less_iterEEONSt16remove_referenceIT_E4typeEOS5_
FN:99,_ZSt4moveIRNSt12_Vector_baseIiSaIiEE12_Vector_implEEONSt16remove_referenceIT_E4typeEOS6_
FNDA:0,_ZSt4moveIRNSt12_Vector_baseIiSaIiEE12_Vector_implEEONSt16remove_referenceIT_E4typeEOS6_
FN:99,_ZSt4moveIRSt6vectorIiSaIiEEEONSt16remove_referenceIT_E4typeEOS5_
FNDA:0,_ZSt4moveIRSt6vectorIiSaIiEEEONSt16remove_referenceIT_E4typeEOS5_
FN:99,_ZSt4moveIRSaIcEEONSt16remove_referenceIT_E4typeEOS3_
FNDA:0,_ZSt4moveIRSaIcEEONSt16remove_referenceIT_E4typeEOS3_
DA:47,0
DA:48,0
DA:74,0
DA:75,0
DA:74,0
DA:75,0
DA:99,226
DA:100,226
DA:99,0
DA:100,0
DA:99,0
DA:100,0
DA:99,0
DA:100,0
DA:99,0
DA:100,0
end_of_record
SF:/home/pato/TPIMorfMat/template-alumnos/lib/googletest-master/googletest/include/gtest/gtest.h
FN:286,_ZN7testing15AssertionResultC2IbEERKT_PNS_8internal8EnableIfIXntsrNS5_21ImplicitlyConvertibleIS2_S0_EE5valueEE4typeE
FNDA:0,_ZN7testing15AssertionResultC2IbEERKT_PNS_8internal8EnableIfIXntsrNS5_21ImplicitlyConvertibleIS2_S0_EE5valueEE4typeE
FN:304,_ZNK7testing15AssertionResultcvbEv
FNDA:0,_ZNK7testing15AssertionResultcvbEv
FN:414,_ZN7testing4Test13SetUpTestCaseEv
FNDA:0,_ZN7testing4Test13SetUpTestCaseEv
FN:422,_ZN7testing4Test16TearDownTestCaseEv
FNDA:0,_ZN7testing4Test16TearDownTestCaseEv
FN:499,_ZN7testing4Test5SetupEv
FNDA:0,_ZN7testing4Test5SetupEv
DA:286,0
DA:291,0
DA:304,0
DA:414,0
DA:422,0
DA:499,0
end_of_record
SF:/usr/include/c++/9/bits/char_traits.h
FN:329,_ZNSt11char_traitsIcE6lengthEPKc
FNDA:0,_ZNSt11char_traitsIcE6lengthEPKc
DA:329,0
DA:335,0
end_of_record
TN:
SF:/usr/include/c++/9/bits/stl_algobase.h
FN:198,_ZSt3minImERKT_S2_S2_
FNDA:0,_ZSt3minImERKT_S2_S2_
FN:280,_ZSt12__niter_baseIPiET_S1_
FNDA:0,_ZSt12__niter_baseIPiET_S1_
FN:280,_ZSt12__niter_baseIPKiET_S2_
FNDA:0,_ZSt12__niter_baseIPKiET_S2_
FN:295,_ZSt12__niter_wrapIPiET_RKS1_S1_
FNDA:0,_ZSt12__niter_wrapIPiET_RKS1_S1_
FN:375,_ZNSt11__copy_moveILb0ELb1ESt26random_access_iterator_tagE8__copy_mIiEEPT_PKS3_S6_S4_
FNDA:0,_ZNSt11__copy_moveILb0ELb1ESt26random_access_iterator_tagE8__copy_mIiEEPT_PKS3_S6_S4_
FN:393,_ZSt13__copy_move_aILb0EPKiPiET1_T0_S4_S3_
FNDA:0,_ZSt13__copy_move_aILb0EPKiPiET1_T0_S4_S3_
FN:438,_ZSt14__copy_move_a2ILb0EN9__gnu_cxx17__normal_iteratorIPKiSt6vectorIiSaIiEEEEPiET1_T0_SA_S9_
FNDA:0,_ZSt14__copy_move_a2ILb0EN9__gnu_cxx17__normal_iteratorIPKiSt6vectorIiSaIiEEEEPiET1_T0_SA_S9_
FN:438,_ZSt14__copy_move_a2ILb0EPKiPiET1_T0_S4_S3_
FNDA:0,_ZSt14__copy_move_a2ILb0EPKiPiET1_T0_S4_S3_
FN:465,_ZSt4copyIN9__gnu_cxx17__normal_iteratorIPKiSt6vectorIiSaIiEEEEPiET0_T_SA_S9_
FNDA:0,_ZSt4copyIN9__gnu_cxx17__normal_iteratorIPKiSt6vectorIiSaIiEEEEPiET0_T_SA_S9_
FN:465,_ZSt4copyIPKiPiET0_T_S4_S3_
FNDA:0,_ZSt4copyIPKiPiET0_T_S4_S3_
DA:198,0
DA:203,0
DA:204,0
DA:205,0
DA:280,0
DA:282,0
DA:280,0
DA:282,0
DA:295,0
DA:296,0
DA:375,0
DA:384,0
DA:385,0
DA:386,0
DA:387,0
DA:393,0
DA:398,0
DA:404,0
DA:438,0
DA:440,0
DA:443,0
DA:438,0
DA:440,0
DA:443,0
DA:465,0
DA:474,0
DA:465,0
DA:474,0
end_of_record
SF:/usr/include/c++/9/bits/cpp_type_traits.h
FN:428,_ZSt12__miter_baseIN9__gnu_cxx17__normal_iteratorIPKiSt6vectorIiSaIiEEEEET_S8_
FNDA:0,_ZSt12__miter_baseIN9__gnu_cxx17__normal_iteratorIPKiSt6vectorIiSaIiEEEEET_S8_
FN:428,_ZSt12__miter_baseIPKiET_S2_
FNDA:0,_ZSt12__miter_baseIPKiET_S2_
DA:428,0
DA:429,0
DA:428,0
DA:429,0
end_of_record
SF:/usr/include/c++/9/bits/stl_construct.h
FN:74,_ZSt10_ConstructISt6vectorIiSaIiEEJRKS2_EEvPT_DpOT0_
FNDA:0,_ZSt10_ConstructISt6vectorIiSaIiEEJRKS2_EEvPT_DpOT0_
FN:97,_ZSt8_DestroyISt6vectorIiSaIiEEEvPT_
FNDA:0,_ZSt8_DestroyISt6vectorIiSaIiEEEvPT_
FN:105,_ZNSt12_Destroy_auxILb0EE9__destroyIPSt6vectorIiSaIiEEEEvT_S6_
FNDA:0,_ZNSt12_Destroy_auxILb0EE9__destroyIPSt6vectorIiSaIiEEEEvT_S6_
FN:117,_ZNSt12_Destroy_auxILb1EE9__destroyIPiEEvT_S3_
FNDA:0,_ZNSt12_Destroy_auxILb1EE9__destroyIPiEEvT_S3_
FN:127,_ZSt8_DestroyIPSt6vectorIiSaIiEEEvT_S4_
FNDA:0,_ZSt8_DestroyIPSt6vectorIiSaIiEEEvT_S4_
FN:127,_ZSt8_DestroyIPiEvT_S1_
FNDA:0,_ZSt8_DestroyIPiEvT_S1_
FN:203,_ZSt8_DestroyIPSt6vectorIiSaIiEES2_EvT_S4_RSaIT0_E
FNDA:0,_ZSt8_DestroyIPSt6vectorIiSaIiEES2_EvT_S4_RSaIT0_E
FN:203,_ZSt8_DestroyIPiiEvT_S1_RSaIT0_E
FNDA:0,_ZSt8_DestroyIPiiEvT_S1_RSaIT0_E
DA:74,0
DA:75,0
DA:97,0
DA:98,0
DA:105,0
DA:107,0
DA:108,0
DA:109,0
DA:117,0
DA:127,0
DA:137,0
DA:138,0
DA:127,0
DA:137,0
DA:138,0
DA:203,0
DA:206,0
DA:207,0
DA:203,0
DA:206,0
DA:207,0
end_of_record
SF:/usr/include/c++/9/ext/new_allocator.h
FN:80,_ZN9__gnu_cxx13new_allocatorISt6vectorIiSaIiEEEC2Ev
FNDA:0,_ZN9__gnu_cxx13new_allocatorISt6vectorIiSaIiEEEC2Ev
FN:80,_ZN9__gnu_cxx13new_allocatorIiEC2Ev
FNDA:0,_ZN9__gnu_cxx13new_allocatorIiEC2Ev
FN:80,_ZN9__gnu_cxx13new_allocatorIcEC2Ev
FNDA:0,_ZN9__gnu_cxx13new_allocatorIcEC2Ev
FN:83,_ZN9__gnu_cxx13new_allocatorISt6vectorIiSaIiEEEC2ERKS4_
FNDA:0,_ZN9__gnu_cxx13new_allocatorISt6vectorIiSaIiEEEC2ERKS4_
FN:83,_ZN9__gnu_cxx13new_allocatorIiEC2ERKS1_
FNDA:0,_ZN9__gnu_cxx13new_allocatorIiEC2ERKS1_
FN:83,_ZN9__gnu_cxx13new_allocatorIcEC2ERKS1_
FNDA:0,_ZN9__gnu_cxx13new_allocatorIcEC2ERKS1_
FN:89,_ZN9__gnu_cxx13new_allocatorISt6vectorIiSaIiEEED2Ev
FNDA:0,_ZN9__gnu_cxx13new_allocatorISt6vectorIiSaIiEEED2Ev
FN:89,_ZN9__gnu_cxx13new_allocatorIiED2Ev
FNDA:0,_ZN9__gnu_cxx13new_allocatorIiED2Ev
FN:89,_ZN9__gnu_cxx13new_allocatorIcED2Ev
FNDA:0,_ZN9__gnu_cxx13new_allocatorIcED2Ev
FN:102,_ZN9__gnu_cxx13new_allocatorISt6vectorIiSaIiEEE8allocateEmPKv
FNDA:0,_ZN9__gnu_cxx13new_allocatorISt6vectorIiSaIiEEE8allocateEmPKv
FN:102,_ZN9__gnu_cxx13new_allocatorIiE8allocateEmPKv
FNDA:0,_ZN9__gnu_cxx13new_allocatorIiE8allocateEmPKv
FN:119,_ZN9__gnu_cxx13new_allocatorISt6vectorIiSaIiEEE10deallocateEPS3_m
FNDA:0,_ZN9__gnu_cxx13new_allocatorISt6vectorIiSaIiEEE10deallocateEPS3_m
FN:119,_ZN9__gnu_cxx13new_allocatorIiE10deallocateEPim
FNDA:0,_ZN9__gnu_cxx13new_allocatorIiE10deallocateEPim
FN:132,_ZNK9__gnu_cxx13new_allocatorISt6vectorIiSaIiEEE8max_sizeEv
FNDA:0,_ZNK9__gnu_cxx13new_allocatorISt6vectorIiSaIiEEE8max_sizeEv
FN:132,_ZNK9__gnu_cxx13new_allocatorIiE8max_sizeEv
FNDA:0,_ZNK9__gnu_cxx13new_allocatorIiE8max_sizeEv
DA:80,0
DA:80,0
DA:80,0
DA:83,0
DA:83,0
DA:83,0
DA:89,0
DA:89,0
DA:89,0
DA:102,0
DA:104,0
DA:105,0
DA:114,0
DA:102,0
DA:104,0
DA:105,0
DA:114,0
DA:119,0
DA:128,0
DA:129,0
DA:119,0
DA:128,0
DA:129,0
DA:132,0
DA:135,0
DA:132,0
DA:135,0
end_of_record
SF:/home/pato/TPIMorfMat/template-alumnos/tests/ej3TEST.cpp
FN:8,_ZN53devolverPromedioAreasTest_matrizApagada_enAdy4_1_TestC2Ev
FNDA:1,_ZN53devolverPromedioAreasTest_matrizApagada_enAdy4_1_TestC2Ev
FN:8,_ZN53devolverPromedioAreasTest_matrizApagada_enAdy4_1_Test8TestBodyEv
FNDA:1,_ZN53devolverPromedioAreasTest_matrizApagada_enAdy4_1_Test8TestBodyEv
FN:13,_ZN53devolverPromedioAreasTest_matrizApagada_enAdy4_4_TestC2Ev
FNDA:1,_ZN53devolverPromedioAreasTest_matrizApagada_enAdy4_4_TestC2Ev
FN:13,_ZN53devolverPromedioAreasTest_matrizApagada_enAdy4_4_Test8TestBodyEv
FNDA:1,_ZN53devolverPromedioAreasTest_matrizApagada_enAdy4_4_Test8TestBodyEv
FN:20,_ZN53devolverPromedioAreasTest_matrizApagada_enAdy8_1_TestC2Ev
FNDA:1,_ZN53devolverPromedioAreasTest_matrizApagada_enAdy8_1_TestC2Ev
FN:20,_ZN53devolverPromedioAreasTest_matrizApagada_enAdy8_1_Test8TestBodyEv
FNDA:1,_ZN53devolverPromedioAreasTest_matrizApagada_enAdy8_1_Test8TestBodyEv
FN:25,_ZN53devolverPromedioAreasTest_matrizApagada_enAdy8_2_TestC2Ev
FNDA:1,_ZN53devolverPromedioAreasTest_matrizApagada_enAdy8_2_TestC2Ev
FN:25,_ZN53devolverPromedioAreasTest_matrizApagada_enAdy8_2_Test8TestBodyEv
FNDA:1,_ZN53devolverPromedioAreasTest_matrizApagada_enAdy8_2_Test8TestBodyEv
FN:32,_ZN57devolverPromedioAreasTest_regionesDeUnPixel_EnAdy4_1_TestC2Ev
FNDA:1,_ZN57devolverPromedioAreasTest_regionesDeUnPixel_EnAdy4_1_TestC2Ev
FN:32,_ZN57devolverPromedioAreasTest_regionesDeUnPixel_EnAdy4_1_Test8TestBodyEv
FNDA:1,_ZN57devolverPromedioAreasTest_regionesDeUnPixel_EnAdy4_1_Test8TestBodyEv
FN:37,_ZN57devolverPromedioAreasTest_regionesDeUnPixel_EnAdy4_2_TestC2Ev
FNDA:1,_ZN57devolverPromedioAreasTest_regionesDeUnPixel_EnAdy4_2_TestC2Ev
FN:37,_ZN57devolverPromedioAreasTest_regionesDeUnPixel_EnAdy4_2_Test8TestBodyEv
FNDA:1,_ZN57devolverPromedioAreasTest_regionesDeUnPixel_EnAdy4_2_Test8TestBodyEv
FN:42,_ZN57devolverPromedioAreasTest_regionesDeUnPixel_EnAdy4_3_TestC2Ev
FNDA:1,_ZN57devolverPromedioAreasTest_regionesDeUnPixel_EnAdy4_3_TestC2Ev
FN:42,_ZN57devolverPromedioAreasTest_regionesDeUnPixel_EnAdy4_3_Test8TestBodyEv
FNDA:1,_ZN57devolverPromedioAreasTest_regionesDeUnPixel_EnAdy4_3_Test8TestBodyEv
FN:49,_ZN57devolverPromedioAreasTest_regionesDeUnPixel_EnAdy8_1_TestC2Ev
FNDA:1,_ZN57devolverPromedioAreasTest_regionesDeUnPixel_EnAdy8_1_TestC2Ev
FN:49,_ZN57devolverPromedioAreasTest_regionesDeUnPixel_EnAdy8_1_Test8TestBodyEv
FNDA:1,_ZN57devolverPromedioAreasTest_regionesDeUnPixel_EnAdy8_1_Test8TestBodyEv
FN:58,_ZN51devolverPromedioAreasTest_MatrizActivaEnAdy4_3_Test8TestBodyEv
FNDA:1,_ZN51devolverPromedioAreasTest_MatrizActivaEnAdy4_3_Test8TestBodyEv
FN:58,_ZN51devolverPromedioAreasTest_MatrizActivaEnAdy4_3_TestC2Ev
FNDA:1,_ZN51devolverPromedioAreasTest_MatrizActivaEnAdy4_3_TestC2Ev
FN:66,_ZN51devolverPromedioAreasTest_MatrizActivaEnAdy8_1_TestC2Ev
FNDA:1,_ZN51devolverPromedioAreasTest_MatrizActivaEnAdy8_1_TestC2Ev
FN:66,_ZN51devolverPromedioAreasTest_MatrizActivaEnAdy8_1_Test8TestBodyEv
FNDA:1,_ZN51devolverPromedioAreasTest_MatrizActivaEnAdy8_1_Test8TestBodyEv
FN:72,_ZN51devolverPromedioAreasTest_regionEnteraEnAdy4_1_TestC2Ev
FNDA:1,_ZN51devolverPromedioAreasTest_regionEnteraEnAdy4_1_TestC2Ev
FN:72,_ZN51devolverPromedioAreasTest_regionEnteraEnAdy4_1_Test8TestBodyEv
FNDA:1,_ZN51devolverPromedioAreasTest_regionEnteraEnAdy4_1_Test8TestBodyEv
FN:77,_ZN51devolverPromedioAreasTest_regionEnteraEnAdy4_3_TestC2Ev
FNDA:1,_ZN51devolverPromedioAreasTest_regionEnteraEnAdy4_3_TestC2Ev
FN:77,_ZN51devolverPromedioAreasTest_regionEnteraEnAdy4_3_Test8TestBodyEv
FNDA:1,_ZN51devolverPromedioAreasTest_regionEnteraEnAdy4_3_Test8TestBodyEv
FN:82,_ZN51devolverPromedioAreasTest_regionEnteraEnAdy8_1_TestC2Ev
FNDA:1,_ZN51devolverPromedioAreasTest_regionEnteraEnAdy8_1_TestC2Ev
FN:82,_ZN51devolverPromedioAreasTest_regionEnteraEnAdy8_1_Test8TestBodyEv
FNDA:1,_ZN51devolverPromedioAreasTest_regionEnteraEnAdy8_1_Test8TestBodyEv
FN:87,_ZN51devolverPromedioAreasTest_regionEnteraEnAdy8_3_TestC2Ev
FNDA:1,_ZN51devolverPromedioAreasTest_regionEnteraEnAdy8_3_TestC2Ev
FN:87,_ZN51devolverPromedioAreasTest_regionEnteraEnAdy8_3_Test8TestBodyEv
FNDA:1,_ZN51devolverPromedioAreasTest_regionEnteraEnAdy8_3_Test8TestBodyEv
FN:94,_ZN54devolverPromedioAreasTest_promedioDecimalEnAdy4_2_TestC2Ev
FNDA:1,_ZN54devolverPromedioAreasTest_promedioDecimalEnAdy4_2_TestC2Ev
FN:94,_ZN54devolverPromedioAreasTest_promedioDecimalEnAdy4_2_Test8TestBodyEv
FNDA:1,_ZN54devolverPromedioAreasTest_promedioDecimalEnAdy4_2_Test8TestBodyEv
FN:99,_ZN54devolverPromedioAreasTest_promedioDecimalEnAdy4_3_TestC2Ev
FNDA:1,_ZN54devolverPromedioAreasTest_promedioDecimalEnAdy4_3_TestC2Ev
FN:99,_ZN54devolverPromedioAreasTest_promedioDecimalEnAdy4_3_Test8TestBodyEv
FNDA:1,_ZN54devolverPromedioAreasTest_promedioDecimalEnAdy4_3_Test8TestBodyEv
FN:106,_ZN54devolverPromedioAreasTest_promedioDecimalEnAdy8_1_TestC2Ev
FNDA:1,_ZN54devolverPromedioAreasTest_promedioDecimalEnAdy8_1_TestC2Ev
FN:106,_ZN54devolverPromedioAreasTest_promedioDecimalEnAdy8_1_Test8TestBodyEv
FNDA:1,_ZN54devolverPromedioAreasTest_promedioDecimalEnAdy8_1_Test8TestBodyEv
FN:111,_ZN54devolverPromedioAreasTest_promedioDecimalEnAdy8_3_Test8TestBodyEv
FNDA:1,_ZN54devolverPromedioAreasTest_promedioDecimalEnAdy8_3_Test8TestBodyEv
FN:111,_ZN54devolverPromedioAreasTest_promedioDecimalEnAdy8_3_TestC2Ev
FNDA:1,_ZN54devolverPromedioAreasTest_promedioDecimalEnAdy8_3_TestC2Ev
DA:8,1
DA:9,5
DA:10,1
DA:11,1
DA:8,1
DA:13,1
DA:14,7
DA:15,1
DA:16,1
DA:13,1
DA:20,1
DA:21,5
DA:22,1
DA:23,1
DA:20,1
DA:25,1
DA:26,6
DA:27,1
DA:28,1
DA:25,1
DA:32,1
DA:33,7
DA:34,1
DA:35,1
DA:32,1
DA:37,1
DA:38,7
DA:39,1
DA:40,1
DA:37,1
DA:42,1
DA:43,7
DA:44,1
DA:45,1
DA:42,1
DA:49,1
DA:50,7
DA:51,1
DA:52,1
DA:49,1
DA:58,1
DA:59,7
DA:60,1
DA:61,1
DA:58,1
DA:66,1
DA:67,7
DA:68,1
DA:69,1
DA:66,1
DA:72,1
DA:73,7
DA:74,1
DA:75,1
DA:72,1
DA:77,1
DA:78,7
DA:79,1
DA:80,1
DA:77,1
DA:82,1
DA:83,7
DA:84,1
DA:85,1
DA:82,1
DA:87,1
DA:88,7
DA:89,1
DA:90,1
DA:87,1
DA:94,1
DA:95,7
DA:96,1
DA:97,1
DA:94,1
DA:99,1
DA:100,8
DA:101,1
DA:102,1
DA:99,1
DA:106,1
DA:107,7
DA:108,1
DA:109,1
DA:106,1
DA:111,1
DA:112,8
DA:113,1
DA:114,1
DA:111,1
end_of_record
SF:/usr/include/c++/9/new
FN:173,_ZnwmPv
FNDA:0,_ZnwmPv
FN:179,_ZdlPvS_
FNDA:0,_ZdlPvS_
DA:173,0
DA:174,0
DA:179,0
end_of_record
SF:/usr/include/c++/9/bits/stl_uninitialized.h
FN:76,_ZNSt20__uninitialized_copyILb0EE13__uninit_copyIPKSt6vectorIiSaIiEEPS4_EET0_T_S9_S8_
FNDA:0,_ZNSt20__uninitialized_copyILb0EE13__uninit_copyIPKSt6vectorIiSaIiEEPS4_EET0_T_S9_S8_
FN:99,_ZNSt20__uninitialized_copyILb1EE13__uninit_copyIN9__gnu_cxx17__normal_iteratorIPKiSt6vectorIiSaIiEEEEPiEET0_T_SC_SB_
FNDA:0,_ZNSt20__uninitialized_copyILb1EE13__uninit_copyIN9__gnu_cxx17__normal_iteratorIPKiSt6vectorIiSaIiEEEEPiEET0_T_SC_SB_
FN:99,_ZNSt20__uninitialized_copyILb1EE13__uninit_copyIPKiPiEET0_T_S6_S5_
FNDA:0,_ZNSt20__uninitialized_copyILb1EE13__uninit_copyIPKiPiEET0_T_S6_S5_
FN:115,_ZSt18uninitialized_copyIN9__gnu_cxx17__normal_iteratorIPKiSt6vectorIiSaIiEEEEPiET0_T_SA_S9_
FNDA:0,_ZSt18uninitialized_copyIN9__gnu_cxx17__normal_iteratorIPKiSt6vectorIiSaIiEEEEPiET0_T_SA_S9_
FN:115,_ZSt18uninitialized_copyIPKSt6vectorIiSaIiEEPS2_ET0_T_S7_S6_
FNDA:0,_ZSt18uninitialized_copyIPKSt6vectorIiSaIiEEPS2_ET0_T_S7_S6_
FN:115,_ZSt18uninitialized_copyIPKiPiET0_T_S4_S3_
FNDA:0,_ZSt18uninitialized_copyIPKiPiET0_T_S4_S3_
FN:287,_ZSt22__uninitialized_copy_aIN9__gnu_cxx17__normal_iteratorIPKiSt6vectorIiSaIiEEEEPiiET0_T_SA_S9_RSaIT1_E
FNDA:0,_ZSt22__uninitialized_copy_aIN9__gnu_cxx17__normal_iteratorIPKiSt6vectorIiSaIiEEEEPiiET0_T_SA_S9_RSaIT1_E
FN:287,_ZSt22__uninitialized_copy_aIPKSt6vectorIiSaIiEEPS2_S2_ET0_T_S7_S6_RSaIT1_E
FNDA:0,_ZSt22__uninitialized_copy_aIPKSt6vectorIiSaIiEEPS2_S2_ET0_T_S7_S6_RSaIT1_E
FN:287,_ZSt22__uninitialized_copy_aIPKiPiiET0_T_S4_S3_RSaIT1_E
FNDA:0,_ZSt22__uninitialized_copy_aIPKiPiiET0_T_S4_S3_RSaIT1_E
DA:76,0
DA:79,0
DA:82,0
DA:83,0
DA:84,0
DA:86,0
DA:88,0
DA:89,0
DA:99,0
DA:101,0
DA:99,0
DA:101,0
DA:115,0
DA:128,0
DA:134,0
DA:115,0
DA:128,0
DA:134,0
DA:115,0
DA:128,0
DA:134,0
DA:287,0
DA:289,0
DA:287,0
DA:289,0
DA:287,0
DA:289,0
end_of_record
SF:/usr/include/c++/9/iostream
end_of_record
SF:/usr/include/c++/9/bits/move.h
FN:47,_ZSt11__addressofISt6vectorIiSaIiEEEPT_RS3_
FNDA:0,_ZSt11__addressofISt6vectorIiSaIiEEEPT_RS3_
FN:74,_ZSt7forwardIRKSt6vectorIiSaIiEEEOT_RNSt16remove_referenceIS5_E4typeE
FNDA:0,_ZSt7forwardIRKSt6vectorIiSaIiEEEOT_RNSt16remove_referenceIS5_E4typeE
FN:99,_ZSt4moveIRSaIcEEONSt16remove_referenceIT_E4typeEOS3_
FNDA:0,_ZSt4moveIRSaIcEEONSt16remove_referenceIT_E4typeEOS3_
DA:47,0
DA:48,0
DA:74,0
DA:75,0
DA:99,0
DA:100,0
end_of_record
SF:/home/pato/TPIMorfMat/template-alumnos/lib/googletest-master/googletest/include/gtest/gtest.h
FN:304,_ZNK7testing15AssertionResultcvbEv
FNDA:0,_ZNK7testing15AssertionResultcvbEv
FN:313,_ZNK7testing15AssertionResult7messageEv
FNDA:0,_ZNK7testing15AssertionResult7messageEv
FN:318,_ZNK7testing15AssertionResult15failure_messageEv
FNDA:0,_ZNK7testing15AssertionResult15failure_messageEv
FN:414,_ZN7testing4Test13SetUpTestCaseEv
FNDA:0,_ZN7testing4Test13SetUpTestCaseEv
FN:422,_ZN7testing4Test16TearDownTestCaseEv
FNDA:0,_ZN7testing4Test16TearDownTestCaseEv
FN:499,_ZN7testing4Test5SetupEv
FNDA:0,_ZN7testing4Test5SetupEv
DA:304,0
DA:313,0
DA:314,0
DA:318,0
DA:414,0
DA:422,0
DA:499,0
end_of_record
SF:/usr/include/c++/9/bits/char_traits.h
FN:329,_ZNSt11char_traitsIcE6lengthEPKc
FNDA:0,_ZNSt11char_traitsIcE6lengthEPKc
DA:329,0
DA:335,0
end_of_record
SF:/usr/include/c++/9/initializer_list
FN:71,_ZNKSt16initializer_listISt6vectorIiSaIiEEE4sizeEv
FNDA:0,_ZNKSt16initializer_listISt6vectorIiSaIiEEE4sizeEv
FN:71,_ZNKSt16initializer_listIiE4sizeEv
FNDA:0,_ZNKSt16initializer_listIiE4sizeEv
FN:75,_ZNKSt16initializer_listISt6vectorIiSaIiEEE5beginEv
FNDA:0,_ZNKSt16initializer_listISt6vectorIiSaIiEEE5beginEv
FN:75,_ZNKSt16initializer_listIiE5beginEv
FNDA:0,_ZNKSt16initializer_listIiE5beginEv
FN:79,_ZNKSt16initializer_listISt6vectorIiSaIiEEE3endEv
FNDA:0,_ZNKSt16initializer_listISt6vectorIiSaIiEEE3endEv
FN:79,_ZNKSt16initializer_listIiE3endEv
FNDA:0,_ZNKSt16initializer_listIiE3endEv
DA:71,0
DA:71,0
DA:75,0
DA:75,0
DA:79,0
DA:79,0
end_of_record
SF:/usr/include/c++/9/bits/stl_iterator_base_types.h
FN:205,_ZSt19__iterator_categoryIPcENSt15iterator_traitsIT_E17iterator_categoryERKS2_
FNDA:0,_ZSt19__iterator_categoryIPcENSt15iterator_traitsIT_E17iterator_categoryERKS2_
FN:205,_ZSt19__iterator_categoryIPKcENSt15iterator_traitsIT_E17iterator_categoryERKS3_
FNDA:0,_ZSt19__iterator_categoryIPKcENSt15iterator_traitsIT_E17iterator_categoryERKS3_
FN:205,_ZSt19__iterator_categoryIPKSt6vectorIiSaIiEEENSt15iterator_traitsIT_E17iterator_categoryERKS6_
FNDA:0,_ZSt19__iterator_categoryIPKSt6vectorIiSaIiEEENSt15iterator_traitsIT_E17iterator_categoryERKS6_
FN:205,_ZSt19__iterator_categoryIPKiENSt15iterator_traitsIT_E17iterator_categoryERKS3_
FNDA:0,_ZSt19__iterator_categoryIPKiENSt15iterator_traitsIT_E17iterator_categoryERKS3_
DA:205,0
DA:206,0
DA:205,0
DA:206,0
DA:205,0
DA:206,0
DA:205,0
DA:206,0
end_of_record
SF:/usr/include/c++/9/bits/basic_string.h
FN:243,_ZNSt7__cxx1112basic_stringIcSt11char_traitsIcESaIcEE16_M_construct_auxIPcEEvT_S7_St12__false_type
FNDA:0,_ZNSt7__cxx1112basic_stringIcSt11char_traitsIcESaIcEE16_M_construct_auxIPcEEvT_S7_St12__false_type
FN:243,_ZNSt7__cxx1112basic_stringIcSt11char_traitsIcESaIcEE16_M_construct_auxIPKcEEvT_S8_St12__false_type
FNDA:0,_ZNSt7__cxx1112basic_stringIcSt11char_traitsIcESaIcEE16_M_construct_auxIPKcEEvT_S8_St12__false_type
FN:263,_ZNSt7__cxx1112basic_stringIcSt11char_traitsIcESaIcEE12_M_constructIPcEEvT_S7_
FNDA:0,_ZNSt7__cxx1112basic_stringIcSt11char_traitsIcESaIcEE12_M_constructIPcEEvT_S7_
FN:263,_ZNSt7__cxx1112basic_stringIcSt11char_traitsIcESaIcEE12_M_constructIPKcEEvT_S8_
FNDA:0,_ZNSt7__cxx1112basic_stringIcSt11char_traitsIcESaIcEE12_M_constructIPKcEEvT_S8_
DA:243,0
DA:247,0
DA:248,0
DA:243,0
DA:247,0
DA:248,0
DA:263,0
DA:266,0
DA:267,0
DA:263,0
DA:266,0
DA:267,0
end_of_record
SF:/home/pato/TPIMorfMat/template-alumnos/lib/googletest-master/googletest/include/gtest/internal/gtest-internal.h
FN:448,_ZN7testing8internal15TestFactoryBaseD2Ev
FNDA:0,_ZN7testing8internal15TestFactoryBaseD2Ev
FN:448,_ZN7testing8internal15TestFactoryBaseD0Ev
FNDA:0,_ZN7testing8internal15TestFactoryBaseD0Ev
FN:455,_ZN7testing8internal15TestFactoryBaseC2Ev
FNDA:0,_ZN7testing8internal15TestFactoryBaseC2Ev
FN:466,_ZN7testing8internal15TestFactoryImplI51devolverPromedioAreasTest_regionEnteraEnAdy4_3_TestE10CreateTestEv
FNDA:1,_ZN7testing8internal15TestFactoryImplI51devolverPromedioAreasTest_regionEnteraEnAdy4_3_TestE10CreateTestEv
FN:466,_ZN7testing8internal15TestFactoryImplI54devolverPromedioAreasTest_promedioDecimalEnAdy8_3_TestE10CreateTestEv
FNDA:1,_ZN7testing8internal15TestFactoryImplI54devolverPromedioAreasTest_promedioDecimalEnAdy8_3_TestE10CreateTestEv
FN:466,_ZN7testing8internal15TestFactoryImplI54devolverPromedioAreasTest_promedioDecimalEnAdy8_1_TestE10CreateTestEv
FNDA:1,_ZN7testing8internal15TestFactoryImplI54devolverPromedioAreasTest_promedioDecimalEnAdy8_1_TestE10CreateTestEv
FN:466,_ZN7testing8internal15TestFactoryImplI54devolverPromedioAreasTest_promedioDecimalEnAdy4_3_TestE10CreateTestEv
FNDA:1,_ZN7testing8internal15TestFactoryImplI54devolverPromedioAreasTest_promedioDecimalEnAdy4_3_TestE10CreateTestEv
FN:466,_ZN7testing8internal15TestFactoryImplI54devolverPromedioAreasTest_promedioDecimalEnAdy4_2_TestE10CreateTestEv
FNDA:1,_ZN7testing8internal15TestFactoryImplI54devolverPromedioAreasTest_promedioDecimalEnAdy4_2_TestE10CreateTestEv
FN:466,_ZN7testing8internal15TestFactoryImplI51devolverPromedioAreasTest_regionEnteraEnAdy8_3_TestE10CreateTestEv
FNDA:1,_ZN7testing8internal15TestFactoryImplI51devolverPromedioAreasTest_regionEnteraEnAdy8_3_TestE10CreateTestEv
FN:466,_ZN7testing8internal15TestFactoryImplI51devolverPromedioAreasTest_regionEnteraEnAdy8_1_TestE10CreateTestEv
FNDA:1,_ZN7testing8internal15TestFactoryImplI51devolverPromedioAreasTest_regionEnteraEnAdy8_1_TestE10CreateTestEv
FN:466,_ZN7testing8internal15TestFactoryImplI53devolverPromedioAreasTest_matrizApagada_enAdy4_1_TestE10CreateTestEv
FNDA:1,_ZN7testing8internal15TestFactoryImplI53devolverPromedioAreasTest_matrizApagada_enAdy4_1_TestE10CreateTestEv
FN:466,_ZN7testing8internal15TestFactoryImplI51devolverPromedioAreasTest_regionEnteraEnAdy4_1_TestE10CreateTestEv
FNDA:1,_ZN7testing8internal15TestFactoryImplI51devolverPromedioAreasTest_regionEnteraEnAdy4_1_TestE10CreateTestEv
FN:466,_ZN7testing8internal15TestFactoryImplI51devolverPromedioAreasTest_MatrizActivaEnAdy8_1_TestE10CreateTestEv
FNDA:1,_ZN7testing8internal15TestFactoryImplI51devolverPromedioAreasTest_MatrizActivaEnAdy8_1_TestE10CreateTestEv
FN:466,_ZN7testing8internal15TestFactoryImplI51devolverPromedioAreasTest_MatrizActivaEnAdy4_3_TestE10CreateTestEv
FNDA:1,_ZN7testing8internal15TestFactoryImplI51devolverPromedioAreasTest_MatrizActivaEnAdy4_3_TestE10CreateTestEv
FN:466,_ZN7testing8internal15TestFactoryImplI57devolverPromedioAreasTest_regionesDeUnPixel_EnAdy8_1_TestE10CreateTestEv
FNDA:1,_ZN7testing8internal15TestFactoryImplI57devolverPromedioAreasTest_regionesDeUnPixel_EnAdy8_1_TestE10CreateTestEv
FN:466,_ZN7testing8internal15TestFactoryImplI57devolverPromedioAreasTest_regionesDeUnPixel_EnAdy4_3_TestE10CreateTestEv
FNDA:1,_ZN7testing8internal15TestFactoryImplI57devolverPromedioAreasTest_regionesDeUnPixel_EnAdy4_3_TestE10CreateTestEv
FN:466,_ZN7testing8internal15TestFactoryImplI57devolverPromedioAreasTest_regionesDeUnPixel_EnAdy4_2_TestE10CreateTestEv
FNDA:1,_ZN7testing8internal15TestFactoryImplI57devolverPromedioAreasTest_regionesDeUnPixel_EnAdy4_2_TestE10CreateTestEv
FN:466,_ZN7testing8internal15TestFactoryImplI57devolverPromedioAreasTest_regionesDeUnPixel_EnAdy4_1_TestE10CreateTestEv
FNDA:1,_ZN7testing8internal15TestFactoryImplI57devolverPromedioAreasTest_regionesDeUnPixel_EnAdy4_1_TestE10CreateTestEv
FN:466,_ZN7testing8internal15TestFactoryImplI53devolverPromedioAreasTest_matrizApagada_enAdy8_2_TestE10CreateTestEv
FNDA:1,_ZN7testing8internal15TestFactoryImplI53devolverPromedioAreasTest_matrizApagada_enAdy8_2_TestE10CreateTestEv
FN:466,_ZN7testing8internal15TestFactoryImplI53devolverPromedioAreasTest_matrizApagada_enAdy8_1_TestE10CreateTestEv
FNDA:1,_ZN7testing8internal15TestFactoryImplI53devolverPromedioAreasTest_matrizApagada_enAdy8_1_TestE10CreateTestEv
FN:466,_ZN7testing8internal15TestFactoryImplI53devolverPromedioAreasTest_matrizApagada_enAdy4_4_TestE10CreateTestEv
FNDA:1,_ZN7testing8internal15TestFactoryImplI53devolverPromedioAreasTest_matrizApagada_enAdy4_4_TestE10CreateTestEv
FN:487,_ZN7testing8internal12CodeLocationC2ERKNSt7__cxx1112basic_stringIcSt11char_traitsIcESaIcEEEi
FNDA:0,_ZN7testing8internal12CodeLocationC2ERKNSt7__cxx1112basic_stringIcSt11char_traitsIcESaIcEEEi
DA:448,0
DA:448,0
DA:455,0
DA:466,1
DA:466,1
DA:466,1
DA:466,1
DA:466,1
DA:466,1
DA:466,1
DA:466,1
DA:466,1
DA:466,1
DA:466,1
DA:466,1
DA:466,1
DA:466,1
DA:466,1
DA:466,1
DA:466,1
DA:466,1
DA:487,0
DA:488,0
end_of_record
SF:/usr/include/c++/9/ext/alloc_traits.h
FN:97,_ZN9__gnu_cxx14__alloc_traitsISaIiEiE17_S_select_on_copyERKS1_
FNDA:0,_ZN9__gnu_cxx14__alloc_traitsISaIiEiE17_S_select_on_copyERKS1_
FN:97,_ZN9__gnu_cxx14__alloc_traitsISaIcEcE17_S_select_on_copyERKS1_
FNDA:0,_ZN9__gnu_cxx14__alloc_traitsISaIcEcE17_S_select_on_copyERKS1_
DA:97,0
DA:98,0
DA:97,0
DA:98,0
end_of_record
SF:/usr/include/c++/9/ext/type_traits.h
FN:152,_ZN9__gnu_cxx17__is_null_pointerIcEEbPT_
FNDA:0,_ZN9__gnu_cxx17__is_null_pointerIcEEbPT_
FN:152,_ZN9__gnu_cxx17__is_null_pointerIKcEEbPT_
FNDA:0,_ZN9__gnu_cxx17__is_null_pointerIKcEEbPT_
DA:152,0
DA:153,0
DA:152,0
DA:153,0
end_of_record
SF:/home/pato/TPIMorfMat/template-alumnos/lib/googletest-master/googletest/include/gtest/internal/gtest-port.h
FN:1185,_ZN7testing8internal10scoped_ptrINSt7__cxx1112basic_stringIcSt11char_traitsIcESaIcEEEED2Ev
FNDA:0,_ZN7testing8internal10scoped_ptrINSt7__cxx1112basic_stringIcSt11char_traitsIcESaIcEEEED2Ev
FN:1185,_ZN7testing8internal10scoped_ptrINSt7__cxx1118basic_stringstreamIcSt11char_traitsIcESaIcEEEED2Ev
FNDA:0,_ZN7testing8internal10scoped_ptrINSt7__cxx1118basic_stringstreamIcSt11char_traitsIcESaIcEEEED2Ev
FN:1188,_ZNK7testing8internal10scoped_ptrINSt7__cxx1112basic_stringIcSt11char_traitsIcESaIcEEEEptEv
FNDA:0,_ZNK7testing8internal10scoped_ptrINSt7__cxx1112basic_stringIcSt11char_traitsIcESaIcEEEEptEv
FN:1189,_ZNK7testing8internal10scoped_ptrINSt7__cxx1112basic_stringIcSt11char_traitsIcESaIcEEEE3getEv
FNDA:0,_ZNK7testing8internal10scoped_ptrINSt7__cxx1112basic_stringIcSt11char_traitsIcESaIcEEEE3getEv
FN:1197,_ZN7testing8internal10scoped_ptrINSt7__cxx1118basic_stringstreamIcSt11char_traitsIcESaIcEEEE5resetEPS7_
FNDA:0,_ZN7testing8internal10scoped_ptrINSt7__cxx1118basic_stringstreamIcSt11char_traitsIcESaIcEEEE5resetEPS7_
FN:1197,_ZN7testing8internal10scoped_ptrINSt7__cxx1112basic_stringIcSt11char_traitsIcESaIcEEEE5resetEPS7_
FNDA:0,_ZN7testing8internal10scoped_ptrINSt7__cxx1112basic_stringIcSt11char_traitsIcESaIcEEEE5resetEPS7_
DA:1185,0
DA:1185,0
DA:1188,0
DA:1189,0
DA:1197,0
DA:1198,0
DA:1199,0
DA:1200,0
DA:1202,0
DA:1204,0
DA:1197,0
DA:1198,0
DA:1199,0
DA:1200,0
DA:1202,0
DA:1204,0
end_of_record
SF:/usr/include/c++/9/bits/stl_vector.h
FN:94,_ZNSt12_Vector_baseIiSaIiEE17_Vector_impl_dataC2Ev
FNDA:0,_ZNSt12_Vector_baseIiSaIiEE17_Vector_impl_dataC2Ev
FN:94,_ZNSt12_Vector_baseISt6vectorIiSaIiEESaIS2_EE17_Vector_impl_dataC2Ev
FNDA:0,_ZNSt12_Vector_baseISt6vectorIiSaIiEESaIS2_EE17_Vector_impl_dataC2Ev
FN:133,_ZNSt12_Vector_baseIiSaIiEE12_Vector_implC2ERKS0_
FNDA:0,_ZNSt12_Vector_baseIiSaIiEE12_Vector_implC2ERKS0_
FN:133,_ZNSt12_Vector_baseISt6vectorIiSaIiEESaIS2_EE12_Vector_implC2ERKS3_
FNDA:0,_ZNSt12_Vector_baseISt6vectorIiSaIiEESaIS2_EE12_Vector_implC2ERKS3_
FN:273,_ZNSt12_Vector_baseISt6vectorIiSaIiEESaIS2_EE19_M_get_Tp_allocatorEv
FNDA:0,_ZNSt12_Vector_baseISt6vectorIiSaIiEESaIS2_EE19_M_get_Tp_allocatorEv
FN:273,_ZNSt12_Vector_baseIiSaIiEE19_M_get_Tp_allocatorEv
FNDA:0,_ZNSt12_Vector_baseIiSaIiEE19_M_get_Tp_allocatorEv
FN:277,_ZNKSt12_Vector_baseIiSaIiEE19_M_get_Tp_allocatorEv
FNDA:0,_ZNKSt12_Vector_baseIiSaIiEE19_M_get_Tp_allocatorEv
FN:290,_ZNSt12_Vector_baseIiSaIiEEC2ERKS0_
FNDA:0,_ZNSt12_Vector_baseIiSaIiEEC2ERKS0_
FN:290,_ZNSt12_Vector_baseISt6vectorIiSaIiEESaIS2_EEC2ERKS3_
FNDA:0,_ZNSt12_Vector_baseISt6vectorIiSaIiEESaIS2_EEC2ERKS3_
FN:300,_ZNSt12_Vector_baseIiSaIiEEC2EmRKS0_
FNDA:0,_ZNSt12_Vector_baseIiSaIiEEC2EmRKS0_
FN:330,_ZNSt12_Vector_baseIiSaIiEED2Ev
FNDA:0,_ZNSt12_Vector_baseIiSaIiEED2Ev
FN:330,_ZNSt12_Vector_baseISt6vectorIiSaIiEESaIS2_EED2Ev
FNDA:0,_ZNSt12_Vector_baseISt6vectorIiSaIiEESaIS2_EED2Ev
FN:340,_ZNSt12_Vector_baseISt6vectorIiSaIiEESaIS2_EE11_M_allocateEm
FNDA:0,_ZNSt12_Vector_baseISt6vectorIiSaIiEESaIS2_EE11_M_allocateEm
FN:340,_ZNSt12_Vector_baseIiSaIiEE11_M_allocateEm
FNDA:0,_ZNSt12_Vector_baseIiSaIiEE11_M_allocateEm
FN:347,_ZNSt12_Vector_baseISt6vectorIiSaIiEESaIS2_EE13_M_deallocateEPS2_m
FNDA:0,_ZNSt12_Vector_baseISt6vectorIiSaIiEESaIS2_EE13_M_deallocateEPS2_m
FN:347,_ZNSt12_Vector_baseIiSaIiEE13_M_deallocateEPim
FNDA:0,_ZNSt12_Vector_baseIiSaIiEE13_M_deallocateEPim
FN:356,_ZNSt12_Vector_baseIiSaIiEE17_M_create_storageEm
FNDA:0,_ZNSt12_Vector_baseIiSaIiEE17_M_create_storageEm
FN:550,_ZNSt6vectorIiSaIiEEC2ERKS1_
FNDA:0,_ZNSt6vectorIiSaIiEEC2ERKS1_
FN:622,_ZNSt6vectorIS_IiSaIiEESaIS1_EEC2ESt16initializer_listIS1_ERKS2_
FNDA:0,_ZNSt6vectorIS_IiSaIiEESaIS1_EEC2ESt16initializer_listIS1_ERKS2_
FN:622,_ZNSt6vectorIiSaIiEEC2ESt16initializer_listIiERKS0_
FNDA:0,_ZNSt6vectorIiSaIiEEC2ESt16initializer_listIiERKS0_
FN:675,_ZNSt6vectorIS_IiSaIiEESaIS1_EED2Ev
FNDA:0,_ZNSt6vectorIS_IiSaIiEESaIS1_EED2Ev
FN:675,_ZNSt6vectorIiSaIiEED2Ev
FNDA:0,_ZNSt6vectorIiSaIiEED2Ev
FN:817,_ZNKSt6vectorIiSaIiEE5beginEv
FNDA:0,_ZNKSt6vectorIiSaIiEE5beginEv
FN:835,_ZNKSt6vectorIiSaIiEE3endEv
FNDA:0,_ZNKSt6vectorIiSaIiEE3endEv
FN:915,_ZNKSt6vectorIiSaIiEE4sizeEv
FNDA:0,_ZNKSt6vectorIiSaIiEE4sizeEv
FN:1574,_ZNSt6vectorIS_IiSaIiEESaIS1_EE19_M_range_initializeIPKS1_EEvT_S7_St20forward_iterator_tag
FNDA:0,_ZNSt6vectorIS_IiSaIiEESaIS1_EE19_M_range_initializeIPKS1_EEvT_S7_St20forward_iterator_tag
FN:1574,_ZNSt6vectorIiSaIiEE19_M_range_initializeIPKiEEvT_S5_St20forward_iterator_tag
FNDA:0,_ZNSt6vectorIiSaIiEE19_M_range_initializeIPKiEEvT_S5_St20forward_iterator_tag
FN:1764,_ZNSt6vectorIiSaIiEE17_S_check_init_lenEmRKS0_
FNDA:0,_ZNSt6vectorIiSaIiEE17_S_check_init_lenEmRKS0_
FN:1764,_ZNSt6vectorIS_IiSaIiEESaIS1_EE17_S_check_init_lenEmRKS2_
FNDA:0,_ZNSt6vectorIS_IiSaIiEESaIS1_EE17_S_check_init_lenEmRKS2_
FN:1773,_ZNSt6vectorIiSaIiEE11_S_max_sizeERKS0_
FNDA:0,_ZNSt6vectorIiSaIiEE11_S_max_sizeERKS0_
FN:1773,_ZNSt6vectorIS_IiSaIiEESaIS1_EE11_S_max_sizeERKS2_
FNDA:0,_ZNSt6vectorIS_IiSaIiEESaIS1_EE11_S_max_sizeERKS2_
DA:94,0
DA:95,0
DA:96,0
DA:94,0
DA:95,0
DA:96,0
DA:133,0
DA:134,0
DA:135,0
DA:133,0
DA:134,0
DA:135,0
DA:273,0
DA:274,0
DA:273,0
DA:274,0
DA:277,0
DA:278,0
DA:290,0
DA:291,0
DA:290,0
DA:291,0
DA:300,0
DA:301,0
DA:302,0
DA:330,0
DA:332,0
DA:333,0
DA:334,0
DA:330,0
DA:332,0
DA:333,0
DA:334,0
DA:340,0
DA:343,0
DA:340,0
DA:343,0
DA:347,0
DA:350,0
DA:351,0
DA:352,0
DA:347,0
DA:350,0
DA:351,0
DA:352,0
DA:356,0
DA:358,0
DA:359,0
DA:360,0
DA:361,0
DA:550,0
DA:552,0
DA:554,0
DA:555,0
DA:557,0
DA:558,0
DA:622,0
DA:624,0
DA:626,0
DA:628,0
DA:622,0
DA:624,0
DA:626,0
DA:628,0
DA:675,0
DA:677,0
DA:678,0
DA:680,0
DA:675,0
DA:677,0
DA:678,0
DA:680,0
DA:817,0
DA:818,0
DA:835,0
DA:836,0
DA:915,0
DA:916,0
DA:1574,0
DA:1577,0
DA:1578,0
DA:1579,0
DA:1580,0
DA:1581,0
DA:1582,0
DA:1584,0
DA:1585,0
DA:1574,0
DA:1577,0
DA:1578,0
DA:1579,0
DA:1580,0
DA:1581,0
DA:1582,0
DA:1584,0
DA:1585,0
DA:1764,0
DA:1766,0
DA:1767,0
DA:1769,0
DA:1764,0
DA:1766,0
DA:1767,0
DA:1769,0
DA:1773,0
DA:1778,0
DA:1780,0
DA:1781,0
DA:1773,0
DA:1778,0
DA:1780,0
DA:1781,0
end_of_record
SF:/usr/include/c++/9/bits/basic_string.tcc
FN:206,_ZNSt7__cxx1112basic_stringIcSt11char_traitsIcESaIcEE12_M_constructIPcEEvT_S7_St20forward_iterator_tag
FNDA:0,_ZNSt7__cxx1112basic_stringIcSt11char_traitsIcESaIcEE12_M_constructIPcEEvT_S7_St20forward_iterator_tag
FN:206,_ZNSt7__cxx1112basic_stringIcSt11char_traitsIcESaIcEE12_M_constructIPKcEEvT_S8_St20forward_iterator_tag
FNDA:0,_ZNSt7__cxx1112basic_stringIcSt11char_traitsIcESaIcEE12_M_constructIPKcEEvT_S8_St20forward_iterator_tag
DA:206,0
DA:211,0
DA:212,0
DA:215,0
DA:217,0
DA:219,0
DA:220,0
DA:225,0
DA:226,0
DA:228,0
DA:229,0
DA:232,0
DA:233,0
DA:206,0
DA:211,0
DA:212,0
DA:215,0
DA:217,0
DA:219,0
DA:220,0
DA:225,0
DA:226,0
DA:228,0
DA:229,0
DA:232,0
DA:233,0
end_of_record
SF:/home/pato/TPIMorfMat/template-alumnos/lib/googletest-master/googletest/include/gtest/gtest-message.h
end_of_record
SF:/usr/include/c++/9/bits/stl_iterator_base_funcs.h
FN:98,_ZSt10__distanceIPcENSt15iterator_traitsIT_E15difference_typeES2_S2_St26random_access_iterator_tag
FNDA:0,_ZSt10__distanceIPcENSt15iterator_traitsIT_E15difference_typeES2_S2_St26random_access_iterator_tag
FN:98,_ZSt10__distanceIPKcENSt15iterator_traitsIT_E15difference_typeES3_S3_St26random_access_iterator_tag
FNDA:0,_ZSt10__distanceIPKcENSt15iterator_traitsIT_E15difference_typeES3_S3_St26random_access_iterator_tag
FN:98,_ZSt10__distanceIPKSt6vectorIiSaIiEEENSt15iterator_traitsIT_E15difference_typeES6_S6_St26random_access_iterator_tag
FNDA:0,_ZSt10__distanceIPKSt6vectorIiSaIiEEENSt15iterator_traitsIT_E15difference_typeES6_S6_St26random_access_iterator_tag
FN:98,_ZSt10__distanceIPKiENSt15iterator_traitsIT_E15difference_typeES3_S3_St26random_access_iterator_tag
FNDA:0,_ZSt10__distanceIPKiENSt15iterator_traitsIT_E15difference_typeES3_S3_St26random_access_iterator_tag
FN:138,_ZSt8distanceIPcENSt15iterator_traitsIT_E15difference_typeES2_S2_
FNDA:0,_ZSt8distanceIPcENSt15iterator_traitsIT_E15difference_typeES2_S2_
FN:138,_ZSt8distanceIPKcENSt15iterator_traitsIT_E15difference_typeES3_S3_
FNDA:0,_ZSt8distanceIPKcENSt15iterator_traitsIT_E15difference_typeES3_S3_
FN:138,_ZSt8distanceIPKSt6vectorIiSaIiEEENSt15iterator_traitsIT_E15difference_typeES6_S6_
FNDA:0,_ZSt8distanceIPKSt6vectorIiSaIiEEENSt15iterator_traitsIT_E15difference_typeES6_S6_
FN:138,_ZSt8distanceIPKiENSt15iterator_traitsIT_E15difference_typeES3_S3_
FNDA:0,_ZSt8distanceIPKiENSt15iterator_traitsIT_E15difference_typeES3_S3_
DA:98,0
DA:104,0
DA:98,0
DA:104,0
DA:98,0
DA:104,0
DA:98,0
DA:104,0
DA:138,0
DA:141,0
DA:142,0
DA:138,0
DA:141,0
DA:142,0
DA:138,0
DA:141,0
DA:142,0
DA:138,0
DA:141,0
DA:142,0
end_of_record
SF:/usr/include/c++/9/bits/stl_iterator.h
FN:806,_ZN9__gnu_cxx17__normal_iteratorIPKiSt6vectorIiSaIiEEEC2ERKS2_
FNDA:0,_ZN9__gnu_cxx17__normal_iteratorIPKiSt6vectorIiSaIiEEEC2ERKS2_
FN:871,_ZNK9__gnu_cxx17__normal_iteratorIPKiSt6vectorIiSaIiEEE4baseEv
FNDA:0,_ZNK9__gnu_cxx17__normal_iteratorIPKiSt6vectorIiSaIiEEE4baseEv
FN:1010,_ZSt12__niter_baseIPKiSt6vectorIiSaIiEEET_N9__gnu_cxx17__normal_iteratorIS5_T0_EE
FNDA:0,_ZSt12__niter_baseIPKiSt6vectorIiSaIiEEET_N9__gnu_cxx17__normal_iteratorIS5_T0_EE
DA:806,0
DA:807,0
DA:871,0
DA:872,0
DA:1010,0
DA:1012,0
end_of_record
SF:/usr/include/c++/9/bits/alloc_traits.h
FN:443,_ZNSt16allocator_traitsISaISt6vectorIiSaIiEEEE8allocateERS3_m
FNDA:0,_ZNSt16allocator_traitsISaISt6vectorIiSaIiEEEE8allocateERS3_m
FN:443,_ZNSt16allocator_traitsISaIiEE8allocateERS0_m
FNDA:0,_ZNSt16allocator_traitsISaIiEE8allocateERS0_m
FN:469,_ZNSt16allocator_traitsISaISt6vectorIiSaIiEEEE10deallocateERS3_PS2_m
FNDA:0,_ZNSt16allocator_traitsISaISt6vectorIiSaIiEEEE10deallocateERS3_PS2_m
FN:469,_ZNSt16allocator_traitsISaIiEE10deallocateERS0_Pim
FNDA:0,_ZNSt16allocator_traitsISaIiEE10deallocateERS0_Pim
FN:505,_ZNSt16allocator_traitsISaISt6vectorIiSaIiEEEE8max_sizeERKS3_
FNDA:0,_ZNSt16allocator_traitsISaISt6vectorIiSaIiEEEE8max_sizeERKS3_
FN:505,_ZNSt16allocator_traitsISaIiEE8max_sizeERKS0_
FNDA:0,_ZNSt16allocator_traitsISaIiEE8max_sizeERKS0_
FN:514,_ZNSt16allocator_traitsISaIiEE37select_on_container_copy_constructionERKS0_
FNDA:0,_ZNSt16allocator_traitsISaIiEE37select_on_container_copy_constructionERKS0_
FN:514,_ZNSt16allocator_traitsISaIcEE37select_on_container_copy_constructionERKS0_
FNDA:0,_ZNSt16allocator_traitsISaIcEE37select_on_container_copy_constructionERKS0_
DA:443,0
DA:444,0
DA:443,0
DA:444,0
DA:469,0
DA:470,0
DA:469,0
DA:470,0
DA:505,0
DA:506,0
DA:505,0
DA:506,0
DA:514,0
DA:515,0
DA:514,0
DA:515,0
end_of_record
SF:/usr/include/c++/9/bits/allocator.h
FN:138,_ZNSaISt6vectorIiSaIiEEEC2Ev
FNDA:0,_ZNSaISt6vectorIiSaIiEEEC2Ev
FN:138,_ZNSaIiEC2Ev
FNDA:0,_ZNSaIiEC2Ev
FN:141,_ZNSaISt6vectorIiSaIiEEEC2ERKS2_
FNDA:0,_ZNSaISt6vectorIiSaIiEEEC2ERKS2_
FN:141,_ZNSaIiEC2ERKS_
FNDA:0,_ZNSaIiEC2ERKS_
FN:153,_ZNSaISt6vectorIiSaIiEEED2Ev
FNDA:0,_ZNSaISt6vectorIiSaIiEEED2Ev
FN:153,_ZNSaIiED2Ev
FNDA:0,_ZNSaIiED2Ev
DA:138,0
DA:138,0
DA:141,0
DA:142,0
DA:141,0
DA:142,0
DA:153,0
DA:153,0
end_of_record
TN:
SF:/home/pato/TPIMorfMat/template-alumnos/lib/googletest-master/googletest/include/gtest/gtest-message.h
end_of_record
SF:/usr/include/c++/9/bits/stl_iterator_base_funcs.h
FN:98,_ZSt10__distanceIPcENSt15iterator_traitsIT_E15difference_typeES2_S2_St26random_access_iterator_tag
FNDA:0,_ZSt10__distanceIPcENSt15iterator_traitsIT_E15difference_typeES2_S2_St26random_access_iterator_tag
FN:98,_ZSt10__distanceIPKcENSt15iterator_traitsIT_E15difference_typeES3_S3_St26random_access_iterator_tag
FNDA:0,_ZSt10__distanceIPKcENSt15iterator_traitsIT_E15difference_typeES3_S3_St26random_access_iterator_tag
FN:98,_ZSt10__distanceIPKSt6vectorIiSaIiEEENSt15iterator_traitsIT_E15difference_typeES6_S6_St26random_access_iterator_tag
FNDA:0,_ZSt10__distanceIPKSt6vectorIiSaIiEEENSt15iterator_traitsIT_E15difference_typeES6_S6_St26random_access_iterator_tag
FN:98,_ZSt10__distanceIPKiENSt15iterator_traitsIT_E15difference_typeES3_S3_St26random_access_iterator_tag
FNDA:0,_ZSt10__distanceIPKiENSt15iterator_traitsIT_E15difference_typeES3_S3_St26random_access_iterator_tag
FN:138,_ZSt8distanceIPcENSt15iterator_traitsIT_E15difference_typeES2_S2_
FNDA:0,_ZSt8distanceIPcENSt15iterator_traitsIT_E15difference_typeES2_S2_
FN:138,_ZSt8distanceIPKcENSt15iterator_traitsIT_E15difference_typeES3_S3_
FNDA:0,_ZSt8distanceIPKcENSt15iterator_traitsIT_E15difference_typeES3_S3_
FN:138,_ZSt8distanceIPKSt6vectorIiSaIiEEENSt15iterator_traitsIT_E15difference_typeES6_S6_
FNDA:0,_ZSt8distanceIPKSt6vectorIiSaIiEEENSt15iterator_traitsIT_E15difference_typeES6_S6_
FN:138,_ZSt8distanceIPKiENSt15iterator_traitsIT_E15difference_typeES3_S3_
FNDA:0,_ZSt8distanceIPKiENSt15iterator_traitsIT_E15difference_typeES3_S3_
DA:98,0
DA:104,0
DA:98,0
DA:104,0
DA:98,0
DA:104,0
DA:98,0
DA:104,0
DA:138,0
DA:141,0
DA:142,0
DA:138,0
DA:141,0
DA:142,0
DA:138,0
DA:141,0
DA:142,0
DA:138,0
DA:141,0
DA:142,0
end_of_record
SF:/usr/include/c++/9/bits/stl_iterator.h
FN:806,_ZN9__gnu_cxx17__normal_iteratorIPKiSt6vectorIiSaIiEEEC2ERKS2_
FNDA:0,_ZN9__gnu_cxx17__normal_iteratorIPKiSt6vectorIiSaIiEEEC2ERKS2_
FN:871,_ZNK9__gnu_cxx17__normal_iteratorIPKiSt6vectorIiSaIiEEE4baseEv
FNDA:0,_ZNK9__gnu_cxx17__normal_iteratorIPKiSt6vectorIiSaIiEEE4baseEv
FN:1010,_ZSt12__niter_baseIPKiSt6vectorIiSaIiEEET_N9__gnu_cxx17__normal_iteratorIS5_T0_EE
FNDA:0,_ZSt12__niter_baseIPKiSt6vectorIiSaIiEEET_N9__gnu_cxx17__normal_iteratorIS5_T0_EE
DA:806,0
DA:807,0
DA:871,0
DA:872,0
DA:1010,0
DA:1012,0
end_of_record
SF:/usr/include/c++/9/bits/allocator.h
FN:138,_ZNSaISt6vectorIiSaIiEEEC2Ev
FNDA:0,_ZNSaISt6vectorIiSaIiEEEC2Ev
FN:138,_ZNSaIiEC2Ev
FNDA:0,_ZNSaIiEC2Ev
FN:141,_ZNSaISt6vectorIiSaIiEEEC2ERKS2_
FNDA:0,_ZNSaISt6vectorIiSaIiEEEC2ERKS2_
FN:141,_ZNSaIiEC2ERKS_
FNDA:0,_ZNSaIiEC2ERKS_
FN:153,_ZNSaISt6vectorIiSaIiEEED2Ev
FNDA:0,_ZNSaISt6vectorIiSaIiEEED2Ev
FN:153,_ZNSaIiED2Ev
FNDA:0,_ZNSaIiED2Ev
DA:138,0
DA:138,0
DA:141,0
DA:142,0
DA:141,0
DA:142,0
DA:153,0
DA:153,0
end_of_record
SF:/usr/include/c++/9/bits/alloc_traits.h
FN:443,_ZNSt16allocator_traitsISaISt6vectorIiSaIiEEEE8allocateERS3_m
FNDA:0,_ZNSt16allocator_traitsISaISt6vectorIiSaIiEEEE8allocateERS3_m
FN:443,_ZNSt16allocator_traitsISaIiEE8allocateERS0_m
FNDA:0,_ZNSt16allocator_traitsISaIiEE8allocateERS0_m
FN:469,_ZNSt16allocator_traitsISaISt6vectorIiSaIiEEEE10deallocateERS3_PS2_m
FNDA:0,_ZNSt16allocator_traitsISaISt6vectorIiSaIiEEEE10deallocateERS3_PS2_m
FN:469,_ZNSt16allocator_traitsISaIiEE10deallocateERS0_Pim
FNDA:0,_ZNSt16allocator_traitsISaIiEE10deallocateERS0_Pim
FN:505,_ZNSt16allocator_traitsISaISt6vectorIiSaIiEEEE8max_sizeERKS3_
FNDA:0,_ZNSt16allocator_traitsISaISt6vectorIiSaIiEEEE8max_sizeERKS3_
FN:505,_ZNSt16allocator_traitsISaIiEE8max_sizeERKS0_
FNDA:0,_ZNSt16allocator_traitsISaIiEE8max_sizeERKS0_
FN:514,_ZNSt16allocator_traitsISaIiEE37select_on_container_copy_constructionERKS0_
FNDA:0,_ZNSt16allocator_traitsISaIiEE37select_on_container_copy_constructionERKS0_
FN:514,_ZNSt16allocator_traitsISaIcEE37select_on_container_copy_constructionERKS0_
FNDA:0,_ZNSt16allocator_traitsISaIcEE37select_on_container_copy_constructionERKS0_
DA:443,0
DA:444,0
DA:443,0
DA:444,0
DA:469,0
DA:470,0
DA:469,0
DA:470,0
DA:505,0
DA:506,0
DA:505,0
DA:506,0
DA:514,0
DA:515,0
DA:514,0
DA:515,0
end_of_record
SF:/home/pato/TPIMorfMat/template-alumnos/lib/googletest-master/googletest/include/gtest/internal/gtest-port.h
FN:1184,_ZN7testing8internal10scoped_ptrINSt7__cxx1112basic_stringIcSt11char_traitsIcESaIcEEEEC2EPS7_
FNDA:0,_ZN7testing8internal10scoped_ptrINSt7__cxx1112basic_stringIcSt11char_traitsIcESaIcEEEEC2EPS7_
FN:1185,_ZN7testing8internal10scoped_ptrINSt7__cxx1112basic_stringIcSt11char_traitsIcESaIcEEEED2Ev
FNDA:0,_ZN7testing8internal10scoped_ptrINSt7__cxx1112basic_stringIcSt11char_traitsIcESaIcEEEED2Ev
FN:1185,_ZN7testing8internal10scoped_ptrINSt7__cxx1118basic_stringstreamIcSt11char_traitsIcESaIcEEEED2Ev
FNDA:0,_ZN7testing8internal10scoped_ptrINSt7__cxx1118basic_stringstreamIcSt11char_traitsIcESaIcEEEED2Ev
FN:1197,_ZN7testing8internal10scoped_ptrINSt7__cxx1118basic_stringstreamIcSt11char_traitsIcESaIcEEEE5resetEPS7_
FNDA:0,_ZN7testing8internal10scoped_ptrINSt7__cxx1118basic_stringstreamIcSt11char_traitsIcESaIcEEEE5resetEPS7_
FN:1197,_ZN7testing8internal10scoped_ptrINSt7__cxx1112basic_stringIcSt11char_traitsIcESaIcEEEE5resetEPS7_
FNDA:0,_ZN7testing8internal10scoped_ptrINSt7__cxx1112basic_stringIcSt11char_traitsIcESaIcEEEE5resetEPS7_
DA:1184,0
DA:1185,0
DA:1185,0
DA:1197,0
DA:1198,0
DA:1199,0
DA:1200,0
DA:1202,0
DA:1204,0
DA:1197,0
DA:1198,0
DA:1199,0
DA:1200,0
DA:1202,0
DA:1204,0
end_of_record
SF:/usr/include/c++/9/ext/type_traits.h
FN:152,_ZN9__gnu_cxx17__is_null_pointerIcEEbPT_
FNDA:0,_ZN9__gnu_cxx17__is_null_pointerIcEEbPT_
FN:152,_ZN9__gnu_cxx17__is_null_pointerIKcEEbPT_
FNDA:0,_ZN9__gnu_cxx17__is_null_pointerIKcEEbPT_
DA:152,0
DA:153,0
DA:152,0
DA:153,0
end_of_record
SF:/usr/include/c++/9/bits/stl_vector.h
FN:94,_ZNSt12_Vector_baseIiSaIiEE17_Vector_impl_dataC2Ev
FNDA:0,_ZNSt12_Vector_baseIiSaIiEE17_Vector_impl_dataC2Ev
FN:94,_ZNSt12_Vector_baseISt6vectorIiSaIiEESaIS2_EE17_Vector_impl_dataC2Ev
FNDA:0,_ZNSt12_Vector_baseISt6vectorIiSaIiEESaIS2_EE17_Vector_impl_dataC2Ev
FN:133,_ZNSt12_Vector_baseIiSaIiEE12_Vector_implC2ERKS0_
FNDA:0,_ZNSt12_Vector_baseIiSaIiEE12_Vector_implC2ERKS0_
FN:133,_ZNSt12_Vector_baseISt6vectorIiSaIiEESaIS2_EE12_Vector_implC2ERKS3_
FNDA:0,_ZNSt12_Vector_baseISt6vectorIiSaIiEESaIS2_EE12_Vector_implC2ERKS3_
FN:273,_ZNSt12_Vector_baseISt6vectorIiSaIiEESaIS2_EE19_M_get_Tp_allocatorEv
FNDA:0,_ZNSt12_Vector_baseISt6vectorIiSaIiEESaIS2_EE19_M_get_Tp_allocatorEv
FN:273,_ZNSt12_Vector_baseIiSaIiEE19_M_get_Tp_allocatorEv
FNDA:0,_ZNSt12_Vector_baseIiSaIiEE19_M_get_Tp_allocatorEv
FN:277,_ZNKSt12_Vector_baseIiSaIiEE19_M_get_Tp_allocatorEv
FNDA:0,_ZNKSt12_Vector_baseIiSaIiEE19_M_get_Tp_allocatorEv
FN:290,_ZNSt12_Vector_baseIiSaIiEEC2ERKS0_
FNDA:0,_ZNSt12_Vector_baseIiSaIiEEC2ERKS0_
FN:290,_ZNSt12_Vector_baseISt6vectorIiSaIiEESaIS2_EEC2ERKS3_
FNDA:0,_ZNSt12_Vector_baseISt6vectorIiSaIiEESaIS2_EEC2ERKS3_
FN:300,_ZNSt12_Vector_baseIiSaIiEEC2EmRKS0_
FNDA:0,_ZNSt12_Vector_baseIiSaIiEEC2EmRKS0_
FN:330,_ZNSt12_Vector_baseIiSaIiEED2Ev
FNDA:0,_ZNSt12_Vector_baseIiSaIiEED2Ev
FN:330,_ZNSt12_Vector_baseISt6vectorIiSaIiEESaIS2_EED2Ev
FNDA:0,_ZNSt12_Vector_baseISt6vectorIiSaIiEESaIS2_EED2Ev
FN:340,_ZNSt12_Vector_baseISt6vectorIiSaIiEESaIS2_EE11_M_allocateEm
FNDA:0,_ZNSt12_Vector_baseISt6vectorIiSaIiEESaIS2_EE11_M_allocateEm
FN:340,_ZNSt12_Vector_baseIiSaIiEE11_M_allocateEm
FNDA:0,_ZNSt12_Vector_baseIiSaIiEE11_M_allocateEm
FN:347,_ZNSt12_Vector_baseISt6vectorIiSaIiEESaIS2_EE13_M_deallocateEPS2_m
FNDA:0,_ZNSt12_Vector_baseISt6vectorIiSaIiEESaIS2_EE13_M_deallocateEPS2_m
FN:347,_ZNSt12_Vector_baseIiSaIiEE13_M_deallocateEPim
FNDA:0,_ZNSt12_Vector_baseIiSaIiEE13_M_deallocateEPim
FN:356,_ZNSt12_Vector_baseIiSaIiEE17_M_create_storageEm
FNDA:0,_ZNSt12_Vector_baseIiSaIiEE17_M_create_storageEm
FN:550,_ZNSt6vectorIiSaIiEEC2ERKS1_
FNDA:0,_ZNSt6vectorIiSaIiEEC2ERKS1_
FN:622,_ZNSt6vectorIS_IiSaIiEESaIS1_EEC2ESt16initializer_listIS1_ERKS2_
FNDA:0,_ZNSt6vectorIS_IiSaIiEESaIS1_EEC2ESt16initializer_listIS1_ERKS2_
FN:622,_ZNSt6vectorIiSaIiEEC2ESt16initializer_listIiERKS0_
FNDA:0,_ZNSt6vectorIiSaIiEEC2ESt16initializer_listIiERKS0_
FN:675,_ZNSt6vectorIS_IiSaIiEESaIS1_EED2Ev
FNDA:0,_ZNSt6vectorIS_IiSaIiEESaIS1_EED2Ev
FN:675,_ZNSt6vectorIiSaIiEED2Ev
FNDA:0,_ZNSt6vectorIiSaIiEED2Ev
FN:817,_ZNKSt6vectorIiSaIiEE5beginEv
FNDA:0,_ZNKSt6vectorIiSaIiEE5beginEv
FN:835,_ZNKSt6vectorIiSaIiEE3endEv
FNDA:0,_ZNKSt6vectorIiSaIiEE3endEv
FN:915,_ZNKSt6vectorIiSaIiEE4sizeEv
FNDA:0,_ZNKSt6vectorIiSaIiEE4sizeEv
FN:1574,_ZNSt6vectorIS_IiSaIiEESaIS1_EE19_M_range_initializeIPKS1_EEvT_S7_St20forward_iterator_tag
FNDA:0,_ZNSt6vectorIS_IiSaIiEESaIS1_EE19_M_range_initializeIPKS1_EEvT_S7_St20forward_iterator_tag
FN:1574,_ZNSt6vectorIiSaIiEE19_M_range_initializeIPKiEEvT_S5_St20forward_iterator_tag
FNDA:0,_ZNSt6vectorIiSaIiEE19_M_range_initializeIPKiEEvT_S5_St20forward_iterator_tag
FN:1764,_ZNSt6vectorIiSaIiEE17_S_check_init_lenEmRKS0_
FNDA:0,_ZNSt6vectorIiSaIiEE17_S_check_init_lenEmRKS0_
FN:1764,_ZNSt6vectorIS_IiSaIiEESaIS1_EE17_S_check_init_lenEmRKS2_
FNDA:0,_ZNSt6vectorIS_IiSaIiEESaIS1_EE17_S_check_init_lenEmRKS2_
FN:1773,_ZNSt6vectorIiSaIiEE11_S_max_sizeERKS0_
FNDA:0,_ZNSt6vectorIiSaIiEE11_S_max_sizeERKS0_
FN:1773,_ZNSt6vectorIS_IiSaIiEESaIS1_EE11_S_max_sizeERKS2_
FNDA:0,_ZNSt6vectorIS_IiSaIiEESaIS1_EE11_S_max_sizeERKS2_
DA:94,0
DA:95,0
DA:96,0
DA:94,0
DA:95,0
DA:96,0
DA:133,0
DA:134,0
DA:135,0
DA:133,0
DA:134,0
DA:135,0
DA:273,0
DA:274,0
DA:273,0
DA:274,0
DA:277,0
DA:278,0
DA:290,0
DA:291,0
DA:290,0
DA:291,0
DA:300,0
DA:301,0
DA:302,0
DA:330,0
DA:332,0
DA:333,0
DA:334,0
DA:330,0
DA:332,0
DA:333,0
DA:334,0
DA:340,0
DA:343,0
DA:340,0
DA:343,0
DA:347,0
DA:350,0
DA:351,0
DA:352,0
DA:347,0
DA:350,0
DA:351,0
DA:352,0
DA:356,0
DA:358,0
DA:359,0
DA:360,0
DA:361,0
DA:550,0
DA:552,0
DA:554,0
DA:555,0
DA:557,0
DA:558,0
DA:622,0
DA:624,0
DA:626,0
DA:628,0
DA:622,0
DA:624,0
DA:626,0
DA:628,0
DA:675,0
DA:677,0
DA:678,0
DA:680,0
DA:675,0
DA:677,0
DA:678,0
DA:680,0
DA:817,0
DA:818,0
DA:835,0
DA:836,0
DA:915,0
DA:916,0
DA:1574,0
DA:1577,0
DA:1578,0
DA:1579,0
DA:1580,0
DA:1581,0
DA:1582,0
DA:1584,0
DA:1585,0
DA:1574,0
DA:1577,0
DA:1578,0
DA:1579,0
DA:1580,0
DA:1581,0
DA:1582,0
DA:1584,0
DA:1585,0
DA:1764,0
DA:1766,0
DA:1767,0
DA:1769,0
DA:1764,0
DA:1766,0
DA:1767,0
DA:1769,0
DA:1773,0
DA:1778,0
DA:1780,0
DA:1781,0
DA:1773,0
DA:1778,0
DA:1780,0
DA:1781,0
end_of_record
SF:/usr/include/c++/9/bits/basic_string.tcc
FN:206,_ZNSt7__cxx1112basic_stringIcSt11char_traitsIcESaIcEE12_M_constructIPcEEvT_S7_St20forward_iterator_tag
FNDA:0,_ZNSt7__cxx1112basic_stringIcSt11char_traitsIcESaIcEE12_M_constructIPcEEvT_S7_St20forward_iterator_tag
FN:206,_ZNSt7__cxx1112basic_stringIcSt11char_traitsIcESaIcEE12_M_constructIPKcEEvT_S8_St20forward_iterator_tag
FNDA:0,_ZNSt7__cxx1112basic_stringIcSt11char_traitsIcESaIcEE12_M_constructIPKcEEvT_S8_St20forward_iterator_tag
DA:206,0
DA:211,0
DA:212,0
DA:215,0
DA:217,0
DA:219,0
DA:220,0
DA:225,0
DA:226,0
DA:228,0
DA:229,0
DA:232,0
DA:233,0
DA:206,0
DA:211,0
DA:212,0
DA:215,0
DA:217,0
DA:219,0
DA:220,0
DA:225,0
DA:226,0
DA:228,0
DA:229,0
DA:232,0
DA:233,0
end_of_record
SF:/home/pato/TPIMorfMat/template-alumnos/lib/googletest-master/googletest/include/gtest/gtest.h
FN:286,_ZN7testing15AssertionResultC2IbEERKT_PNS_8internal8EnableIfIXntsrNS5_21ImplicitlyConvertibleIS2_S0_EE5valueEE4typeE
FNDA:0,_ZN7testing15AssertionResultC2IbEERKT_PNS_8internal8EnableIfIXntsrNS5_21ImplicitlyConvertibleIS2_S0_EE5valueEE4typeE
FN:304,_ZNK7testing15AssertionResultcvbEv
FNDA:0,_ZNK7testing15AssertionResultcvbEv
FN:414,_ZN7testing4Test13SetUpTestCaseEv
FNDA:0,_ZN7testing4Test13SetUpTestCaseEv
FN:422,_ZN7testing4Test16TearDownTestCaseEv
FNDA:0,_ZN7testing4Test16TearDownTestCaseEv
FN:499,_ZN7testing4Test5SetupEv
FNDA:0,_ZN7testing4Test5SetupEv
DA:286,0
DA:291,0
DA:304,0
DA:414,0
DA:422,0
DA:499,0
end_of_record
SF:/usr/include/c++/9/bits/move.h
FN:47,_ZSt11__addressofISt6vectorIiSaIiEEEPT_RS3_
FNDA:0,_ZSt11__addressofISt6vectorIiSaIiEEEPT_RS3_
FN:74,_ZSt7forwardIRKSt6vectorIiSaIiEEEOT_RNSt16remove_referenceIS5_E4typeE
FNDA:0,_ZSt7forwardIRKSt6vectorIiSaIiEEEOT_RNSt16remove_referenceIS5_E4typeE
FN:99,_ZSt4moveIRSaIcEEONSt16remove_referenceIT_E4typeEOS3_
FNDA:0,_ZSt4moveIRSaIcEEONSt16remove_referenceIT_E4typeEOS3_
DA:47,0
DA:48,0
DA:74,0
DA:75,0
DA:99,0
DA:100,0
end_of_record
SF:/usr/include/c++/9/bits/char_traits.h
FN:329,_ZNSt11char_traitsIcE6lengthEPKc
FNDA:0,_ZNSt11char_traitsIcE6lengthEPKc
DA:329,0
DA:335,0
end_of_record
SF:/usr/include/c++/9/bits/basic_string.h
FN:243,_ZNSt7__cxx1112basic_stringIcSt11char_traitsIcESaIcEE16_M_construct_auxIPcEEvT_S7_St12__false_type
FNDA:0,_ZNSt7__cxx1112basic_stringIcSt11char_traitsIcESaIcEE16_M_construct_auxIPcEEvT_S7_St12__false_type
FN:243,_ZNSt7__cxx1112basic_stringIcSt11char_traitsIcESaIcEE16_M_construct_auxIPKcEEvT_S8_St12__false_type
FNDA:0,_ZNSt7__cxx1112basic_stringIcSt11char_traitsIcESaIcEE16_M_construct_auxIPKcEEvT_S8_St12__false_type
FN:263,_ZNSt7__cxx1112basic_stringIcSt11char_traitsIcESaIcEE12_M_constructIPcEEvT_S7_
FNDA:0,_ZNSt7__cxx1112basic_stringIcSt11char_traitsIcESaIcEE12_M_constructIPcEEvT_S7_
FN:263,_ZNSt7__cxx1112basic_stringIcSt11char_traitsIcESaIcEE12_M_constructIPKcEEvT_S8_
FNDA:0,_ZNSt7__cxx1112basic_stringIcSt11char_traitsIcESaIcEE12_M_constructIPKcEEvT_S8_
DA:243,0
DA:247,0
DA:248,0
DA:243,0
DA:247,0
DA:248,0
DA:263,0
DA:266,0
DA:267,0
DA:263,0
DA:266,0
DA:267,0
end_of_record
SF:/home/pato/TPIMorfMat/template-alumnos/lib/googletest-master/googletest/include/gtest/internal/gtest-internal.h
FN:448,_ZN7testing8internal15TestFactoryBaseD0Ev
FNDA:0,_ZN7testing8internal15TestFactoryBaseD0Ev
FN:448,_ZN7testing8internal15TestFactoryBaseD2Ev
FNDA:0,_ZN7testing8internal15TestFactoryBaseD2Ev
FN:455,_ZN7testing8internal15TestFactoryBaseC2Ev
FNDA:0,_ZN7testing8internal15TestFactoryBaseC2Ev
FN:466,_ZN7testing8internal15TestFactoryImplI75sonPixelesConectadosTest_PixelesEnCaminoLargoAdy4EstanConectadosAdy4v2_TestE10CreateTestEv
FNDA:1,_ZN7testing8internal15TestFactoryImplI75sonPixelesConectadosTest_PixelesEnCaminoLargoAdy4EstanConectadosAdy4v2_TestE10CreateTestEv
FN:466,_ZN7testing8internal15TestFactoryImplI75sonPixelesConectadosTest_PixelesEnCaminoLargoAdy4EstanConectadosAdy4v3_TestE10CreateTestEv
FNDA:1,_ZN7testing8internal15TestFactoryImplI75sonPixelesConectadosTest_PixelesEnCaminoLargoAdy4EstanConectadosAdy4v3_TestE10CreateTestEv
FN:466,_ZN7testing8internal15TestFactoryImplI75sonPixelesConectadosTest_PixelesEnCaminoLargoAdy4EstanConectadosAdy4v4_TestE10CreateTestEv
FNDA:1,_ZN7testing8internal15TestFactoryImplI75sonPixelesConectadosTest_PixelesEnCaminoLargoAdy4EstanConectadosAdy4v4_TestE10CreateTestEv
FN:466,_ZN7testing8internal15TestFactoryImplI75sonPixelesConectadosTest_PixelesEnCaminoLargoAdy8EstanConectadosAdy8v1_TestE10CreateTestEv
FNDA:1,_ZN7testing8internal15TestFactoryImplI75sonPixelesConectadosTest_PixelesEnCaminoLargoAdy8EstanConectadosAdy8v1_TestE10CreateTestEv
FN:487,_ZN7testing8internal12CodeLocationC2ERKNSt7__cxx1112basic_stringIcSt11char_traitsIcESaIcEEEi
FNDA:0,_ZN7testing8internal12CodeLocationC2ERKNSt7__cxx1112basic_stringIcSt11char_traitsIcESaIcEEEi
DA:448,0
DA:448,0
DA:455,0
DA:466,1
DA:466,1
DA:466,1
DA:466,1
DA:487,0
DA:488,0
end_of_record
SF:/usr/include/c++/9/bits/stl_iterator_base_types.h
FN:205,_ZSt19__iterator_categoryIPcENSt15iterator_traitsIT_E17iterator_categoryERKS2_
FNDA:0,_ZSt19__iterator_categoryIPcENSt15iterator_traitsIT_E17iterator_categoryERKS2_
FN:205,_ZSt19__iterator_categoryIPKcENSt15iterator_traitsIT_E17iterator_categoryERKS3_
FNDA:0,_ZSt19__iterator_categoryIPKcENSt15iterator_traitsIT_E17iterator_categoryERKS3_
FN:205,_ZSt19__iterator_categoryIPKSt6vectorIiSaIiEEENSt15iterator_traitsIT_E17iterator_categoryERKS6_
FNDA:0,_ZSt19__iterator_categoryIPKSt6vectorIiSaIiEEENSt15iterator_traitsIT_E17iterator_categoryERKS6_
FN:205,_ZSt19__iterator_categoryIPKiENSt15iterator_traitsIT_E17iterator_categoryERKS3_
FNDA:0,_ZSt19__iterator_categoryIPKiENSt15iterator_traitsIT_E17iterator_categoryERKS3_
DA:205,0
DA:206,0
DA:205,0
DA:206,0
DA:205,0
DA:206,0
DA:205,0
DA:206,0
end_of_record
SF:/usr/include/c++/9/initializer_list
FN:71,_ZNKSt16initializer_listISt6vectorIiSaIiEEE4sizeEv
FNDA:0,_ZNKSt16initializer_listISt6vectorIiSaIiEEE4sizeEv
FN:71,_ZNKSt16initializer_listIiE4sizeEv
FNDA:0,_ZNKSt16initializer_listIiE4sizeEv
FN:75,_ZNKSt16initializer_listISt6vectorIiSaIiEEE5beginEv
FNDA:0,_ZNKSt16initializer_listISt6vectorIiSaIiEEE5beginEv
FN:75,_ZNKSt16initializer_listIiE5beginEv
FNDA:0,_ZNKSt16initializer_listIiE5beginEv
FN:79,_ZNKSt16initializer_listISt6vectorIiSaIiEEE3endEv
FNDA:0,_ZNKSt16initializer_listISt6vectorIiSaIiEEE3endEv
FN:79,_ZNKSt16initializer_listIiE3endEv
FNDA:0,_ZNKSt16initializer_listIiE3endEv
DA:71,0
DA:71,0
DA:75,0
DA:75,0
DA:79,0
DA:79,0
end_of_record
SF:/home/pato/TPIMorfMat/template-alumnos/tests/ej2TESTNUESTROS.cpp
FN:4,_ZN75sonPixelesConectadosTest_PixelesEnCaminoLargoAdy4EstanConectadosAdy4v2_Test8TestBodyEv
FNDA:1,_ZN75sonPixelesConectadosTest_PixelesEnCaminoLargoAdy4EstanConectadosAdy4v2_Test8TestBodyEv
FN:4,_ZN75sonPixelesConectadosTest_PixelesEnCaminoLargoAdy4EstanConectadosAdy4v2_TestC2Ev
FNDA:1,_ZN75sonPixelesConectadosTest_PixelesEnCaminoLargoAdy4EstanConectadosAdy4v2_TestC2Ev
FN:17,_ZN75sonPixelesConectadosTest_PixelesEnCaminoLargoAdy4EstanConectadosAdy4v3_Test8TestBodyEv
FNDA:1,_ZN75sonPixelesConectadosTest_PixelesEnCaminoLargoAdy4EstanConectadosAdy4v3_Test8TestBodyEv
FN:17,_ZN75sonPixelesConectadosTest_PixelesEnCaminoLargoAdy4EstanConectadosAdy4v3_TestC2Ev
FNDA:1,_ZN75sonPixelesConectadosTest_PixelesEnCaminoLargoAdy4EstanConectadosAdy4v3_TestC2Ev
FN:30,_ZN75sonPixelesConectadosTest_PixelesEnCaminoLargoAdy4EstanConectadosAdy4v4_Test8TestBodyEv
FNDA:1,_ZN75sonPixelesConectadosTest_PixelesEnCaminoLargoAdy4EstanConectadosAdy4v4_Test8TestBodyEv
FN:30,_ZN75sonPixelesConectadosTest_PixelesEnCaminoLargoAdy4EstanConectadosAdy4v4_TestC2Ev
FNDA:1,_ZN75sonPixelesConectadosTest_PixelesEnCaminoLargoAdy4EstanConectadosAdy4v4_TestC2Ev
FN:48,_ZN75sonPixelesConectadosTest_PixelesEnCaminoLargoAdy8EstanConectadosAdy8v1_Test8TestBodyEv
FNDA:1,_ZN75sonPixelesConectadosTest_PixelesEnCaminoLargoAdy8EstanConectadosAdy8v1_Test8TestBodyEv
FN:48,_ZN75sonPixelesConectadosTest_PixelesEnCaminoLargoAdy8EstanConectadosAdy8v1_TestC2Ev
FNDA:1,_ZN75sonPixelesConectadosTest_PixelesEnCaminoLargoAdy8EstanConectadosAdy8v1_TestC2Ev
DA:4,1
DA:11,9
DA:12,2
DA:13,2
DA:14,1
DA:15,1
DA:4,1
DA:17,1
DA:24,9
DA:25,2
DA:26,2
DA:27,1
DA:28,1
DA:17,1
DA:30,1
DA:42,14
DA:43,2
DA:44,2
DA:45,1
DA:46,1
DA:30,1
DA:48,1
DA:60,14
DA:61,2
DA:62,2
DA:63,1
DA:64,1
DA:48,1
end_of_record
SF:/usr/include/c++/9/ext/alloc_traits.h
FN:97,_ZN9__gnu_cxx14__alloc_traitsISaIiEiE17_S_select_on_copyERKS1_
FNDA:0,_ZN9__gnu_cxx14__alloc_traitsISaIiEiE17_S_select_on_copyERKS1_
FN:97,_ZN9__gnu_cxx14__alloc_traitsISaIcEcE17_S_select_on_copyERKS1_
FNDA:0,_ZN9__gnu_cxx14__alloc_traitsISaIcEcE17_S_select_on_copyERKS1_
DA:97,0
DA:98,0
DA:97,0
DA:98,0
end_of_record
SF:/usr/include/c++/9/ext/new_allocator.h
FN:80,_ZN9__gnu_cxx13new_allocatorISt6vectorIiSaIiEEEC2Ev
FNDA:0,_ZN9__gnu_cxx13new_allocatorISt6vectorIiSaIiEEEC2Ev
FN:80,_ZN9__gnu_cxx13new_allocatorIiEC2Ev
FNDA:0,_ZN9__gnu_cxx13new_allocatorIiEC2Ev
FN:80,_ZN9__gnu_cxx13new_allocatorIcEC2Ev
FNDA:0,_ZN9__gnu_cxx13new_allocatorIcEC2Ev
FN:83,_ZN9__gnu_cxx13new_allocatorISt6vectorIiSaIiEEEC2ERKS4_
FNDA:0,_ZN9__gnu_cxx13new_allocatorISt6vectorIiSaIiEEEC2ERKS4_
FN:83,_ZN9__gnu_cxx13new_allocatorIiEC2ERKS1_
FNDA:0,_ZN9__gnu_cxx13new_allocatorIiEC2ERKS1_
FN:83,_ZN9__gnu_cxx13new_allocatorIcEC2ERKS1_
FNDA:0,_ZN9__gnu_cxx13new_allocatorIcEC2ERKS1_
FN:89,_ZN9__gnu_cxx13new_allocatorISt6vectorIiSaIiEEED2Ev
FNDA:0,_ZN9__gnu_cxx13new_allocatorISt6vectorIiSaIiEEED2Ev
FN:89,_ZN9__gnu_cxx13new_allocatorIiED2Ev
FNDA:0,_ZN9__gnu_cxx13new_allocatorIiED2Ev
FN:89,_ZN9__gnu_cxx13new_allocatorIcED2Ev
FNDA:0,_ZN9__gnu_cxx13new_allocatorIcED2Ev
FN:102,_ZN9__gnu_cxx13new_allocatorISt6vectorIiSaIiEEE8allocateEmPKv
FNDA:0,_ZN9__gnu_cxx13new_allocatorISt6vectorIiSaIiEEE8allocateEmPKv
FN:102,_ZN9__gnu_cxx13new_allocatorIiE8allocateEmPKv
FNDA:0,_ZN9__gnu_cxx13new_allocatorIiE8allocateEmPKv
FN:119,_ZN9__gnu_cxx13new_allocatorISt6vectorIiSaIiEEE10deallocateEPS3_m
FNDA:0,_ZN9__gnu_cxx13new_allocatorISt6vectorIiSaIiEEE10deallocateEPS3_m
FN:119,_ZN9__gnu_cxx13new_allocatorIiE10deallocateEPim
FNDA:0,_ZN9__gnu_cxx13new_allocatorIiE10deallocateEPim
FN:132,_ZNK9__gnu_cxx13new_allocatorISt6vectorIiSaIiEEE8max_sizeEv
FNDA:0,_ZNK9__gnu_cxx13new_allocatorISt6vectorIiSaIiEEE8max_sizeEv
FN:132,_ZNK9__gnu_cxx13new_allocatorIiE8max_sizeEv
FNDA:0,_ZNK9__gnu_cxx13new_allocatorIiE8max_sizeEv
DA:80,0
DA:80,0
DA:80,0
DA:83,0
DA:83,0
DA:83,0
DA:89,0
DA:89,0
DA:89,0
DA:102,0
DA:104,0
DA:105,0
DA:114,0
DA:102,0
DA:104,0
DA:105,0
DA:114,0
DA:119,0
DA:128,0
DA:129,0
DA:119,0
DA:128,0
DA:129,0
DA:132,0
DA:135,0
DA:132,0
DA:135,0
end_of_record
SF:/usr/include/c++/9/bits/stl_construct.h
FN:74,_ZSt10_ConstructISt6vectorIiSaIiEEJRKS2_EEvPT_DpOT0_
FNDA:0,_ZSt10_ConstructISt6vectorIiSaIiEEJRKS2_EEvPT_DpOT0_
FN:97,_ZSt8_DestroyISt6vectorIiSaIiEEEvPT_
FNDA:0,_ZSt8_DestroyISt6vectorIiSaIiEEEvPT_
FN:105,_ZNSt12_Destroy_auxILb0EE9__destroyIPSt6vectorIiSaIiEEEEvT_S6_
FNDA:0,_ZNSt12_Destroy_auxILb0EE9__destroyIPSt6vectorIiSaIiEEEEvT_S6_
FN:117,_ZNSt12_Destroy_auxILb1EE9__destroyIPiEEvT_S3_
FNDA:0,_ZNSt12_Destroy_auxILb1EE9__destroyIPiEEvT_S3_
FN:127,_ZSt8_DestroyIPSt6vectorIiSaIiEEEvT_S4_
FNDA:0,_ZSt8_DestroyIPSt6vectorIiSaIiEEEvT_S4_
FN:127,_ZSt8_DestroyIPiEvT_S1_
FNDA:0,_ZSt8_DestroyIPiEvT_S1_
FN:203,_ZSt8_DestroyIPSt6vectorIiSaIiEES2_EvT_S4_RSaIT0_E
FNDA:0,_ZSt8_DestroyIPSt6vectorIiSaIiEES2_EvT_S4_RSaIT0_E
FN:203,_ZSt8_DestroyIPiiEvT_S1_RSaIT0_E
FNDA:0,_ZSt8_DestroyIPiiEvT_S1_RSaIT0_E
DA:74,0
DA:75,0
DA:97,0
DA:98,0
DA:105,0
DA:107,0
DA:108,0
DA:109,0
DA:117,0
DA:127,0
DA:137,0
DA:138,0
DA:127,0
DA:137,0
DA:138,0
DA:203,0
DA:206,0
DA:207,0
DA:203,0
DA:206,0
DA:207,0
end_of_record
SF:/usr/include/c++/9/bits/stl_algobase.h
FN:198,_ZSt3minImERKT_S2_S2_
FNDA:0,_ZSt3minImERKT_S2_S2_
FN:280,_ZSt12__niter_baseIPiET_S1_
FNDA:0,_ZSt12__niter_baseIPiET_S1_
FN:280,_ZSt12__niter_baseIPKiET_S2_
FNDA:0,_ZSt12__niter_baseIPKiET_S2_
FN:295,_ZSt12__niter_wrapIPiET_RKS1_S1_
FNDA:0,_ZSt12__niter_wrapIPiET_RKS1_S1_
FN:375,_ZNSt11__copy_moveILb0ELb1ESt26random_access_iterator_tagE8__copy_mIiEEPT_PKS3_S6_S4_
FNDA:0,_ZNSt11__copy_moveILb0ELb1ESt26random_access_iterator_tagE8__copy_mIiEEPT_PKS3_S6_S4_
FN:393,_ZSt13__copy_move_aILb0EPKiPiET1_T0_S4_S3_
FNDA:0,_ZSt13__copy_move_aILb0EPKiPiET1_T0_S4_S3_
FN:438,_ZSt14__copy_move_a2ILb0EN9__gnu_cxx17__normal_iteratorIPKiSt6vectorIiSaIiEEEEPiET1_T0_SA_S9_
FNDA:0,_ZSt14__copy_move_a2ILb0EN9__gnu_cxx17__normal_iteratorIPKiSt6vectorIiSaIiEEEEPiET1_T0_SA_S9_
FN:438,_ZSt14__copy_move_a2ILb0EPKiPiET1_T0_S4_S3_
FNDA:0,_ZSt14__copy_move_a2ILb0EPKiPiET1_T0_S4_S3_
FN:465,_ZSt4copyIN9__gnu_cxx17__normal_iteratorIPKiSt6vectorIiSaIiEEEEPiET0_T_SA_S9_
FNDA:0,_ZSt4copyIN9__gnu_cxx17__normal_iteratorIPKiSt6vectorIiSaIiEEEEPiET0_T_SA_S9_
FN:465,_ZSt4copyIPKiPiET0_T_S4_S3_
FNDA:0,_ZSt4copyIPKiPiET0_T_S4_S3_
DA:198,0
DA:203,0
DA:204,0
DA:205,0
DA:280,0
DA:282,0
DA:280,0
DA:282,0
DA:295,0
DA:296,0
DA:375,0
DA:384,0
DA:385,0
DA:386,0
DA:387,0
DA:393,0
DA:398,0
DA:404,0
DA:438,0
DA:440,0
DA:443,0
DA:438,0
DA:440,0
DA:443,0
DA:465,0
DA:474,0
DA:465,0
DA:474,0
end_of_record
SF:/usr/include/c++/9/bits/cpp_type_traits.h
FN:428,_ZSt12__miter_baseIN9__gnu_cxx17__normal_iteratorIPKiSt6vectorIiSaIiEEEEET_S8_
FNDA:0,_ZSt12__miter_baseIN9__gnu_cxx17__normal_iteratorIPKiSt6vectorIiSaIiEEEEET_S8_
FN:428,_ZSt12__miter_baseIPKiET_S2_
FNDA:0,_ZSt12__miter_baseIPKiET_S2_
DA:428,0
DA:429,0
DA:428,0
DA:429,0
end_of_record
SF:/usr/include/c++/9/iostream
end_of_record
SF:/usr/include/c++/9/bits/stl_uninitialized.h
FN:76,_ZNSt20__uninitialized_copyILb0EE13__uninit_copyIPKSt6vectorIiSaIiEEPS4_EET0_T_S9_S8_
FNDA:0,_ZNSt20__uninitialized_copyILb0EE13__uninit_copyIPKSt6vectorIiSaIiEEPS4_EET0_T_S9_S8_
FN:99,_ZNSt20__uninitialized_copyILb1EE13__uninit_copyIN9__gnu_cxx17__normal_iteratorIPKiSt6vectorIiSaIiEEEEPiEET0_T_SC_SB_
FNDA:0,_ZNSt20__uninitialized_copyILb1EE13__uninit_copyIN9__gnu_cxx17__normal_iteratorIPKiSt6vectorIiSaIiEEEEPiEET0_T_SC_SB_
FN:99,_ZNSt20__uninitialized_copyILb1EE13__uninit_copyIPKiPiEET0_T_S6_S5_
FNDA:0,_ZNSt20__uninitialized_copyILb1EE13__uninit_copyIPKiPiEET0_T_S6_S5_
FN:115,_ZSt18uninitialized_copyIN9__gnu_cxx17__normal_iteratorIPKiSt6vectorIiSaIiEEEEPiET0_T_SA_S9_
FNDA:0,_ZSt18uninitialized_copyIN9__gnu_cxx17__normal_iteratorIPKiSt6vectorIiSaIiEEEEPiET0_T_SA_S9_
FN:115,_ZSt18uninitialized_copyIPKSt6vectorIiSaIiEEPS2_ET0_T_S7_S6_
FNDA:0,_ZSt18uninitialized_copyIPKSt6vectorIiSaIiEEPS2_ET0_T_S7_S6_
FN:115,_ZSt18uninitialized_copyIPKiPiET0_T_S4_S3_
FNDA:0,_ZSt18uninitialized_copyIPKiPiET0_T_S4_S3_
FN:287,_ZSt22__uninitialized_copy_aIN9__gnu_cxx17__normal_iteratorIPKiSt6vectorIiSaIiEEEEPiiET0_T_SA_S9_RSaIT1_E
FNDA:0,_ZSt22__uninitialized_copy_aIN9__gnu_cxx17__normal_iteratorIPKiSt6vectorIiSaIiEEEEPiiET0_T_SA_S9_RSaIT1_E
FN:287,_ZSt22__uninitialized_copy_aIPKSt6vectorIiSaIiEEPS2_S2_ET0_T_S7_S6_RSaIT1_E
FNDA:0,_ZSt22__uninitialized_copy_aIPKSt6vectorIiSaIiEEPS2_S2_ET0_T_S7_S6_RSaIT1_E
FN:287,_ZSt22__uninitialized_copy_aIPKiPiiET0_T_S4_S3_RSaIT1_E
FNDA:0,_ZSt22__uninitialized_copy_aIPKiPiiET0_T_S4_S3_RSaIT1_E
DA:76,0
DA:79,0
DA:82,0
DA:83,0
DA:84,0
DA:86,0
DA:88,0
DA:89,0
DA:99,0
DA:101,0
DA:99,0
DA:101,0
DA:115,0
DA:128,0
DA:134,0
DA:115,0
DA:128,0
DA:134,0
DA:115,0
DA:128,0
DA:134,0
DA:287,0
DA:289,0
DA:287,0
DA:289,0
DA:287,0
DA:289,0
end_of_record
SF:/usr/include/c++/9/new
FN:173,_ZnwmPv
FNDA:0,_ZnwmPv
FN:179,_ZdlPvS_
FNDA:0,_ZdlPvS_
DA:173,0
DA:174,0
DA:179,0
end_of_record
TN:
SF:/usr/include/c++/9/ext/alloc_traits.h
FN:97,_ZN9__gnu_cxx14__alloc_traitsISaIiEiE17_S_select_on_copyERKS1_
FNDA:0,_ZN9__gnu_cxx14__alloc_traitsISaIiEiE17_S_select_on_copyERKS1_
FN:97,_ZN9__gnu_cxx14__alloc_traitsISaIcEcE17_S_select_on_copyERKS1_
FNDA:0,_ZN9__gnu_cxx14__alloc_traitsISaIcEcE17_S_select_on_copyERKS1_
DA:97,0
DA:98,0
DA:97,0
DA:98,0
end_of_record
SF:/usr/include/c++/9/bits/stl_iterator_base_types.h
FN:205,_ZSt19__iterator_categoryIPcENSt15iterator_traitsIT_E17iterator_categoryERKS2_
FNDA:0,_ZSt19__iterator_categoryIPcENSt15iterator_traitsIT_E17iterator_categoryERKS2_
FN:205,_ZSt19__iterator_categoryIPKcENSt15iterator_traitsIT_E17iterator_categoryERKS3_
FNDA:0,_ZSt19__iterator_categoryIPKcENSt15iterator_traitsIT_E17iterator_categoryERKS3_
FN:205,_ZSt19__iterator_categoryIPKSt6vectorIiSaIiEEENSt15iterator_traitsIT_E17iterator_categoryERKS6_
FNDA:0,_ZSt19__iterator_categoryIPKSt6vectorIiSaIiEEENSt15iterator_traitsIT_E17iterator_categoryERKS6_
FN:205,_ZSt19__iterator_categoryIPKiENSt15iterator_traitsIT_E17iterator_categoryERKS3_
FNDA:0,_ZSt19__iterator_categoryIPKiENSt15iterator_traitsIT_E17iterator_categoryERKS3_
DA:205,0
DA:206,0
DA:205,0
DA:206,0
DA:205,0
DA:206,0
DA:205,0
DA:206,0
end_of_record
SF:/usr/include/c++/9/bits/basic_string.h
FN:243,_ZNSt7__cxx1112basic_stringIcSt11char_traitsIcESaIcEE16_M_construct_auxIPcEEvT_S7_St12__false_type
FNDA:0,_ZNSt7__cxx1112basic_stringIcSt11char_traitsIcESaIcEE16_M_construct_auxIPcEEvT_S7_St12__false_type
FN:243,_ZNSt7__cxx1112basic_stringIcSt11char_traitsIcESaIcEE16_M_construct_auxIPKcEEvT_S8_St12__false_type
FNDA:0,_ZNSt7__cxx1112basic_stringIcSt11char_traitsIcESaIcEE16_M_construct_auxIPKcEEvT_S8_St12__false_type
FN:263,_ZNSt7__cxx1112basic_stringIcSt11char_traitsIcESaIcEE12_M_constructIPcEEvT_S7_
FNDA:0,_ZNSt7__cxx1112basic_stringIcSt11char_traitsIcESaIcEE12_M_constructIPcEEvT_S7_
FN:263,_ZNSt7__cxx1112basic_stringIcSt11char_traitsIcESaIcEE12_M_constructIPKcEEvT_S8_
FNDA:0,_ZNSt7__cxx1112basic_stringIcSt11char_traitsIcESaIcEE12_M_constructIPKcEEvT_S8_
DA:243,0
DA:247,0
DA:248,0
DA:243,0
DA:247,0
DA:248,0
DA:263,0
DA:266,0
DA:267,0
DA:263,0
DA:266,0
DA:267,0
end_of_record
SF:/home/pato/TPIMorfMat/template-alumnos/lib/googletest-master/googletest/include/gtest/internal/gtest-internal.h
FN:448,_ZN7testing8internal15TestFactoryBaseD0Ev
FNDA:0,_ZN7testing8internal15TestFactoryBaseD0Ev
FN:448,_ZN7testing8internal15TestFactoryBaseD2Ev
FNDA:0,_ZN7testing8internal15TestFactoryBaseD2Ev
FN:455,_ZN7testing8internal15TestFactoryBaseC2Ev
FNDA:0,_ZN7testing8internal15TestFactoryBaseC2Ev
FN:466,_ZN7testing8internal15TestFactoryImplI44cerrarFormaTest_tapandooHuecosDeUnPixel_TestE10CreateTestEv
FNDA:1,_ZN7testing8internal15TestFactoryImplI44cerrarFormaTest_tapandooHuecosDeUnPixel_TestE10CreateTestEv
FN:466,_ZN7testing8internal15TestFactoryImplI34cerrarFormaTest_cierreConCruz_TestE10CreateTestEv
FNDA:1,_ZN7testing8internal15TestFactoryImplI34cerrarFormaTest_cierreConCruz_TestE10CreateTestEv
FN:487,_ZN7testing8internal12CodeLocationC2ERKNSt7__cxx1112basic_stringIcSt11char_traitsIcESaIcEEEi
FNDA:0,_ZN7testing8internal12CodeLocationC2ERKNSt7__cxx1112basic_stringIcSt11char_traitsIcESaIcEEEi
DA:448,0
DA:448,0
DA:455,0
DA:466,1
DA:466,1
DA:487,0
DA:488,0
end_of_record
SF:/home/pato/TPIMorfMat/template-alumnos/tests/ej5TEST.cpp
FN:6,_ZN44cerrarFormaTest_tapandooHuecosDeUnPixel_Test8TestBodyEv
FNDA:1,_ZN44cerrarFormaTest_tapandooHuecosDeUnPixel_Test8TestBodyEv
FN:6,_ZN44cerrarFormaTest_tapandooHuecosDeUnPixel_TestC2Ev
FNDA:1,_ZN44cerrarFormaTest_tapandooHuecosDeUnPixel_TestC2Ev
FN:37,_ZN34cerrarFormaTest_cierreConCruz_Test8TestBodyEv
FNDA:1,_ZN34cerrarFormaTest_cierreConCruz_Test8TestBodyEv
FN:37,_ZN34cerrarFormaTest_cierreConCruz_TestC2Ev
FNDA:1,_ZN34cerrarFormaTest_cierreConCruz_TestC2Ev
DA:6,1
DA:15,11
DA:20,7
DA:29,11
DA:31,1
DA:33,1
DA:34,1
DA:6,1
DA:37,1
DA:46,11
DA:51,7
DA:60,11
DA:62,1
DA:64,1
DA:65,1
DA:37,1
end_of_record
SF:/usr/include/c++/9/initializer_list
FN:71,_ZNKSt16initializer_listISt6vectorIiSaIiEEE4sizeEv
FNDA:0,_ZNKSt16initializer_listISt6vectorIiSaIiEEE4sizeEv
FN:71,_ZNKSt16initializer_listIiE4sizeEv
FNDA:0,_ZNKSt16initializer_listIiE4sizeEv
FN:75,_ZNKSt16initializer_listISt6vectorIiSaIiEEE5beginEv
FNDA:0,_ZNKSt16initializer_listISt6vectorIiSaIiEEE5beginEv
FN:75,_ZNKSt16initializer_listIiE5beginEv
FNDA:0,_ZNKSt16initializer_listIiE5beginEv
FN:79,_ZNKSt16initializer_listISt6vectorIiSaIiEEE3endEv
FNDA:0,_ZNKSt16initializer_listISt6vectorIiSaIiEEE3endEv
FN:79,_ZNKSt16initializer_listIiE3endEv
FNDA:0,_ZNKSt16initializer_listIiE3endEv
DA:71,0
DA:71,0
DA:75,0
DA:75,0
DA:79,0
DA:79,0
end_of_record
SF:/usr/include/c++/9/bits/char_traits.h
FN:329,_ZNSt11char_traitsIcE6lengthEPKc
FNDA:0,_ZNSt11char_traitsIcE6lengthEPKc
DA:329,0
DA:335,0
end_of_record
SF:/home/pato/TPIMorfMat/template-alumnos/lib/googletest-master/googletest/include/gtest/gtest.h
FN:304,_ZNK7testing15AssertionResultcvbEv
FNDA:0,_ZNK7testing15AssertionResultcvbEv
FN:313,_ZNK7testing15AssertionResult7messageEv
FNDA:0,_ZNK7testing15AssertionResult7messageEv
FN:318,_ZNK7testing15AssertionResult15failure_messageEv
FNDA:0,_ZNK7testing15AssertionResult15failure_messageEv
FN:414,_ZN7testing4Test13SetUpTestCaseEv
FNDA:0,_ZN7testing4Test13SetUpTestCaseEv
FN:422,_ZN7testing4Test16TearDownTestCaseEv
FNDA:0,_ZN7testing4Test16TearDownTestCaseEv
FN:499,_ZN7testing4Test5SetupEv
FNDA:0,_ZN7testing4Test5SetupEv
FN:1414,_ZN7testing8internal18CmpHelperEQFailureISt6vectorIS2_IiSaIiEESaIS4_EES6_EENS_15AssertionResultEPKcS9_RKT_RKT0_
FNDA:0,_ZN7testing8internal18CmpHelperEQFailureISt6vectorIS2_IiSaIiEESaIS4_EES6_EENS_15AssertionResultEPKcS9_RKT_RKT0_
FN:1426,_ZN7testing8internal11CmpHelperEQISt6vectorIS2_IiSaIiEESaIS4_EES6_EENS_15AssertionResultEPKcS9_RKT_RKT0_
FNDA:4,_ZN7testing8internal11CmpHelperEQISt6vectorIS2_IiSaIiEESaIS4_EES6_EENS_15AssertionResultEPKcS9_RKT_RKT0_
FN:1454,_ZN7testing8internal8EqHelperILb0EE7CompareISt6vectorIS4_IiSaIiEESaIS6_EES8_EENS_15AssertionResultEPKcSB_RKT_RKT0_
FNDA:4,_ZN7testing8internal8EqHelperILb0EE7CompareISt6vectorIS4_IiSaIiEESaIS6_EES8_EENS_15AssertionResultEPKcSB_RKT_RKT0_
DA:304,0
DA:313,0
DA:314,0
DA:318,0
DA:414,0
DA:422,0
DA:499,0
DA:1414,0
DA:1421,0
DA:1426,4
DA:1430,4
DA:1431,4
DA:1434,0
DA:1454,4
DA:1458,4
end_of_record
SF:/usr/include/c++/9/bits/move.h
FN:47,_ZSt11__addressofISt6vectorIiSaIiEEEPT_RS3_
FNDA:0,_ZSt11__addressofISt6vectorIiSaIiEEEPT_RS3_
FN:74,_ZSt7forwardIRKSt6vectorIiSaIiEEEOT_RNSt16remove_referenceIS5_E4typeE
FNDA:0,_ZSt7forwardIRKSt6vectorIiSaIiEEEOT_RNSt16remove_referenceIS5_E4typeE
FN:99,_ZSt4moveIRSaIcEEONSt16remove_referenceIT_E4typeEOS3_
FNDA:0,_ZSt4moveIRSaIcEEONSt16remove_referenceIT_E4typeEOS3_
DA:47,0
DA:48,0
DA:74,0
DA:75,0
DA:99,0
DA:100,0
end_of_record
SF:/usr/include/c++/9/iostream
end_of_record
SF:/usr/include/c++/9/bits/stl_uninitialized.h
FN:76,_ZNSt20__uninitialized_copyILb0EE13__uninit_copyIPKSt6vectorIiSaIiEEPS4_EET0_T_S9_S8_
FNDA:0,_ZNSt20__uninitialized_copyILb0EE13__uninit_copyIPKSt6vectorIiSaIiEEPS4_EET0_T_S9_S8_
FN:99,_ZNSt20__uninitialized_copyILb1EE13__uninit_copyIN9__gnu_cxx17__normal_iteratorIPKiSt6vectorIiSaIiEEEEPiEET0_T_SC_SB_
FNDA:0,_ZNSt20__uninitialized_copyILb1EE13__uninit_copyIN9__gnu_cxx17__normal_iteratorIPKiSt6vectorIiSaIiEEEEPiEET0_T_SC_SB_
FN:99,_ZNSt20__uninitialized_copyILb1EE13__uninit_copyIPKiPiEET0_T_S6_S5_
FNDA:0,_ZNSt20__uninitialized_copyILb1EE13__uninit_copyIPKiPiEET0_T_S6_S5_
FN:115,_ZSt18uninitialized_copyIN9__gnu_cxx17__normal_iteratorIPKiSt6vectorIiSaIiEEEEPiET0_T_SA_S9_
FNDA:0,_ZSt18uninitialized_copyIN9__gnu_cxx17__normal_iteratorIPKiSt6vectorIiSaIiEEEEPiET0_T_SA_S9_
FN:115,_ZSt18uninitialized_copyIPKSt6vectorIiSaIiEEPS2_ET0_T_S7_S6_
FNDA:0,_ZSt18uninitialized_copyIPKSt6vectorIiSaIiEEPS2_ET0_T_S7_S6_
FN:115,_ZSt18uninitialized_copyIPKiPiET0_T_S4_S3_
FNDA:0,_ZSt18uninitialized_copyIPKiPiET0_T_S4_S3_
FN:287,_ZSt22__uninitialized_copy_aIN9__gnu_cxx17__normal_iteratorIPKiSt6vectorIiSaIiEEEEPiiET0_T_SA_S9_RSaIT1_E
FNDA:0,_ZSt22__uninitialized_copy_aIN9__gnu_cxx17__normal_iteratorIPKiSt6vectorIiSaIiEEEEPiiET0_T_SA_S9_RSaIT1_E
FN:287,_ZSt22__uninitialized_copy_aIPKSt6vectorIiSaIiEEPS2_S2_ET0_T_S7_S6_RSaIT1_E
FNDA:0,_ZSt22__uninitialized_copy_aIPKSt6vectorIiSaIiEEPS2_S2_ET0_T_S7_S6_RSaIT1_E
FN:287,_ZSt22__uninitialized_copy_aIPKiPiiET0_T_S4_S3_RSaIT1_E
FNDA:0,_ZSt22__uninitialized_copy_aIPKiPiiET0_T_S4_S3_RSaIT1_E
DA:76,0
DA:79,0
DA:82,0
DA:83,0
DA:84,0
DA:86,0
DA:88,0
DA:89,0
DA:99,0
DA:101,0
DA:99,0
DA:101,0
DA:115,0
DA:128,0
DA:134,0
DA:115,0
DA:128,0
DA:134,0
DA:115,0
DA:128,0
DA:134,0
DA:287,0
DA:289,0
DA:287,0
DA:289,0
DA:287,0
DA:289,0
end_of_record
SF:/usr/include/c++/9/new
FN:173,_ZnwmPv
FNDA:0,_ZnwmPv
FN:179,_ZdlPvS_
FNDA:0,_ZdlPvS_
DA:173,0
DA:174,0
DA:179,0
end_of_record
SF:/usr/include/c++/9/ext/new_allocator.h
FN:80,_ZN9__gnu_cxx13new_allocatorISt6vectorIiSaIiEEEC2Ev
FNDA:0,_ZN9__gnu_cxx13new_allocatorISt6vectorIiSaIiEEEC2Ev
FN:80,_ZN9__gnu_cxx13new_allocatorIiEC2Ev
FNDA:0,_ZN9__gnu_cxx13new_allocatorIiEC2Ev
FN:80,_ZN9__gnu_cxx13new_allocatorIcEC2Ev
FNDA:0,_ZN9__gnu_cxx13new_allocatorIcEC2Ev
FN:83,_ZN9__gnu_cxx13new_allocatorISt6vectorIiSaIiEEEC2ERKS4_
FNDA:0,_ZN9__gnu_cxx13new_allocatorISt6vectorIiSaIiEEEC2ERKS4_
FN:83,_ZN9__gnu_cxx13new_allocatorIiEC2ERKS1_
FNDA:0,_ZN9__gnu_cxx13new_allocatorIiEC2ERKS1_
FN:83,_ZN9__gnu_cxx13new_allocatorIcEC2ERKS1_
FNDA:0,_ZN9__gnu_cxx13new_allocatorIcEC2ERKS1_
FN:89,_ZN9__gnu_cxx13new_allocatorISt6vectorIiSaIiEEED2Ev
FNDA:0,_ZN9__gnu_cxx13new_allocatorISt6vectorIiSaIiEEED2Ev
FN:89,_ZN9__gnu_cxx13new_allocatorIiED2Ev
FNDA:0,_ZN9__gnu_cxx13new_allocatorIiED2Ev
FN:89,_ZN9__gnu_cxx13new_allocatorIcED2Ev
FNDA:0,_ZN9__gnu_cxx13new_allocatorIcED2Ev
FN:102,_ZN9__gnu_cxx13new_allocatorISt6vectorIiSaIiEEE8allocateEmPKv
FNDA:0,_ZN9__gnu_cxx13new_allocatorISt6vectorIiSaIiEEE8allocateEmPKv
FN:102,_ZN9__gnu_cxx13new_allocatorIiE8allocateEmPKv
FNDA:0,_ZN9__gnu_cxx13new_allocatorIiE8allocateEmPKv
FN:119,_ZN9__gnu_cxx13new_allocatorISt6vectorIiSaIiEEE10deallocateEPS3_m
FNDA:0,_ZN9__gnu_cxx13new_allocatorISt6vectorIiSaIiEEE10deallocateEPS3_m
FN:119,_ZN9__gnu_cxx13new_allocatorIiE10deallocateEPim
FNDA:0,_ZN9__gnu_cxx13new_allocatorIiE10deallocateEPim
FN:132,_ZNK9__gnu_cxx13new_allocatorISt6vectorIiSaIiEEE8max_sizeEv
FNDA:0,_ZNK9__gnu_cxx13new_allocatorISt6vectorIiSaIiEEE8max_sizeEv
FN:132,_ZNK9__gnu_cxx13new_allocatorIiE8max_sizeEv
FNDA:0,_ZNK9__gnu_cxx13new_allocatorIiE8max_sizeEv
DA:80,0
DA:80,0
DA:80,0
DA:83,0
DA:83,0
DA:83,0
DA:89,0
DA:89,0
DA:89,0
DA:102,0
DA:104,0
DA:105,0
DA:114,0
DA:102,0
DA:104,0
DA:105,0
DA:114,0
DA:119,0
DA:128,0
DA:129,0
DA:119,0
DA:128,0
DA:129,0
DA:132,0
DA:135,0
DA:132,0
DA:135,0
end_of_record
SF:/usr/include/c++/9/bits/stl_construct.h
FN:74,_ZSt10_ConstructISt6vectorIiSaIiEEJRKS2_EEvPT_DpOT0_
FNDA:0,_ZSt10_ConstructISt6vectorIiSaIiEEJRKS2_EEvPT_DpOT0_
FN:97,_ZSt8_DestroyISt6vectorIiSaIiEEEvPT_
FNDA:0,_ZSt8_DestroyISt6vectorIiSaIiEEEvPT_
FN:105,_ZNSt12_Destroy_auxILb0EE9__destroyIPSt6vectorIiSaIiEEEEvT_S6_
FNDA:0,_ZNSt12_Destroy_auxILb0EE9__destroyIPSt6vectorIiSaIiEEEEvT_S6_
FN:117,_ZNSt12_Destroy_auxILb1EE9__destroyIPiEEvT_S3_
FNDA:0,_ZNSt12_Destroy_auxILb1EE9__destroyIPiEEvT_S3_
FN:127,_ZSt8_DestroyIPSt6vectorIiSaIiEEEvT_S4_
FNDA:0,_ZSt8_DestroyIPSt6vectorIiSaIiEEEvT_S4_
FN:127,_ZSt8_DestroyIPiEvT_S1_
FNDA:0,_ZSt8_DestroyIPiEvT_S1_
FN:203,_ZSt8_DestroyIPSt6vectorIiSaIiEES2_EvT_S4_RSaIT0_E
FNDA:0,_ZSt8_DestroyIPSt6vectorIiSaIiEES2_EvT_S4_RSaIT0_E
FN:203,_ZSt8_DestroyIPiiEvT_S1_RSaIT0_E
FNDA:0,_ZSt8_DestroyIPiiEvT_S1_RSaIT0_E
DA:74,0
DA:75,0
DA:97,0
DA:98,0
DA:105,0
DA:107,0
DA:108,0
DA:109,0
DA:117,0
DA:127,0
DA:137,0
DA:138,0
DA:127,0
DA:137,0
DA:138,0
DA:203,0
DA:206,0
DA:207,0
DA:203,0
DA:206,0
DA:207,0
end_of_record
SF:/usr/include/c++/9/bits/stl_algobase.h
FN:198,_ZSt3minImERKT_S2_S2_
FNDA:0,_ZSt3minImERKT_S2_S2_
FN:280,_ZSt12__niter_baseIPiET_S1_
FNDA:0,_ZSt12__niter_baseIPiET_S1_
FN:280,_ZSt12__niter_baseIPKiET_S2_
FNDA:0,_ZSt12__niter_baseIPKiET_S2_
FN:295,_ZSt12__niter_wrapIPiET_RKS1_S1_
FNDA:0,_ZSt12__niter_wrapIPiET_RKS1_S1_
FN:375,_ZNSt11__copy_moveILb0ELb1ESt26random_access_iterator_tagE8__copy_mIiEEPT_PKS3_S6_S4_
FNDA:0,_ZNSt11__copy_moveILb0ELb1ESt26random_access_iterator_tagE8__copy_mIiEEPT_PKS3_S6_S4_
FN:393,_ZSt13__copy_move_aILb0EPKiPiET1_T0_S4_S3_
FNDA:0,_ZSt13__copy_move_aILb0EPKiPiET1_T0_S4_S3_
FN:438,_ZSt14__copy_move_a2ILb0EN9__gnu_cxx17__normal_iteratorIPKiSt6vectorIiSaIiEEEEPiET1_T0_SA_S9_
FNDA:0,_ZSt14__copy_move_a2ILb0EN9__gnu_cxx17__normal_iteratorIPKiSt6vectorIiSaIiEEEEPiET1_T0_SA_S9_
FN:438,_ZSt14__copy_move_a2ILb0EPKiPiET1_T0_S4_S3_
FNDA:0,_ZSt14__copy_move_a2ILb0EPKiPiET1_T0_S4_S3_
FN:465,_ZSt4copyIN9__gnu_cxx17__normal_iteratorIPKiSt6vectorIiSaIiEEEEPiET0_T_SA_S9_
FNDA:0,_ZSt4copyIN9__gnu_cxx17__normal_iteratorIPKiSt6vectorIiSaIiEEEEPiET0_T_SA_S9_
FN:465,_ZSt4copyIPKiPiET0_T_S4_S3_
FNDA:0,_ZSt4copyIPKiPiET0_T_S4_S3_
FN:817,_ZNSt7__equalILb0EE5equalIPKSt6vectorIiSaIiEES6_EEbT_S7_T0_
FNDA:0,_ZNSt7__equalILb0EE5equalIPKSt6vectorIiSaIiEES6_EEbT_S7_T0_
FN:831,_ZNSt7__equalILb1EE5equalIiEEbPKT_S4_S4_
FNDA:0,_ZNSt7__equalILb1EE5equalIiEEbPKT_S4_S4_
FN:841,_ZSt11__equal_auxIPKiS1_EbT_S2_T0_
FNDA:0,_ZSt11__equal_auxIPKiS1_EbT_S2_T0_
FN:841,_ZSt11__equal_auxIPKSt6vectorIiSaIiEES4_EbT_S5_T0_
FNDA:0,_ZSt11__equal_auxIPKSt6vectorIiSaIiEES4_EbT_S5_T0_
FN:1059,_ZSt5equalIN9__gnu_cxx17__normal_iteratorIPKiSt6vectorIiSaIiEEEES7_EbT_S8_T0_
FNDA:0,_ZSt5equalIN9__gnu_cxx17__normal_iteratorIPKiSt6vectorIiSaIiEEEES7_EbT_S8_T0_
FN:1059,_ZSt5equalIN9__gnu_cxx17__normal_iteratorIPKSt6vectorIiSaIiEES2_IS4_SaIS4_EEEES9_EbT_SA_T0_
FNDA:0,_ZSt5equalIN9__gnu_cxx17__normal_iteratorIPKSt6vectorIiSaIiEES2_IS4_SaIS4_EEEES9_EbT_SA_T0_
DA:198,0
DA:203,0
DA:204,0
DA:205,0
DA:280,0
DA:282,0
DA:280,0
DA:282,0
DA:295,0
DA:296,0
DA:375,0
DA:384,0
DA:385,0
DA:386,0
DA:387,0
DA:393,0
DA:398,0
DA:404,0
DA:438,0
DA:440,0
DA:443,0
DA:438,0
DA:440,0
DA:443,0
DA:465,0
DA:474,0
DA:465,0
DA:474,0
DA:817,0
DA:819,0
DA:820,0
DA:821,0
DA:822,0
DA:831,0
DA:833,0
DA:834,0
DA:835,0
DA:841,0
DA:845,0
DA:851,0
DA:841,0
DA:845,0
DA:851,0
DA:1059,0
DA:1069,0
DA:1071,0
DA:1059,0
DA:1069,0
DA:1071,0
end_of_record
SF:/usr/include/c++/9/bits/cpp_type_traits.h
FN:428,_ZSt12__miter_baseIN9__gnu_cxx17__normal_iteratorIPKiSt6vectorIiSaIiEEEEET_S8_
FNDA:0,_ZSt12__miter_baseIN9__gnu_cxx17__normal_iteratorIPKiSt6vectorIiSaIiEEEEET_S8_
FN:428,_ZSt12__miter_baseIPKiET_S2_
FNDA:0,_ZSt12__miter_baseIPKiET_S2_
DA:428,0
DA:429,0
DA:428,0
DA:429,0
end_of_record
SF:/usr/include/c++/9/bits/alloc_traits.h
FN:443,_ZNSt16allocator_traitsISaISt6vectorIiSaIiEEEE8allocateERS3_m
FNDA:0,_ZNSt16allocator_traitsISaISt6vectorIiSaIiEEEE8allocateERS3_m
FN:443,_ZNSt16allocator_traitsISaIiEE8allocateERS0_m
FNDA:0,_ZNSt16allocator_traitsISaIiEE8allocateERS0_m
FN:469,_ZNSt16allocator_traitsISaISt6vectorIiSaIiEEEE10deallocateERS3_PS2_m
FNDA:0,_ZNSt16allocator_traitsISaISt6vectorIiSaIiEEEE10deallocateERS3_PS2_m
FN:469,_ZNSt16allocator_traitsISaIiEE10deallocateERS0_Pim
FNDA:0,_ZNSt16allocator_traitsISaIiEE10deallocateERS0_Pim
FN:505,_ZNSt16allocator_traitsISaISt6vectorIiSaIiEEEE8max_sizeERKS3_
FNDA:0,_ZNSt16allocator_traitsISaISt6vectorIiSaIiEEEE8max_sizeERKS3_
FN:505,_ZNSt16allocator_traitsISaIiEE8max_sizeERKS0_
FNDA:0,_ZNSt16allocator_traitsISaIiEE8max_sizeERKS0_
FN:514,_ZNSt16allocator_traitsISaIiEE37select_on_container_copy_constructionERKS0_
FNDA:0,_ZNSt16allocator_traitsISaIiEE37select_on_container_copy_constructionERKS0_
FN:514,_ZNSt16allocator_traitsISaIcEE37select_on_container_copy_constructionERKS0_
FNDA:0,_ZNSt16allocator_traitsISaIcEE37select_on_container_copy_constructionERKS0_
DA:443,0
DA:444,0
DA:443,0
DA:444,0
DA:469,0
DA:470,0
DA:469,0
DA:470,0
DA:505,0
DA:506,0
DA:505,0
DA:506,0
DA:514,0
DA:515,0
DA:514,0
DA:515,0
end_of_record
SF:/usr/include/c++/9/bits/allocator.h
FN:138,_ZNSaISt6vectorIiSaIiEEEC2Ev
FNDA:0,_ZNSaISt6vectorIiSaIiEEEC2Ev
FN:138,_ZNSaIiEC2Ev
FNDA:0,_ZNSaIiEC2Ev
FN:141,_ZNSaISt6vectorIiSaIiEEEC2ERKS2_
FNDA:0,_ZNSaISt6vectorIiSaIiEEEC2ERKS2_
FN:141,_ZNSaIiEC2ERKS_
FNDA:0,_ZNSaIiEC2ERKS_
FN:153,_ZNSaISt6vectorIiSaIiEEED2Ev
FNDA:0,_ZNSaISt6vectorIiSaIiEEED2Ev
FN:153,_ZNSaIiED2Ev
FNDA:0,_ZNSaIiED2Ev
DA:138,0
DA:138,0
DA:141,0
DA:142,0
DA:141,0
DA:142,0
DA:153,0
DA:153,0
end_of_record
SF:/usr/include/c++/9/bits/stl_iterator.h
FN:806,_ZN9__gnu_cxx17__normal_iteratorIPKiSt6vectorIiSaIiEEEC2ERKS2_
FNDA:0,_ZN9__gnu_cxx17__normal_iteratorIPKiSt6vectorIiSaIiEEEC2ERKS2_
FN:806,_ZN9__gnu_cxx17__normal_iteratorIPKSt6vectorIiSaIiEES1_IS3_SaIS3_EEEC2ERKS5_
FNDA:0,_ZN9__gnu_cxx17__normal_iteratorIPKSt6vectorIiSaIiEES1_IS3_SaIS3_EEEC2ERKS5_
FN:819,_ZNK9__gnu_cxx17__normal_iteratorIPKiSt6vectorIiSaIiEEEdeEv
FNDA:0,_ZNK9__gnu_cxx17__normal_iteratorIPKiSt6vectorIiSaIiEEEdeEv
FN:819,_ZNK9__gnu_cxx17__normal_iteratorIPKSt6vectorIiSaIiEES1_IS3_SaIS3_EEEdeEv
FNDA:0,_ZNK9__gnu_cxx17__normal_iteratorIPKSt6vectorIiSaIiEES1_IS3_SaIS3_EEEdeEv
FN:827,_ZN9__gnu_cxx17__normal_iteratorIPKiSt6vectorIiSaIiEEEppEv
FNDA:0,_ZN9__gnu_cxx17__normal_iteratorIPKiSt6vectorIiSaIiEEEppEv
FN:827,_ZN9__gnu_cxx17__normal_iteratorIPKSt6vectorIiSaIiEES1_IS3_SaIS3_EEEppEv
FNDA:0,_ZN9__gnu_cxx17__normal_iteratorIPKSt6vectorIiSaIiEES1_IS3_SaIS3_EEEppEv
FN:871,_ZNK9__gnu_cxx17__normal_iteratorIPKiSt6vectorIiSaIiEEE4baseEv
FNDA:0,_ZNK9__gnu_cxx17__normal_iteratorIPKiSt6vectorIiSaIiEEE4baseEv
FN:871,_ZNK9__gnu_cxx17__normal_iteratorIPKSt6vectorIiSaIiEES1_IS3_SaIS3_EEE4baseEv
FNDA:0,_ZNK9__gnu_cxx17__normal_iteratorIPKSt6vectorIiSaIiEES1_IS3_SaIS3_EEE4baseEv
FN:907,_ZN9__gnu_cxxneIPKiSt6vectorIiSaIiEEEEbRKNS_17__normal_iteratorIT_T0_EESB_
FNDA:0,_ZN9__gnu_cxxneIPKiSt6vectorIiSaIiEEEEbRKNS_17__normal_iteratorIT_T0_EESB_
FN:907,_ZN9__gnu_cxxneIPKSt6vectorIiSaIiEES1_IS3_SaIS3_EEEEbRKNS_17__normal_iteratorIT_T0_EESD_
FNDA:0,_ZN9__gnu_cxxneIPKSt6vectorIiSaIiEES1_IS3_SaIS3_EEEEbRKNS_17__normal_iteratorIT_T0_EESD_
FN:1010,_ZSt12__niter_baseIPKiSt6vectorIiSaIiEEET_N9__gnu_cxx17__normal_iteratorIS5_T0_EE
FNDA:0,_ZSt12__niter_baseIPKiSt6vectorIiSaIiEEET_N9__gnu_cxx17__normal_iteratorIS5_T0_EE
FN:1010,_ZSt12__niter_baseIPKSt6vectorIiSaIiEES0_IS2_SaIS2_EEET_N9__gnu_cxx17__normal_iteratorIS7_T0_EE
FNDA:0,_ZSt12__niter_baseIPKSt6vectorIiSaIiEES0_IS2_SaIS2_EEET_N9__gnu_cxx17__normal_iteratorIS7_T0_EE
DA:806,0
DA:807,0
DA:806,0
DA:807,0
DA:819,0
DA:820,0
DA:819,0
DA:820,0
DA:827,0
DA:829,0
DA:830,0
DA:827,0
DA:829,0
DA:830,0
DA:871,0
DA:872,0
DA:871,0
DA:872,0
DA:907,0
DA:910,0
DA:907,0
DA:910,0
DA:1010,0
DA:1012,0
DA:1010,0
DA:1012,0
end_of_record
SF:/usr/include/c++/9/bits/stl_iterator_base_funcs.h
FN:98,_ZSt10__distanceIPcENSt15iterator_traitsIT_E15difference_typeES2_S2_St26random_access_iterator_tag
FNDA:0,_ZSt10__distanceIPcENSt15iterator_traitsIT_E15difference_typeES2_S2_St26random_access_iterator_tag
FN:98,_ZSt10__distanceIPKcENSt15iterator_traitsIT_E15difference_typeES3_S3_St26random_access_iterator_tag
FNDA:0,_ZSt10__distanceIPKcENSt15iterator_traitsIT_E15difference_typeES3_S3_St26random_access_iterator_tag
FN:98,_ZSt10__distanceIPKSt6vectorIiSaIiEEENSt15iterator_traitsIT_E15difference_typeES6_S6_St26random_access_iterator_tag
FNDA:0,_ZSt10__distanceIPKSt6vectorIiSaIiEEENSt15iterator_traitsIT_E15difference_typeES6_S6_St26random_access_iterator_tag
FN:98,_ZSt10__distanceIPKiENSt15iterator_traitsIT_E15difference_typeES3_S3_St26random_access_iterator_tag
FNDA:0,_ZSt10__distanceIPKiENSt15iterator_traitsIT_E15difference_typeES3_S3_St26random_access_iterator_tag
FN:138,_ZSt8distanceIPcENSt15iterator_traitsIT_E15difference_typeES2_S2_
FNDA:0,_ZSt8distanceIPcENSt15iterator_traitsIT_E15difference_typeES2_S2_
FN:138,_ZSt8distanceIPKcENSt15iterator_traitsIT_E15difference_typeES3_S3_
FNDA:0,_ZSt8distanceIPKcENSt15iterator_traitsIT_E15difference_typeES3_S3_
FN:138,_ZSt8distanceIPKSt6vectorIiSaIiEEENSt15iterator_traitsIT_E15difference_typeES6_S6_
FNDA:0,_ZSt8distanceIPKSt6vectorIiSaIiEEENSt15iterator_traitsIT_E15difference_typeES6_S6_
FN:138,_ZSt8distanceIPKiENSt15iterator_traitsIT_E15difference_typeES3_S3_
FNDA:0,_ZSt8distanceIPKiENSt15iterator_traitsIT_E15difference_typeES3_S3_
DA:98,0
DA:104,0
DA:98,0
DA:104,0
DA:98,0
DA:104,0
DA:98,0
DA:104,0
DA:138,0
DA:141,0
DA:142,0
DA:138,0
DA:141,0
DA:142,0
DA:138,0
DA:141,0
DA:142,0
DA:138,0
DA:141,0
DA:142,0
end_of_record
SF:/home/pato/TPIMorfMat/template-alumnos/lib/googletest-master/googletest/include/gtest/gtest-message.h
end_of_record
SF:/usr/include/c++/9/bits/basic_string.tcc
FN:206,_ZNSt7__cxx1112basic_stringIcSt11char_traitsIcESaIcEE12_M_constructIPcEEvT_S7_St20forward_iterator_tag
FNDA:0,_ZNSt7__cxx1112basic_stringIcSt11char_traitsIcESaIcEE12_M_constructIPcEEvT_S7_St20forward_iterator_tag
FN:206,_ZNSt7__cxx1112basic_stringIcSt11char_traitsIcESaIcEE12_M_constructIPKcEEvT_S8_St20forward_iterator_tag
FNDA:0,_ZNSt7__cxx1112basic_stringIcSt11char_traitsIcESaIcEE12_M_constructIPKcEEvT_S8_St20forward_iterator_tag
DA:206,0
DA:211,0
DA:212,0
DA:215,0
DA:217,0
DA:219,0
DA:220,0
DA:225,0
DA:226,0
DA:228,0
DA:229,0
DA:232,0
DA:233,0
DA:206,0
DA:211,0
DA:212,0
DA:215,0
DA:217,0
DA:219,0
DA:220,0
DA:225,0
DA:226,0
DA:228,0
DA:229,0
DA:232,0
DA:233,0
end_of_record
SF:/usr/include/c++/9/bits/stl_vector.h
FN:94,_ZNSt12_Vector_baseIiSaIiEE17_Vector_impl_dataC2Ev
FNDA:0,_ZNSt12_Vector_baseIiSaIiEE17_Vector_impl_dataC2Ev
FN:94,_ZNSt12_Vector_baseISt6vectorIiSaIiEESaIS2_EE17_Vector_impl_dataC2Ev
FNDA:0,_ZNSt12_Vector_baseISt6vectorIiSaIiEESaIS2_EE17_Vector_impl_dataC2Ev
FN:133,_ZNSt12_Vector_baseISt6vectorIiSaIiEESaIS2_EE12_Vector_implC2ERKS3_
FNDA:0,_ZNSt12_Vector_baseISt6vectorIiSaIiEESaIS2_EE12_Vector_implC2ERKS3_
FN:133,_ZNSt12_Vector_baseIiSaIiEE12_Vector_implC2ERKS0_
FNDA:0,_ZNSt12_Vector_baseIiSaIiEE12_Vector_implC2ERKS0_
FN:273,_ZNSt12_Vector_baseIiSaIiEE19_M_get_Tp_allocatorEv
FNDA:0,_ZNSt12_Vector_baseIiSaIiEE19_M_get_Tp_allocatorEv
FN:273,_ZNSt12_Vector_baseISt6vectorIiSaIiEESaIS2_EE19_M_get_Tp_allocatorEv
FNDA:0,_ZNSt12_Vector_baseISt6vectorIiSaIiEESaIS2_EE19_M_get_Tp_allocatorEv
FN:277,_ZNKSt12_Vector_baseIiSaIiEE19_M_get_Tp_allocatorEv
FNDA:0,_ZNKSt12_Vector_baseIiSaIiEE19_M_get_Tp_allocatorEv
FN:290,_ZNSt12_Vector_baseIiSaIiEEC2ERKS0_
FNDA:0,_ZNSt12_Vector_baseIiSaIiEEC2ERKS0_
FN:290,_ZNSt12_Vector_baseISt6vectorIiSaIiEESaIS2_EEC2ERKS3_
FNDA:0,_ZNSt12_Vector_baseISt6vectorIiSaIiEESaIS2_EEC2ERKS3_
FN:300,_ZNSt12_Vector_baseIiSaIiEEC2EmRKS0_
FNDA:0,_ZNSt12_Vector_baseIiSaIiEEC2EmRKS0_
FN:330,_ZNSt12_Vector_baseISt6vectorIiSaIiEESaIS2_EED2Ev
FNDA:0,_ZNSt12_Vector_baseISt6vectorIiSaIiEESaIS2_EED2Ev
FN:330,_ZNSt12_Vector_baseIiSaIiEED2Ev
FNDA:0,_ZNSt12_Vector_baseIiSaIiEED2Ev
FN:340,_ZNSt12_Vector_baseISt6vectorIiSaIiEESaIS2_EE11_M_allocateEm
FNDA:0,_ZNSt12_Vector_baseISt6vectorIiSaIiEESaIS2_EE11_M_allocateEm
FN:340,_ZNSt12_Vector_baseIiSaIiEE11_M_allocateEm
FNDA:0,_ZNSt12_Vector_baseIiSaIiEE11_M_allocateEm
FN:347,_ZNSt12_Vector_baseIiSaIiEE13_M_deallocateEPim
FNDA:0,_ZNSt12_Vector_baseIiSaIiEE13_M_deallocateEPim
FN:347,_ZNSt12_Vector_baseISt6vectorIiSaIiEESaIS2_EE13_M_deallocateEPS2_m
FNDA:0,_ZNSt12_Vector_baseISt6vectorIiSaIiEESaIS2_EE13_M_deallocateEPS2_m
FN:356,_ZNSt12_Vector_baseIiSaIiEE17_M_create_storageEm
FNDA:0,_ZNSt12_Vector_baseIiSaIiEE17_M_create_storageEm
FN:550,_ZNSt6vectorIiSaIiEEC2ERKS1_
FNDA:0,_ZNSt6vectorIiSaIiEEC2ERKS1_
FN:622,_ZNSt6vectorIiSaIiEEC2ESt16initializer_listIiERKS0_
FNDA:0,_ZNSt6vectorIiSaIiEEC2ESt16initializer_listIiERKS0_
FN:622,_ZNSt6vectorIS_IiSaIiEESaIS1_EEC2ESt16initializer_listIS1_ERKS2_
FNDA:0,_ZNSt6vectorIS_IiSaIiEESaIS1_EEC2ESt16initializer_listIS1_ERKS2_
FN:675,_ZNSt6vectorIS_IiSaIiEESaIS1_EED2Ev
FNDA:0,_ZNSt6vectorIS_IiSaIiEESaIS1_EED2Ev
FN:675,_ZNSt6vectorIiSaIiEED2Ev
FNDA:0,_ZNSt6vectorIiSaIiEED2Ev
FN:817,_ZNKSt6vectorIS_IiSaIiEESaIS1_EE5beginEv
FNDA:0,_ZNKSt6vectorIS_IiSaIiEESaIS1_EE5beginEv
FN:817,_ZNKSt6vectorIiSaIiEE5beginEv
FNDA:0,_ZNKSt6vectorIiSaIiEE5beginEv
FN:835,_ZNKSt6vectorIS_IiSaIiEESaIS1_EE3endEv
FNDA:0,_ZNKSt6vectorIS_IiSaIiEESaIS1_EE3endEv
FN:835,_ZNKSt6vectorIiSaIiEE3endEv
FNDA:0,_ZNKSt6vectorIiSaIiEE3endEv
FN:915,_ZNKSt6vectorIS_IiSaIiEESaIS1_EE4sizeEv
FNDA:0,_ZNKSt6vectorIS_IiSaIiEESaIS1_EE4sizeEv
FN:915,_ZNKSt6vectorIiSaIiEE4sizeEv
FNDA:0,_ZNKSt6vectorIiSaIiEE4sizeEv
FN:1574,_ZNSt6vectorIS_IiSaIiEESaIS1_EE19_M_range_initializeIPKS1_EEvT_S7_St20forward_iterator_tag
FNDA:0,_ZNSt6vectorIS_IiSaIiEESaIS1_EE19_M_range_initializeIPKS1_EEvT_S7_St20forward_iterator_tag
FN:1574,_ZNSt6vectorIiSaIiEE19_M_range_initializeIPKiEEvT_S5_St20forward_iterator_tag
FNDA:0,_ZNSt6vectorIiSaIiEE19_M_range_initializeIPKiEEvT_S5_St20forward_iterator_tag
FN:1764,_ZNSt6vectorIS_IiSaIiEESaIS1_EE17_S_check_init_lenEmRKS2_
FNDA:0,_ZNSt6vectorIS_IiSaIiEESaIS1_EE17_S_check_init_lenEmRKS2_
FN:1764,_ZNSt6vectorIiSaIiEE17_S_check_init_lenEmRKS0_
FNDA:0,_ZNSt6vectorIiSaIiEE17_S_check_init_lenEmRKS0_
FN:1773,_ZNSt6vectorIiSaIiEE11_S_max_sizeERKS0_
FNDA:0,_ZNSt6vectorIiSaIiEE11_S_max_sizeERKS0_
FN:1773,_ZNSt6vectorIS_IiSaIiEESaIS1_EE11_S_max_sizeERKS2_
FNDA:0,_ZNSt6vectorIS_IiSaIiEESaIS1_EE11_S_max_sizeERKS2_
FN:1888,_ZSteqISt6vectorIiSaIiEESaIS2_EEbRKS0_IT_T0_ES8_
FNDA:0,_ZSteqISt6vectorIiSaIiEESaIS2_EEbRKS0_IT_T0_ES8_
FN:1888,_ZSteqIiSaIiEEbRKSt6vectorIT_T0_ES6_
FNDA:0,_ZSteqIiSaIiEEbRKSt6vectorIT_T0_ES6_
DA:94,0
DA:95,0
DA:96,0
DA:94,0
DA:95,0
DA:96,0
DA:133,0
DA:134,0
DA:135,0
DA:133,0
DA:134,0
DA:135,0
DA:273,0
DA:274,0
DA:273,0
DA:274,0
DA:277,0
DA:278,0
DA:290,0
DA:291,0
DA:290,0
DA:291,0
DA:300,0
DA:301,0
DA:302,0
DA:330,0
DA:332,0
DA:333,0
DA:334,0
DA:330,0
DA:332,0
DA:333,0
DA:334,0
DA:340,0
DA:343,0
DA:340,0
DA:343,0
DA:347,0
DA:350,0
DA:351,0
DA:352,0
DA:347,0
DA:350,0
DA:351,0
DA:352,0
DA:356,0
DA:358,0
DA:359,0
DA:360,0
DA:361,0
DA:550,0
DA:552,0
DA:554,0
DA:555,0
DA:557,0
DA:558,0
DA:622,0
DA:624,0
DA:626,0
DA:628,0
DA:622,0
DA:624,0
DA:626,0
DA:628,0
DA:675,0
DA:677,0
DA:678,0
DA:680,0
DA:675,0
DA:677,0
DA:678,0
DA:680,0
DA:817,0
DA:818,0
DA:817,0
DA:818,0
DA:835,0
DA:836,0
DA:835,0
DA:836,0
DA:915,0
DA:916,0
DA:915,0
DA:916,0
DA:1574,0
DA:1577,0
DA:1578,0
DA:1579,0
DA:1580,0
DA:1581,0
DA:1582,0
DA:1584,0
DA:1585,0
DA:1574,0
DA:1577,0
DA:1578,0
DA:1579,0
DA:1580,0
DA:1581,0
DA:1582,0
DA:1584,0
DA:1585,0
DA:1764,0
DA:1766,0
DA:1767,0
DA:1769,0
DA:1764,0
DA:1766,0
DA:1767,0
DA:1769,0
DA:1773,0
DA:1778,0
DA:1780,0
DA:1781,0
DA:1773,0
DA:1778,0
DA:1780,0
DA:1781,0
DA:1888,0
DA:1889,0
DA:1890,0
DA:1888,0
DA:1889,0
DA:1890,0
end_of_record
SF:/home/pato/TPIMorfMat/template-alumnos/lib/googletest-master/googletest/include/gtest/gtest-printers.h
FN:258,_ZN16testing_internal26DefaultPrintNonContainerToIiEEvRKT_PSo
FNDA:0,_ZN16testing_internal26DefaultPrintNonContainerToIiEEvRKT_PSo
FN:311,_ZN7testing8internal19FormatForComparisonISt6vectorIS2_IiSaIiEESaIS4_EES6_E6FormatB5cxx11ERKS6_
FNDA:0,_ZN7testing8internal19FormatForComparisonISt6vectorIS2_IiSaIiEESaIS4_EES6_E6FormatB5cxx11ERKS6_
FN:385,_ZN7testing8internal33FormatForComparisonFailureMessageISt6vectorIS2_IiSaIiEESaIS4_EES6_EENSt7__cxx1112basic_stringIcSt11char_traitsIcESaIcEEERKT_RKT0_
FNDA:0,_ZN7testing8internal33FormatForComparisonFailureMessageISt6vectorIS2_IiSaIiEESaIS4_EES6_EENSt7__cxx1112basic_stringIcSt11char_traitsIcESaIcEEERKT_RKT0_
FN:414,_ZN7testing8internal14DefaultPrintToISt6vectorIS2_IiSaIiEESaIS4_EEEEvNS0_15WrapPrinterTypeILNS0_18DefaultPrinterTypeE0EEERKT_PSo
FNDA:0,_ZN7testing8internal14DefaultPrintToISt6vectorIS2_IiSaIiEESaIS4_EEEEvNS0_15WrapPrinterTypeILNS0_18DefaultPrinterTypeE0EEERKT_PSo
FN:414,_ZN7testing8internal14DefaultPrintToISt6vectorIiSaIiEEEEvNS0_15WrapPrinterTypeILNS0_18DefaultPrinterTypeE0EEERKT_PSo
FNDA:0,_ZN7testing8internal14DefaultPrintToISt6vectorIiSaIiEEEEvNS0_15WrapPrinterTypeILNS0_18DefaultPrinterTypeE0EEERKT_PSo
FN:474,_ZN7testing8internal14DefaultPrintToIiEEvNS0_15WrapPrinterTypeILNS0_18DefaultPrinterTypeE3EEERKT_PSo
FNDA:0,_ZN7testing8internal14DefaultPrintToIiEEvNS0_15WrapPrinterTypeILNS0_18DefaultPrinterTypeE3EEERKT_PSo
FN:491,_ZN7testing8internal7PrintToISt6vectorIiSaIiEEEEvRKT_PSo
FNDA:0,_ZN7testing8internal7PrintToISt6vectorIiSaIiEEEEvRKT_PSo
FN:491,_ZN7testing8internal7PrintToISt6vectorIS2_IiSaIiEESaIS4_EEEEvRKT_PSo
FNDA:0,_ZN7testing8internal7PrintToISt6vectorIS2_IiSaIiEESaIS4_EEEEvRKT_PSo
FN:491,_ZN7testing8internal7PrintToIiEEvRKT_PSo
FNDA:0,_ZN7testing8internal7PrintToIiEEvRKT_PSo
FN:753,_ZN7testing8internal16UniversalPrinterISt6vectorIiSaIiEEE5PrintERKS4_PSo
FNDA:0,_ZN7testing8internal16UniversalPrinterISt6vectorIiSaIiEEE5PrintERKS4_PSo
FN:753,_ZN7testing8internal16UniversalPrinterISt6vectorIS2_IiSaIiEESaIS4_EEE5PrintERKS6_PSo
FNDA:0,_ZN7testing8internal16UniversalPrinterISt6vectorIS2_IiSaIiEESaIS4_EEE5PrintERKS6_PSo
FN:753,_ZN7testing8internal16UniversalPrinterIiE5PrintERKiPSo
FNDA:0,_ZN7testing8internal16UniversalPrinterIiE5PrintERKiPSo
FN:858,_ZN7testing8internal21UniversalTersePrinterISt6vectorIS2_IiSaIiEESaIS4_EEE5PrintERKS6_PSo
FNDA:0,_ZN7testing8internal21UniversalTersePrinterISt6vectorIS2_IiSaIiEESaIS4_EEE5PrintERKS6_PSo
FN:927,_ZN7testing8internal14UniversalPrintISt6vectorIiSaIiEEEEvRKT_PSo
FNDA:0,_ZN7testing8internal14UniversalPrintISt6vectorIiSaIiEEEEvRKT_PSo
FN:927,_ZN7testing8internal14UniversalPrintIiEEvRKT_PSo
FNDA:0,_ZN7testing8internal14UniversalPrintIiEEvRKT_PSo
FN:927,_ZN7testing8internal14UniversalPrintISt6vectorIS2_IiSaIiEESaIS4_EEEEvRKT_PSo
FNDA:0,_ZN7testing8internal14UniversalPrintISt6vectorIS2_IiSaIiEESaIS4_EEEEvRKT_PSo
FN:1065,_ZN7testing13PrintToStringISt6vectorIS1_IiSaIiEESaIS3_EEEENSt7__cxx1112basic_stringIcSt11char_traitsIcESaIcEEERKT_
FNDA:0,_ZN7testing13PrintToStringISt6vectorIS1_IiSaIiEESaIS3_EEEENSt7__cxx1112basic_stringIcSt11char_traitsIcESaIcEEERKT_
DA:258,0
DA:285,0
DA:286,0
DA:311,0
DA:312,0
DA:385,0
DA:387,0
DA:414,0
DA:416,0
DA:417,0
DA:418,0
DA:419,0
DA:420,0
DA:421,0
DA:422,0
DA:423,0
DA:424,0
DA:425,0
DA:428,0
DA:431,0
DA:434,0
DA:435,0
DA:437,0
DA:438,0
DA:414,0
DA:416,0
DA:417,0
DA:418,0
DA:419,0
DA:420,0
DA:421,0
DA:422,0
DA:423,0
DA:424,0
DA:425,0
DA:428,0
DA:431,0
DA:434,0
DA:435,0
DA:437,0
DA:438,0
DA:474,0
DA:476,0
DA:477,0
DA:491,0
DA:511,0
DA:526,0
DA:491,0
DA:511,0
DA:526,0
DA:491,0
DA:511,0
DA:526,0
DA:753,0
DA:762,0
DA:763,0
DA:753,0
DA:762,0
DA:763,0
DA:753,0
DA:762,0
DA:763,0
DA:858,0
DA:859,0
DA:860,0
DA:927,0
DA:931,0
DA:932,0
DA:927,0
DA:931,0
DA:932,0
DA:927,0
DA:931,0
DA:932,0
DA:1065,0
DA:1066,0
DA:1067,0
DA:1068,0
end_of_record
SF:/home/pato/TPIMorfMat/template-alumnos/lib/googletest-master/googletest/include/gtest/internal/gtest-port.h
FN:1185,_ZN7testing8internal10scoped_ptrINSt7__cxx1112basic_stringIcSt11char_traitsIcESaIcEEEED2Ev
FNDA:0,_ZN7testing8internal10scoped_ptrINSt7__cxx1112basic_stringIcSt11char_traitsIcESaIcEEEED2Ev
FN:1185,_ZN7testing8internal10scoped_ptrINSt7__cxx1118basic_stringstreamIcSt11char_traitsIcESaIcEEEED2Ev
FNDA:0,_ZN7testing8internal10scoped_ptrINSt7__cxx1118basic_stringstreamIcSt11char_traitsIcESaIcEEEED2Ev
FN:1188,_ZNK7testing8internal10scoped_ptrINSt7__cxx1112basic_stringIcSt11char_traitsIcESaIcEEEEptEv
FNDA:0,_ZNK7testing8internal10scoped_ptrINSt7__cxx1112basic_stringIcSt11char_traitsIcESaIcEEEEptEv
FN:1189,_ZNK7testing8internal10scoped_ptrINSt7__cxx1112basic_stringIcSt11char_traitsIcESaIcEEEE3getEv
FNDA:0,_ZNK7testing8internal10scoped_ptrINSt7__cxx1112basic_stringIcSt11char_traitsIcESaIcEEEE3getEv
FN:1197,_ZN7testing8internal10scoped_ptrINSt7__cxx1118basic_stringstreamIcSt11char_traitsIcESaIcEEEE5resetEPS7_
FNDA:0,_ZN7testing8internal10scoped_ptrINSt7__cxx1118basic_stringstreamIcSt11char_traitsIcESaIcEEEE5resetEPS7_
FN:1197,_ZN7testing8internal10scoped_ptrINSt7__cxx1112basic_stringIcSt11char_traitsIcESaIcEEEE5resetEPS7_
FNDA:0,_ZN7testing8internal10scoped_ptrINSt7__cxx1112basic_stringIcSt11char_traitsIcESaIcEEEE5resetEPS7_
DA:1185,0
DA:1185,0
DA:1188,0
DA:1189,0
DA:1197,0
DA:1198,0
DA:1199,0
DA:1200,0
DA:1202,0
DA:1204,0
DA:1197,0
DA:1198,0
DA:1199,0
DA:1200,0
DA:1202,0
DA:1204,0
end_of_record
SF:/usr/include/c++/9/ext/type_traits.h
FN:152,_ZN9__gnu_cxx17__is_null_pointerIcEEbPT_
FNDA:0,_ZN9__gnu_cxx17__is_null_pointerIcEEbPT_
FN:152,_ZN9__gnu_cxx17__is_null_pointerIKcEEbPT_
FNDA:0,_ZN9__gnu_cxx17__is_null_pointerIKcEEbPT_
DA:152,0
DA:153,0
DA:152,0
DA:153,0
end_of_record
TN:
SF:/usr/include/c++/9/new
FN:173,_ZnwmPv
FNDA:0,_ZnwmPv
FN:179,_ZdlPvS_
FNDA:0,_ZdlPvS_
DA:173,0
DA:174,0
DA:179,0
end_of_record
SF:/usr/include/c++/9/bits/stl_uninitialized.h
FN:76,_ZNSt20__uninitialized_copyILb0EE13__uninit_copyIPSt6vectorIiSaIiEES5_EET0_T_S7_S6_
FNDA:0,_ZNSt20__uninitialized_copyILb0EE13__uninit_copyIPSt6vectorIiSaIiEES5_EET0_T_S7_S6_
FN:76,_ZNSt20__uninitialized_copyILb0EE13__uninit_copyISt13move_iteratorIPSt6vectorIS3_IiSaIiEESaIS5_EEES8_EET0_T_SB_SA_
FNDA:0,_ZNSt20__uninitialized_copyILb0EE13__uninit_copyISt13move_iteratorIPSt6vectorIS3_IiSaIiEESaIS5_EEES8_EET0_T_SB_SA_
FN:76,_ZNSt20__uninitialized_copyILb0EE13__uninit_copyIN9__gnu_cxx17__normal_iteratorIPKSt6vectorIiSaIiEES4_IS6_SaIS6_EEEEPS6_EET0_T_SE_SD_
FNDA:0,_ZNSt20__uninitialized_copyILb0EE13__uninit_copyIN9__gnu_cxx17__normal_iteratorIPKSt6vectorIiSaIiEES4_IS6_SaIS6_EEEEPS6_EET0_T_SE_SD_
FN:76,_ZNSt20__uninitialized_copyILb0EE13__uninit_copyISt13move_iteratorIPSt6vectorIiSaIiEEES6_EET0_T_S9_S8_
FNDA:0,_ZNSt20__uninitialized_copyILb0EE13__uninit_copyISt13move_iteratorIPSt6vectorIiSaIiEEES6_EET0_T_S9_S8_
FN:76,_ZNSt20__uninitialized_copyILb0EE13__uninit_copyIPKSt6vectorIiSaIiEEPS4_EET0_T_S9_S8_
FNDA:205,_ZNSt20__uninitialized_copyILb0EE13__uninit_copyIPKSt6vectorIiSaIiEEPS4_EET0_T_S9_S8_
FN:99,_ZNSt20__uninitialized_copyILb1EE13__uninit_copyIPiS2_EET0_T_S4_S3_
FNDA:0,_ZNSt20__uninitialized_copyILb1EE13__uninit_copyIPiS2_EET0_T_S4_S3_
FN:99,_ZNSt20__uninitialized_copyILb1EE13__uninit_copyIN9__gnu_cxx17__normal_iteratorIPKiSt6vectorIiSaIiEEEEPiEET0_T_SC_SB_
FNDA:0,_ZNSt20__uninitialized_copyILb1EE13__uninit_copyIN9__gnu_cxx17__normal_iteratorIPKiSt6vectorIiSaIiEEEEPiEET0_T_SC_SB_
FN:99,_ZNSt20__uninitialized_copyILb1EE13__uninit_copyISt13move_iteratorIPiES3_EET0_T_S6_S5_
FNDA:0,_ZNSt20__uninitialized_copyILb1EE13__uninit_copyISt13move_iteratorIPiES3_EET0_T_S6_S5_
FN:99,_ZNSt20__uninitialized_copyILb1EE13__uninit_copyIPKiPiEET0_T_S6_S5_
FNDA:0,_ZNSt20__uninitialized_copyILb1EE13__uninit_copyIPKiPiEET0_T_S6_S5_
FN:115,_ZSt18uninitialized_copyISt13move_iteratorIPiES1_ET0_T_S4_S3_
FNDA:0,_ZSt18uninitialized_copyISt13move_iteratorIPiES1_ET0_T_S4_S3_
FN:115,_ZSt18uninitialized_copyIPKSt6vectorIiSaIiEEPS2_ET0_T_S7_S6_
FNDA:205,_ZSt18uninitialized_copyIPKSt6vectorIiSaIiEEPS2_ET0_T_S7_S6_
FN:115,_ZSt18uninitialized_copyIPKiPiET0_T_S4_S3_
FNDA:0,_ZSt18uninitialized_copyIPKiPiET0_T_S4_S3_
FN:115,_ZSt18uninitialized_copyISt13move_iteratorIPSt6vectorIiSaIiEEES4_ET0_T_S7_S6_
FNDA:0,_ZSt18uninitialized_copyISt13move_iteratorIPSt6vectorIiSaIiEEES4_ET0_T_S7_S6_
FN:115,_ZSt18uninitialized_copyIPSt6vectorIiSaIiEES3_ET0_T_S5_S4_
FNDA:0,_ZSt18uninitialized_copyIPSt6vectorIiSaIiEES3_ET0_T_S5_S4_
FN:115,_ZSt18uninitialized_copyIN9__gnu_cxx17__normal_iteratorIPKiSt6vectorIiSaIiEEEEPiET0_T_SA_S9_
FNDA:0,_ZSt18uninitialized_copyIN9__gnu_cxx17__normal_iteratorIPKiSt6vectorIiSaIiEEEEPiET0_T_SA_S9_
FN:115,_ZSt18uninitialized_copyISt13move_iteratorIPSt6vectorIS1_IiSaIiEESaIS3_EEES6_ET0_T_S9_S8_
FNDA:0,_ZSt18uninitialized_copyISt13move_iteratorIPSt6vectorIS1_IiSaIiEESaIS3_EEES6_ET0_T_S9_S8_
FN:115,_ZSt18uninitialized_copyIN9__gnu_cxx17__normal_iteratorIPKSt6vectorIiSaIiEES2_IS4_SaIS4_EEEEPS4_ET0_T_SC_SB_
FNDA:0,_ZSt18uninitialized_copyIN9__gnu_cxx17__normal_iteratorIPKSt6vectorIiSaIiEES2_IS4_SaIS4_EEEEPS4_ET0_T_SC_SB_
FN:115,_ZSt18uninitialized_copyIPiS0_ET0_T_S2_S1_
FNDA:0,_ZSt18uninitialized_copyIPiS0_ET0_T_S2_S1_
FN:203,_ZNSt22__uninitialized_fill_nILb0EE15__uninit_fill_nIPSt6vectorIiSaIiEEmS4_EET_S6_T0_RKT1_
FNDA:4,_ZNSt22__uninitialized_fill_nILb0EE15__uninit_fill_nIPSt6vectorIiSaIiEEmS4_EET_S6_T0_RKT1_
FN:244,_ZSt20uninitialized_fill_nIPSt6vectorIiSaIiEEmS2_ET_S4_T0_RKT1_
FNDA:4,_ZSt20uninitialized_fill_nIPSt6vectorIiSaIiEEmS2_ET_S4_T0_RKT1_
FN:287,_ZSt22__uninitialized_copy_aIN9__gnu_cxx17__normal_iteratorIPKSt6vectorIiSaIiEES2_IS4_SaIS4_EEEEPS4_S4_ET0_T_SC_SB_RSaIT1_E
FNDA:0,_ZSt22__uninitialized_copy_aIN9__gnu_cxx17__normal_iteratorIPKSt6vectorIiSaIiEES2_IS4_SaIS4_EEEEPS4_S4_ET0_T_SC_SB_RSaIT1_E
FN:287,_ZSt22__uninitialized_copy_aISt13move_iteratorIPSt6vectorIiSaIiEEES4_S3_ET0_T_S7_S6_RSaIT1_E
FNDA:0,_ZSt22__uninitialized_copy_aISt13move_iteratorIPSt6vectorIiSaIiEEES4_S3_ET0_T_S7_S6_RSaIT1_E
FN:287,_ZSt22__uninitialized_copy_aIPKSt6vectorIiSaIiEEPS2_S2_ET0_T_S7_S6_RSaIT1_E
FNDA:205,_ZSt22__uninitialized_copy_aIPKSt6vectorIiSaIiEEPS2_S2_ET0_T_S7_S6_RSaIT1_E
FN:287,_ZSt22__uninitialized_copy_aIPKiPiiET0_T_S4_S3_RSaIT1_E
FNDA:0,_ZSt22__uninitialized_copy_aIPKiPiiET0_T_S4_S3_RSaIT1_E
FN:287,_ZSt22__uninitialized_copy_aIPSt6vectorIiSaIiEES3_S2_ET0_T_S5_S4_RSaIT1_E
FNDA:0,_ZSt22__uninitialized_copy_aIPSt6vectorIiSaIiEES3_S2_ET0_T_S5_S4_RSaIT1_E
FN:287,_ZSt22__uninitialized_copy_aIN9__gnu_cxx17__normal_iteratorIPKiSt6vectorIiSaIiEEEEPiiET0_T_SA_S9_RSaIT1_E
FNDA:0,_ZSt22__uninitialized_copy_aIN9__gnu_cxx17__normal_iteratorIPKiSt6vectorIiSaIiEEEEPiiET0_T_SA_S9_RSaIT1_E
FN:287,_ZSt22__uninitialized_copy_aISt13move_iteratorIPSt6vectorIS1_IiSaIiEESaIS3_EEES6_S5_ET0_T_S9_S8_RSaIT1_E
FNDA:0,_ZSt22__uninitialized_copy_aISt13move_iteratorIPSt6vectorIS1_IiSaIiEESaIS3_EEES6_S5_ET0_T_S9_S8_RSaIT1_E
FN:287,_ZSt22__uninitialized_copy_aISt13move_iteratorIPiES1_iET0_T_S4_S3_RSaIT1_E
FNDA:0,_ZSt22__uninitialized_copy_aISt13move_iteratorIPiES1_iET0_T_S4_S3_RSaIT1_E
FN:287,_ZSt22__uninitialized_copy_aIPiS0_iET0_T_S2_S1_RSaIT1_E
FNDA:0,_ZSt22__uninitialized_copy_aIPiS0_iET0_T_S2_S1_RSaIT1_E
FN:305,_ZSt34__uninitialized_move_if_noexcept_aIPSt6vectorIS0_IiSaIiEESaIS2_EES5_SaIS4_EET0_T_S8_S7_RT1_
FNDA:0,_ZSt34__uninitialized_move_if_noexcept_aIPSt6vectorIS0_IiSaIiEESaIS2_EES5_SaIS4_EET0_T_S8_S7_RT1_
FN:305,_ZSt34__uninitialized_move_if_noexcept_aIPiS0_SaIiEET0_T_S3_S2_RT1_
FNDA:0,_ZSt34__uninitialized_move_if_noexcept_aIPiS0_SaIiEET0_T_S3_S2_RT1_
FN:305,_ZSt34__uninitialized_move_if_noexcept_aIPSt6vectorIiSaIiEES3_SaIS2_EET0_T_S6_S5_RT1_
FNDA:0,_ZSt34__uninitialized_move_if_noexcept_aIPSt6vectorIiSaIiEES3_SaIS2_EET0_T_S6_S5_RT1_
FN:364,_ZSt24__uninitialized_fill_n_aIPSt6vectorIiSaIiEEmS2_S2_ET_S4_T0_RKT1_RSaIT2_E
FNDA:4,_ZSt24__uninitialized_fill_n_aIPSt6vectorIiSaIiEEmS2_S2_ET_S4_T0_RKT1_RSaIT2_E
FN:543,_ZNSt27__uninitialized_default_n_1ILb1EE18__uninit_default_nIPimEET_S3_T0_
FNDA:4,_ZNSt27__uninitialized_default_n_1ILb1EE18__uninit_default_nIPimEET_S3_T0_
FN:574,_ZSt25__uninitialized_default_nIPimET_S1_T0_
FNDA:4,_ZSt25__uninitialized_default_nIPimET_S1_T0_
FN:643,_ZSt27__uninitialized_default_n_aIPimiET_S1_T0_RSaIT1_E
FNDA:4,_ZSt27__uninitialized_default_n_aIPimiET_S1_T0_RSaIT1_E
FN:887,_ZSt19__relocate_object_aISt6vectorIS0_IiSaIiEESaIS2_EES4_SaIS4_EEvPT_PT0_RT1_
FNDA:0,_ZSt19__relocate_object_aISt6vectorIS0_IiSaIiEESaIS2_EES4_SaIS4_EEvPT_PT0_RT1_
FN:887,_ZSt19__relocate_object_aISt6vectorIiSaIiEES2_SaIS2_EEvPT_PT0_RT1_
FNDA:0,_ZSt19__relocate_object_aISt6vectorIiSaIiEES2_SaIS2_EEvPT_PT0_RT1_
FN:906,_ZSt14__relocate_a_1IiiENSt9enable_ifIXsrSt24__is_bitwise_relocatableIT_vE5valueEPS2_E4typeES4_S4_S4_RSaIT0_E
FNDA:120,_ZSt14__relocate_a_1IiiENSt9enable_ifIXsrSt24__is_bitwise_relocatableIT_vE5valueEPS2_E4typeES4_S4_S4_RSaIT0_E
FN:918,_ZSt14__relocate_a_1IPSt6vectorIS0_IiSaIiEESaIS2_EES5_SaIS4_EET0_T_S8_S7_RT1_
FNDA:0,_ZSt14__relocate_a_1IPSt6vectorIS0_IiSaIiEESaIS2_EES5_SaIS4_EET0_T_S8_S7_RT1_
FN:918,_ZSt14__relocate_a_1IPSt6vectorIiSaIiEES3_SaIS2_EET0_T_S6_S5_RT1_
FNDA:0,_ZSt14__relocate_a_1IPSt6vectorIiSaIiEES3_SaIS2_EET0_T_S6_S5_RT1_
FN:940,_ZSt12__relocate_aIPSt6vectorIS0_IiSaIiEESaIS2_EES5_SaIS4_EET0_T_S8_S7_RT1_
FNDA:0,_ZSt12__relocate_aIPSt6vectorIS0_IiSaIiEESaIS2_EES5_SaIS4_EET0_T_S8_S7_RT1_
FN:940,_ZSt12__relocate_aIPiS0_SaIiEET0_T_S3_S2_RT1_
FNDA:120,_ZSt12__relocate_aIPiS0_SaIiEET0_T_S3_S2_RT1_
FN:940,_ZSt12__relocate_aIPSt6vectorIiSaIiEES3_SaIS2_EET0_T_S6_S5_RT1_
FNDA:0,_ZSt12__relocate_aIPSt6vectorIiSaIiEES3_SaIS2_EET0_T_S6_S5_RT1_
DA:76,0
DA:79,0
DA:82,0
DA:83,0
DA:84,0
DA:86,0
DA:88,0
DA:89,0
DA:76,0
DA:79,0
DA:82,0
DA:83,0
DA:84,0
DA:86,0
DA:88,0
DA:89,0
DA:76,205
DA:79,205
DA:82,1007
DA:83,802
DA:84,205
DA:86,0
DA:88,0
DA:89,0
DA:76,0
DA:79,0
DA:82,0
DA:83,0
DA:84,0
DA:86,0
DA:88,0
DA:89,0
DA:76,0
DA:79,0
DA:82,0
DA:83,0
DA:84,0
DA:86,0
DA:88,0
DA:89,0
DA:99,0
DA:101,0
DA:99,0
DA:101,0
DA:99,0
DA:101,0
DA:99,0
DA:101,0
DA:115,0
DA:128,0
DA:134,0
DA:115,0
DA:128,0
DA:134,0
DA:115,0
DA:128,0
DA:134,0
DA:115,0
DA:128,0
DA:134,0
DA:115,205
DA:128,205
DA:134,205
DA:115,0
DA:128,0
DA:134,0
DA:115,0
DA:128,0
DA:134,0
DA:115,0
DA:128,0
DA:134,0
DA:115,0
DA:128,0
DA:134,0
DA:203,4
DA:206,4
DA:209,38
DA:210,34
DA:211,4
DA:213,0
DA:215,0
DA:216,0
DA:244,4
DA:252,4
DA:255,4
DA:287,0
DA:289,0
DA:287,0
DA:289,0
DA:287,0
DA:289,0
DA:287,0
DA:289,0
DA:287,205
DA:289,205
DA:287,0
DA:289,0
DA:287,0
DA:289,0
DA:287,0
DA:289,0
DA:287,0
DA:289,0
DA:305,0
DA:311,0
DA:312,0
DA:305,0
DA:311,0
DA:312,0
DA:305,0
DA:311,0
DA:312,0
DA:364,4
DA:366,4
DA:543,4
DA:548,4
DA:574,4
DA:579,4
DA:583,4
DA:643,4
DA:645,4
DA:887,0
DA:894,0
DA:895,0
DA:896,0
DA:887,0
DA:894,0
DA:895,0
DA:896,0
DA:906,120
DA:909,120
DA:910,120
DA:911,43
DA:912,120
DA:918,0
DA:930,0
DA:931,0
DA:932,0
DA:934,0
DA:918,0
DA:930,0
DA:931,0
DA:932,0
DA:934,0
DA:940,0
DA:946,0
DA:948,0
DA:940,120
DA:946,120
DA:948,120
DA:940,0
DA:946,0
DA:948,0
end_of_record
SF:/home/pato/TPIMorfMat/template-alumnos/auxiliares.cpp
FN:10,_Z8esMatrizRKSt6vectorIS_IiSaIiEESaIS1_EE
FNDA:9,_Z8esMatrizRKSt6vectorIS_IiSaIiEESaIS1_EE
FN:17,_Z9esBinariaRKSt6vectorIS_IiSaIiEESaIS1_EE
FNDA:6,_Z9esBinariaRKSt6vectorIS_IiSaIiEESaIS1_EE
FN:27,_Z30sonPixelesConectadosViniendoDeRKSt6vectorIS_IiSaIiEESaIS1_EERKS1_S7_iS3_
FNDA:245,_Z30sonPixelesConectadosViniendoDeRKSt6vectorIS_IiSaIiEESaIS1_EERKS1_S7_iS3_
FN:71,_Z20pixelValidoEncendidoRKSt6vectorIS_IiSaIiEESaIS1_EERKS1_
FNDA:1242,_Z20pixelValidoEncendidoRKSt6vectorIS_IiSaIiEESaIS1_EERKS1_
FN:75,_Z9perteneceRKSt6vectorIS_IiSaIiEESaIS1_EERKS1_
FNDA:23637,_Z9perteneceRKSt6vectorIS_IiSaIiEESaIS1_EERKS1_
FN:83,_Z7esBordeRKSt6vectorIS_IiSaIiEESaIS1_EERKS1_
FNDA:132,_Z7esBordeRKSt6vectorIS_IiSaIiEESaIS1_EERKS1_
FN:86,_Z17tocaBackgroundAdKRKSt6vectorIS_IiSaIiEESaIS1_EERKS1_i
FNDA:84,_Z17tocaBackgroundAdKRKSt6vectorIS_IiSaIiEESaIS1_EERKS1_i
FN:99,_Z19convertirASecuenciaRKSt6vectorIS_IiSaIiEESaIS1_EE
FNDA:69,_Z19convertirASecuenciaRKSt6vectorIS_IiSaIiEESaIS1_EE
FN:112,_Z16convertirAImagenRKSt6vectorIS_IiSaIiEESaIS1_EEii
FNDA:4,_Z16convertirAImagenRKSt6vectorIS_IiSaIiEESaIS1_EEii
FN:123,_Z12interseccionRKSt6vectorIS_IiSaIiEESaIS1_EES5_
FNDA:151,_Z12interseccionRKSt6vectorIS_IiSaIiEESaIS1_EES5_
FN:133,_Z10dilatacionRKSt6vectorIS_IiSaIiEESaIS1_EES5_ii
FNDA:153,_Z10dilatacionRKSt6vectorIS_IiSaIiEESaIS1_EES5_ii
FN:147,_Z7erosionRKSt6vectorIS_IiSaIiEESaIS1_EES5_ii
FNDA:2,_Z7erosionRKSt6vectorIS_IiSaIiEESaIS1_EES5_ii
FN:163,_Z9desplazarRKSt6vectorIS_IiSaIiEESaIS1_EERKS1_
FNDA:2697,_Z9desplazarRKSt6vectorIS_IiSaIiEESaIS1_EERKS1_
FN:171,_Z15hayInterseccionRKSt6vectorIS_IiSaIiEESaIS1_EES5_
FNDA:2623,_Z15hayInterseccionRKSt6vectorIS_IiSaIiEESaIS1_EES5_
FN:179,_Z9contenidoRKSt6vectorIS_IiSaIiEESaIS1_EES5_ii
FNDA:74,_Z9contenidoRKSt6vectorIS_IiSaIiEESaIS1_EES5_ii
FN:188,_Z7igualesRKSt6vectorIS_IiSaIiEESaIS1_EES5_
FNDA:272,_Z7igualesRKSt6vectorIS_IiSaIiEESaIS1_EES5_
FN:202,_Z13extraerRegionRKSt6vectorIS_IiSaIiEESaIS1_EERKS1_i
FNDA:65,_Z13extraerRegionRKSt6vectorIS_IiSaIiEESaIS1_EERKS1_i
FN:228,_Z15quitarRepetidosRKSt6vectorIS_IS_IiSaIiEESaIS1_EESaIS3_EE
FNDA:14,_Z15quitarRepetidosRKSt6vectorIS_IS_IiSaIiEESaIS1_EESaIS3_EE
FN:246,_Z12perteneceIntRKSt6vectorIiSaIiEERKi
FNDA:61,_Z12perteneceIntRKSt6vectorIiSaIiEERKi
DA:10,9
DA:11,9
DA:12,51
DA:13,42
DA:15,9
DA:17,6
DA:18,6
DA:19,34
DA:20,194
DA:21,166
DA:24,6
DA:27,245
DA:28,245
DA:29,245
DA:30,75
DA:31,9
DA:33,66
DA:34,264
DA:35,792
DA:36,594
DA:37,68
DA:38,68
DA:45,170
DA:46,8
DA:48,162
DA:49,162
DA:50,44
DA:51,44
DA:54,162
DA:55,41
DA:56,41
DA:58,162
DA:59,61
DA:60,61
DA:62,162
DA:63,10
DA:64,10
DA:68,245
DA:71,1242
DA:72,1242
DA:75,23637
DA:76,23637
DA:77,216540
DA:78,192903
DA:80,23637
DA:83,132
DA:84,132
DA:86,84
DA:87,84
DA:88,84
DA:89,46
DA:91,84
DA:92,42
DA:93,32
DA:96,84
DA:99,69
DA:100,69
DA:102,316
DA:103,1214
DA:104,967
DA:105,402
DA:109,69
DA:112,4
DA:113,8
DA:114,38
DA:115,318
DA:116,284
DA:119,4
DA:123,151
DA:124,151
DA:125,1378
DA:126,1227
DA:127,705
DA:130,151
DA:133,153
DA:134,153
DA:135,306
DA:136,726
DA:137,3196
DA:138,2623
DA:139,2623
DA:140,1301
DA:144,306
DA:147,2
DA:148,2
DA:149,4
DA:150,16
DA:151,98
DA:152,84
DA:153,74
DA:154,74
DA:155,54
DA:160,4
DA:163,2697
DA:164,2697
DA:165,22854
DA:166,20157
DA:168,2697
DA:171,2623
DA:172,2623
DA:173,22264
DA:174,19641
DA:176,2623
DA:179,74
DA:180,74
DA:181,608
DA:182,534
DA:183,444
DA:186,74
DA:188,272
DA:189,272
DA:190,272
DA:191,104
DA:193,871
DA:194,703
DA:197,272
DA:202,65
DA:203,130
DA:204,130
DA:205,130
DA:206,65
DA:207,180
DA:209,282
DA:212,130
DA:213,65
DA:214,65
DA:216,65
DA:217,151
DA:218,86
DA:219,86
DA:220,86
DA:221,86
DA:222,86
DA:225,130
DA:228,14
DA:229,14
DA:230,28
DA:231,75
DA:232,182
DA:233,121
DA:234,63
DA:238,75
DA:239,61
DA:240,35
DA:243,28
DA:246,61
DA:247,61
DA:248,184
DA:249,123
DA:251,61
end_of_record
SF:/usr/include/c++/9/bits/stl_algobase.h
FN:198,_ZSt3minImERKT_S2_S2_
FNDA:0,_ZSt3minImERKT_S2_S2_
FN:222,_ZSt3maxIiERKT_S2_S2_
FNDA:75,_ZSt3maxIiERKT_S2_S2_
FN:222,_ZSt3maxImERKT_S2_S2_
FNDA:0,_ZSt3maxImERKT_S2_S2_
FN:280,_ZSt12__niter_baseIPSt6vectorIiSaIiEEET_S4_
FNDA:0,_ZSt12__niter_baseIPSt6vectorIiSaIiEEET_S4_
FN:280,_ZSt12__niter_baseIPKiET_S2_
FNDA:0,_ZSt12__niter_baseIPKiET_S2_
FN:280,_ZSt12__niter_baseIPKSt6vectorIiSaIiEEET_S5_
FNDA:0,_ZSt12__niter_baseIPKSt6vectorIiSaIiEEET_S5_
FN:280,_ZSt12__niter_baseIPiET_S1_
FNDA:0,_ZSt12__niter_baseIPiET_S1_
FN:280,_ZSt12__niter_baseIPSt6vectorIS0_IiSaIiEESaIS2_EEET_S6_
FNDA:0,_ZSt12__niter_baseIPSt6vectorIS0_IiSaIiEESaIS2_EEET_S6_
FN:289,_ZSt12__niter_wrapIN9__gnu_cxx17__normal_iteratorIPiSt6vectorIiSaIiEEEES2_ET_S7_T0_
FNDA:0,_ZSt12__niter_wrapIN9__gnu_cxx17__normal_iteratorIPiSt6vectorIiSaIiEEEES2_ET_S7_T0_
FN:289,_ZSt12__niter_wrapIN9__gnu_cxx17__normal_iteratorIPSt6vectorIiSaIiEES2_IS4_SaIS4_EEEES5_ET_S9_T0_
FNDA:4,_ZSt12__niter_wrapIN9__gnu_cxx17__normal_iteratorIPSt6vectorIiSaIiEES2_IS4_SaIS4_EEEES5_ET_S9_T0_
FN:295,_ZSt12__niter_wrapIPSt6vectorIiSaIiEEET_RKS4_S4_
FNDA:0,_ZSt12__niter_wrapIPSt6vectorIiSaIiEEET_RKS4_S4_
FN:295,_ZSt12__niter_wrapIPiET_RKS1_S1_
FNDA:0,_ZSt12__niter_wrapIPiET_RKS1_S1_
FN:337,_ZNSt11__copy_moveILb0ELb0ESt26random_access_iterator_tagE8__copy_mIPSt6vectorIiSaIiEES6_EET0_T_S8_S7_
FNDA:0,_ZNSt11__copy_moveILb0ELb0ESt26random_access_iterator_tagE8__copy_mIPSt6vectorIiSaIiEES6_EET0_T_S8_S7_
FN:337,_ZNSt11__copy_moveILb0ELb0ESt26random_access_iterator_tagE8__copy_mIPKSt6vectorIiSaIiEEPS5_EET0_T_SA_S9_
FNDA:0,_ZNSt11__copy_moveILb0ELb0ESt26random_access_iterator_tagE8__copy_mIPKSt6vectorIiSaIiEEPS5_EET0_T_SA_S9_
FN:375,_ZNSt11__copy_moveILb1ELb1ESt26random_access_iterator_tagE8__copy_mIiEEPT_PKS3_S6_S4_
FNDA:0,_ZNSt11__copy_moveILb1ELb1ESt26random_access_iterator_tagE8__copy_mIiEEPT_PKS3_S6_S4_
FN:375,_ZNSt11__copy_moveILb0ELb1ESt26random_access_iterator_tagE8__copy_mIiEEPT_PKS3_S6_S4_
FNDA:0,_ZNSt11__copy_moveILb0ELb1ESt26random_access_iterator_tagE8__copy_mIiEEPT_PKS3_S6_S4_
FN:393,_ZSt13__copy_move_aILb1EPiS0_ET1_T0_S2_S1_
FNDA:0,_ZSt13__copy_move_aILb1EPiS0_ET1_T0_S2_S1_
FN:393,_ZSt13__copy_move_aILb0EPKiPiET1_T0_S4_S3_
FNDA:0,_ZSt13__copy_move_aILb0EPKiPiET1_T0_S4_S3_
FN:393,_ZSt13__copy_move_aILb0EPiS0_ET1_T0_S2_S1_
FNDA:0,_ZSt13__copy_move_aILb0EPiS0_ET1_T0_S2_S1_
FN:393,_ZSt13__copy_move_aILb0EPKSt6vectorIiSaIiEEPS2_ET1_T0_S7_S6_
FNDA:0,_ZSt13__copy_move_aILb0EPKSt6vectorIiSaIiEEPS2_ET1_T0_S7_S6_
FN:393,_ZSt13__copy_move_aILb0EPSt6vectorIiSaIiEES3_ET1_T0_S5_S4_
FNDA:0,_ZSt13__copy_move_aILb0EPSt6vectorIiSaIiEES3_ET1_T0_S5_S4_
FN:438,_ZSt14__copy_move_a2ILb0EN9__gnu_cxx17__normal_iteratorIPKiSt6vectorIiSaIiEEEENS1_IPiS6_EEET1_T0_SB_SA_
FNDA:0,_ZSt14__copy_move_a2ILb0EN9__gnu_cxx17__normal_iteratorIPKiSt6vectorIiSaIiEEEENS1_IPiS6_EEET1_T0_SB_SA_
FN:438,_ZSt14__copy_move_a2ILb0EN9__gnu_cxx17__normal_iteratorIPKSt6vectorIiSaIiEES2_IS4_SaIS4_EEEENS1_IPS4_S8_EEET1_T0_SD_SC_
FNDA:0,_ZSt14__copy_move_a2ILb0EN9__gnu_cxx17__normal_iteratorIPKSt6vectorIiSaIiEES2_IS4_SaIS4_EEEENS1_IPS4_S8_EEET1_T0_SD_SC_
FN:438,_ZSt14__copy_move_a2ILb0EPSt6vectorIiSaIiEES3_ET1_T0_S5_S4_
FNDA:0,_ZSt14__copy_move_a2ILb0EPSt6vectorIiSaIiEES3_ET1_T0_S5_S4_
FN:438,_ZSt14__copy_move_a2ILb1EPiS0_ET1_T0_S2_S1_
FNDA:0,_ZSt14__copy_move_a2ILb1EPiS0_ET1_T0_S2_S1_
FN:438,_ZSt14__copy_move_a2ILb0EPKSt6vectorIiSaIiEEPS2_ET1_T0_S7_S6_
FNDA:0,_ZSt14__copy_move_a2ILb0EPKSt6vectorIiSaIiEEPS2_ET1_T0_S7_S6_
FN:438,_ZSt14__copy_move_a2ILb0EPiS0_ET1_T0_S2_S1_
FNDA:0,_ZSt14__copy_move_a2ILb0EPiS0_ET1_T0_S2_S1_
FN:438,_ZSt14__copy_move_a2ILb0EN9__gnu_cxx17__normal_iteratorIPKiSt6vectorIiSaIiEEEEPiET1_T0_SA_S9_
FNDA:0,_ZSt14__copy_move_a2ILb0EN9__gnu_cxx17__normal_iteratorIPKiSt6vectorIiSaIiEEEEPiET1_T0_SA_S9_
FN:438,_ZSt14__copy_move_a2ILb0EPKiPiET1_T0_S4_S3_
FNDA:0,_ZSt14__copy_move_a2ILb0EPKiPiET1_T0_S4_S3_
FN:465,_ZSt4copyISt13move_iteratorIPiES1_ET0_T_S4_S3_
FNDA:0,_ZSt4copyISt13move_iteratorIPiES1_ET0_T_S4_S3_
FN:465,_ZSt4copyIN9__gnu_cxx17__normal_iteratorIPKiSt6vectorIiSaIiEEEEPiET0_T_SA_S9_
FNDA:0,_ZSt4copyIN9__gnu_cxx17__normal_iteratorIPKiSt6vectorIiSaIiEEEEPiET0_T_SA_S9_
FN:465,_ZSt4copyIPiS0_ET0_T_S2_S1_
FNDA:0,_ZSt4copyIPiS0_ET0_T_S2_S1_
FN:465,_ZSt4copyIPKiPiET0_T_S4_S3_
FNDA:0,_ZSt4copyIPKiPiET0_T_S4_S3_
FN:465,_ZSt4copyIN9__gnu_cxx17__normal_iteratorIPKiSt6vectorIiSaIiEEEENS1_IPiS6_EEET0_T_SB_SA_
FNDA:0,_ZSt4copyIN9__gnu_cxx17__normal_iteratorIPKiSt6vectorIiSaIiEEEENS1_IPiS6_EEET0_T_SB_SA_
FN:465,_ZSt4copyIPKSt6vectorIiSaIiEEPS2_ET0_T_S7_S6_
FNDA:0,_ZSt4copyIPKSt6vectorIiSaIiEEPS2_ET0_T_S7_S6_
FN:465,_ZSt4copyIPSt6vectorIiSaIiEES3_ET0_T_S5_S4_
FNDA:0,_ZSt4copyIPSt6vectorIiSaIiEES3_ET0_T_S5_S4_
FN:465,_ZSt4copyIN9__gnu_cxx17__normal_iteratorIPKSt6vectorIiSaIiEES2_IS4_SaIS4_EEEENS1_IPS4_S8_EEET0_T_SD_SC_
FNDA:0,_ZSt4copyIN9__gnu_cxx17__normal_iteratorIPKSt6vectorIiSaIiEES2_IS4_SaIS4_EEEENS1_IPS4_S8_EEET0_T_SD_SC_
FN:767,_ZSt10__fill_n_aIPimiEN9__gnu_cxx11__enable_ifIXsrSt11__is_scalarIT1_E7__valueET_E6__typeES6_T0_RKS4_
FNDA:4,_ZSt10__fill_n_aIPimiEN9__gnu_cxx11__enable_ifIXsrSt11__is_scalarIT1_E7__valueET_E6__typeES6_T0_RKS4_
FN:802,_ZSt6fill_nIPimiET_S1_T0_RKT1_
FNDA:4,_ZSt6fill_nIPimiET_S1_T0_RKT1_
FN:831,_ZNSt7__equalILb1EE5equalIiEEbPKT_S4_S4_
FNDA:198900,_ZNSt7__equalILb1EE5equalIiEEbPKT_S4_S4_
FN:841,_ZSt11__equal_auxIPKiS1_EbT_S2_T0_
FNDA:198900,_ZSt11__equal_auxIPKiS1_EbT_S2_T0_
FN:1059,_ZSt5equalIN9__gnu_cxx17__normal_iteratorIPKiSt6vectorIiSaIiEEEES7_EbT_S8_T0_
FNDA:198900,_ZSt5equalIN9__gnu_cxx17__normal_iteratorIPKiSt6vectorIiSaIiEEEES7_EbT_S8_T0_
DA:198,0
DA:203,0
DA:204,0
DA:205,0
DA:222,0
DA:227,0
DA:228,0
DA:229,0
DA:222,75
DA:227,75
DA:228,39
DA:229,36
DA:280,0
DA:282,0
DA:280,0
DA:282,0
DA:280,0
DA:282,0
DA:280,0
DA:282,0
DA:280,0
DA:282,0
DA:289,0
DA:290,0
DA:289,4
DA:290,4
DA:295,0
DA:296,0
DA:295,0
DA:296,0
DA:337,0
DA:340,0
DA:342,0
DA:343,0
DA:344,0
DA:346,0
DA:337,0
DA:340,0
DA:342,0
DA:343,0
DA:344,0
DA:346,0
DA:375,0
DA:384,0
DA:385,0
DA:386,0
DA:387,0
DA:375,0
DA:384,0
DA:385,0
DA:386,0
DA:387,0
DA:393,0
DA:398,0
DA:404,0
DA:393,0
DA:398,0
DA:404,0
DA:393,0
DA:398,0
DA:404,0
DA:393,0
DA:398,0
DA:404,0
DA:393,0
DA:398,0
DA:404,0
DA:438,0
DA:440,0
DA:443,0
DA:438,0
DA:440,0
DA:443,0
DA:438,0
DA:440,0
DA:443,0
DA:438,0
DA:440,0
DA:443,0
DA:438,0
DA:440,0
DA:443,0
DA:438,0
DA:440,0
DA:443,0
DA:438,0
DA:440,0
DA:443,0
DA:438,0
DA:440,0
DA:443,0
DA:465,0
DA:474,0
DA:465,0
DA:474,0
DA:465,0
DA:474,0
DA:465,0
DA:474,0
DA:465,0
DA:474,0
DA:465,0
DA:474,0
DA:465,0
DA:474,0
DA:465,0
DA:474,0
DA:767,4
DA:769,4
DA:770,4
DA:771,36
DA:772,32
DA:773,4
DA:802,4
DA:808,4
DA:809,4
DA:831,198900
DA:833,198900
DA:834,198900
DA:835,0
DA:841,198900
DA:845,198900
DA:851,198900
DA:1059,198900
DA:1069,198900
DA:1071,198900
end_of_record
SF:/usr/include/c++/9/bits/cpp_type_traits.h
FN:428,_ZSt12__miter_baseIPiET_S1_
FNDA:0,_ZSt12__miter_baseIPiET_S1_
FN:428,_ZSt12__miter_baseIPKiET_S2_
FNDA:0,_ZSt12__miter_baseIPKiET_S2_
FN:428,_ZSt12__miter_baseIN9__gnu_cxx17__normal_iteratorIPKiSt6vectorIiSaIiEEEEET_S8_
FNDA:0,_ZSt12__miter_baseIN9__gnu_cxx17__normal_iteratorIPKiSt6vectorIiSaIiEEEEET_S8_
FN:428,_ZSt12__miter_baseIPKSt6vectorIiSaIiEEET_S5_
FNDA:0,_ZSt12__miter_baseIPKSt6vectorIiSaIiEEET_S5_
FN:428,_ZSt12__miter_baseIPSt6vectorIiSaIiEEET_S4_
FNDA:0,_ZSt12__miter_baseIPSt6vectorIiSaIiEEET_S4_
FN:428,_ZSt12__miter_baseIN9__gnu_cxx17__normal_iteratorIPKSt6vectorIiSaIiEES2_IS4_SaIS4_EEEEET_SA_
FNDA:0,_ZSt12__miter_baseIN9__gnu_cxx17__normal_iteratorIPKSt6vectorIiSaIiEES2_IS4_SaIS4_EEEEET_SA_
DA:428,0
DA:429,0
DA:428,0
DA:429,0
DA:428,0
DA:429,0
DA:428,0
DA:429,0
DA:428,0
DA:429,0
DA:428,0
DA:429,0
end_of_record
SF:/usr/include/c++/9/bits/stl_construct.h
FN:74,_ZSt10_ConstructISt6vectorIS0_IiSaIiEESaIS2_EEJS4_EEvPT_DpOT0_
FNDA:0,_ZSt10_ConstructISt6vectorIS0_IiSaIiEESaIS2_EEJS4_EEvPT_DpOT0_
FN:74,_ZSt10_ConstructISt6vectorIiSaIiEEJS2_EEvPT_DpOT0_
FNDA:0,_ZSt10_ConstructISt6vectorIiSaIiEEJS2_EEvPT_DpOT0_
FN:74,_ZSt10_ConstructISt6vectorIiSaIiEEJRS2_EEvPT_DpOT0_
FNDA:0,_ZSt10_ConstructISt6vectorIiSaIiEEJRS2_EEvPT_DpOT0_
FN:74,_ZSt10_ConstructISt6vectorIiSaIiEEJRKS2_EEvPT_DpOT0_
FNDA:0,_ZSt10_ConstructISt6vectorIiSaIiEEJRKS2_EEvPT_DpOT0_
FN:97,_ZSt8_DestroyISt6vectorIS0_IiSaIiEESaIS2_EEEvPT_
FNDA:0,_ZSt8_DestroyISt6vectorIS0_IiSaIiEESaIS2_EEEvPT_
FN:97,_ZSt8_DestroyISt6vectorIiSaIiEEEvPT_
FNDA:0,_ZSt8_DestroyISt6vectorIiSaIiEEEvPT_
FN:105,_ZNSt12_Destroy_auxILb0EE9__destroyIPSt6vectorIS2_IiSaIiEESaIS4_EEEEvT_S8_
FNDA:0,_ZNSt12_Destroy_auxILb0EE9__destroyIPSt6vectorIS2_IiSaIiEESaIS4_EEEEvT_S8_
FN:105,_ZNSt12_Destroy_auxILb0EE9__destroyIN9__gnu_cxx17__normal_iteratorIPSt6vectorIiSaIiEES4_IS6_SaIS6_EEEEEEvT_SB_
FNDA:0,_ZNSt12_Destroy_auxILb0EE9__destroyIN9__gnu_cxx17__normal_iteratorIPSt6vectorIiSaIiEES4_IS6_SaIS6_EEEEEEvT_SB_
FN:105,_ZNSt12_Destroy_auxILb0EE9__destroyIPSt6vectorIiSaIiEEEEvT_S6_
FNDA:0,_ZNSt12_Destroy_auxILb0EE9__destroyIPSt6vectorIiSaIiEEEEvT_S6_
FN:117,_ZNSt12_Destroy_auxILb1EE9__destroyIN9__gnu_cxx17__normal_iteratorIPiSt6vectorIiSaIiEEEEEEvT_S9_
FNDA:0,_ZNSt12_Destroy_auxILb1EE9__destroyIN9__gnu_cxx17__normal_iteratorIPiSt6vectorIiSaIiEEEEEEvT_S9_
FN:117,_ZNSt12_Destroy_auxILb1EE9__destroyIPiEEvT_S3_
FNDA:0,_ZNSt12_Destroy_auxILb1EE9__destroyIPiEEvT_S3_
FN:127,_ZSt8_DestroyIN9__gnu_cxx17__normal_iteratorIPiSt6vectorIiSaIiEEEEEvT_S7_
FNDA:0,_ZSt8_DestroyIN9__gnu_cxx17__normal_iteratorIPiSt6vectorIiSaIiEEEEEvT_S7_
FN:127,_ZSt8_DestroyIPiEvT_S1_
FNDA:0,_ZSt8_DestroyIPiEvT_S1_
FN:127,_ZSt8_DestroyIPSt6vectorIiSaIiEEEvT_S4_
FNDA:0,_ZSt8_DestroyIPSt6vectorIiSaIiEEEvT_S4_
FN:127,_ZSt8_DestroyIN9__gnu_cxx17__normal_iteratorIPSt6vectorIiSaIiEES2_IS4_SaIS4_EEEEEvT_S9_
FNDA:0,_ZSt8_DestroyIN9__gnu_cxx17__normal_iteratorIPSt6vectorIiSaIiEES2_IS4_SaIS4_EEEEEvT_S9_
FN:127,_ZSt8_DestroyIPSt6vectorIS0_IiSaIiEESaIS2_EEEvT_S6_
FNDA:0,_ZSt8_DestroyIPSt6vectorIS0_IiSaIiEESaIS2_EEEvT_S6_
FN:203,_ZSt8_DestroyIN9__gnu_cxx17__normal_iteratorIPiSt6vectorIiSaIiEEEEiEvT_S7_RSaIT0_E
FNDA:0,_ZSt8_DestroyIN9__gnu_cxx17__normal_iteratorIPiSt6vectorIiSaIiEEEEiEvT_S7_RSaIT0_E
FN:203,_ZSt8_DestroyIPSt6vectorIS0_IiSaIiEESaIS2_EES4_EvT_S6_RSaIT0_E
FNDA:0,_ZSt8_DestroyIPSt6vectorIS0_IiSaIiEESaIS2_EES4_EvT_S6_RSaIT0_E
FN:203,_ZSt8_DestroyIN9__gnu_cxx17__normal_iteratorIPSt6vectorIiSaIiEES2_IS4_SaIS4_EEEES4_EvT_S9_RSaIT0_E
FNDA:0,_ZSt8_DestroyIN9__gnu_cxx17__normal_iteratorIPSt6vectorIiSaIiEES2_IS4_SaIS4_EEEES4_EvT_S9_RSaIT0_E
FN:203,_ZSt8_DestroyIPSt6vectorIiSaIiEES2_EvT_S4_RSaIT0_E
FNDA:0,_ZSt8_DestroyIPSt6vectorIiSaIiEES2_EvT_S4_RSaIT0_E
FN:203,_ZSt8_DestroyIPiiEvT_S1_RSaIT0_E
FNDA:0,_ZSt8_DestroyIPiiEvT_S1_RSaIT0_E
DA:74,0
DA:75,0
DA:74,0
DA:75,0
DA:74,0
DA:75,0
DA:74,0
DA:75,0
DA:97,0
DA:98,0
DA:97,0
DA:98,0
DA:105,0
DA:107,0
DA:108,0
DA:109,0
DA:105,0
DA:107,0
DA:108,0
DA:109,0
DA:105,0
DA:107,0
DA:108,0
DA:109,0
DA:117,0
DA:117,0
DA:127,0
DA:137,0
DA:138,0
DA:127,0
DA:137,0
DA:138,0
DA:127,0
DA:137,0
DA:138,0
DA:127,0
DA:137,0
DA:138,0
DA:127,0
DA:137,0
DA:138,0
DA:203,0
DA:206,0
DA:207,0
DA:203,0
DA:206,0
DA:207,0
DA:203,0
DA:206,0
DA:207,0
DA:203,0
DA:206,0
DA:207,0
DA:203,0
DA:206,0
DA:207,0
end_of_record
SF:/usr/include/c++/9/ext/new_allocator.h
FN:80,_ZN9__gnu_cxx13new_allocatorIiEC2Ev
FNDA:0,_ZN9__gnu_cxx13new_allocatorIiEC2Ev
FN:80,_ZN9__gnu_cxx13new_allocatorISt6vectorIiSaIiEEEC2Ev
FNDA:0,_ZN9__gnu_cxx13new_allocatorISt6vectorIiSaIiEEEC2Ev
FN:80,_ZN9__gnu_cxx13new_allocatorISt6vectorIS1_IiSaIiEESaIS3_EEEC2Ev
FNDA:0,_ZN9__gnu_cxx13new_allocatorISt6vectorIS1_IiSaIiEESaIS3_EEEC2Ev
FN:83,_ZN9__gnu_cxx13new_allocatorISt6vectorIiSaIiEEEC2ERKS4_
FNDA:0,_ZN9__gnu_cxx13new_allocatorISt6vectorIiSaIiEEEC2ERKS4_
FN:83,_ZN9__gnu_cxx13new_allocatorIiEC2ERKS1_
FNDA:0,_ZN9__gnu_cxx13new_allocatorIiEC2ERKS1_
FN:89,_ZN9__gnu_cxx13new_allocatorIiED2Ev
FNDA:0,_ZN9__gnu_cxx13new_allocatorIiED2Ev
FN:89,_ZN9__gnu_cxx13new_allocatorISt6vectorIiSaIiEEED2Ev
FNDA:0,_ZN9__gnu_cxx13new_allocatorISt6vectorIiSaIiEEED2Ev
FN:89,_ZN9__gnu_cxx13new_allocatorISt6vectorIS1_IiSaIiEESaIS3_EEED2Ev
FNDA:0,_ZN9__gnu_cxx13new_allocatorISt6vectorIS1_IiSaIiEESaIS3_EEED2Ev
FN:102,_ZN9__gnu_cxx13new_allocatorISt6vectorIS1_IiSaIiEESaIS3_EEE8allocateEmPKv
FNDA:0,_ZN9__gnu_cxx13new_allocatorISt6vectorIS1_IiSaIiEESaIS3_EEE8allocateEmPKv
FN:102,_ZN9__gnu_cxx13new_allocatorIiE8allocateEmPKv
FNDA:0,_ZN9__gnu_cxx13new_allocatorIiE8allocateEmPKv
FN:102,_ZN9__gnu_cxx13new_allocatorISt6vectorIiSaIiEEE8allocateEmPKv
FNDA:0,_ZN9__gnu_cxx13new_allocatorISt6vectorIiSaIiEEE8allocateEmPKv
FN:119,_ZN9__gnu_cxx13new_allocatorISt6vectorIS1_IiSaIiEESaIS3_EEE10deallocateEPS5_m
FNDA:0,_ZN9__gnu_cxx13new_allocatorISt6vectorIS1_IiSaIiEESaIS3_EEE10deallocateEPS5_m
FN:119,_ZN9__gnu_cxx13new_allocatorIiE10deallocateEPim
FNDA:0,_ZN9__gnu_cxx13new_allocatorIiE10deallocateEPim
FN:119,_ZN9__gnu_cxx13new_allocatorISt6vectorIiSaIiEEE10deallocateEPS3_m
FNDA:0,_ZN9__gnu_cxx13new_allocatorISt6vectorIiSaIiEEE10deallocateEPS3_m
FN:132,_ZNK9__gnu_cxx13new_allocatorISt6vectorIS1_IiSaIiEESaIS3_EEE8max_sizeEv
FNDA:0,_ZNK9__gnu_cxx13new_allocatorISt6vectorIS1_IiSaIiEESaIS3_EEE8max_sizeEv
FN:132,_ZNK9__gnu_cxx13new_allocatorIiE8max_sizeEv
FNDA:0,_ZNK9__gnu_cxx13new_allocatorIiE8max_sizeEv
FN:132,_ZNK9__gnu_cxx13new_allocatorISt6vectorIiSaIiEEE8max_sizeEv
FNDA:0,_ZNK9__gnu_cxx13new_allocatorISt6vectorIiSaIiEEE8max_sizeEv
FN:144,_ZN9__gnu_cxx13new_allocatorIiE9constructIiJRKiEEEvPT_DpOT0_
FNDA:63,_ZN9__gnu_cxx13new_allocatorIiE9constructIiJRKiEEEvPT_DpOT0_
FN:144,_ZN9__gnu_cxx13new_allocatorISt6vectorIS1_IiSaIiEESaIS3_EEE9constructIS5_JRKS5_EEEvPT_DpOT0_
FNDA:0,_ZN9__gnu_cxx13new_allocatorISt6vectorIS1_IiSaIiEESaIS3_EEE9constructIS5_JRKS5_EEEvPT_DpOT0_
FN:144,_ZN9__gnu_cxx13new_allocatorISt6vectorIiSaIiEEE9constructIS3_JS3_EEEvPT_DpOT0_
FNDA:0,_ZN9__gnu_cxx13new_allocatorISt6vectorIiSaIiEEE9constructIS3_JS3_EEEvPT_DpOT0_
FN:144,_ZN9__gnu_cxx13new_allocatorISt6vectorIiSaIiEEE9constructIS3_JRKS3_EEEvPT_DpOT0_
FNDA:1037,_ZN9__gnu_cxx13new_allocatorISt6vectorIiSaIiEEE9constructIS3_JRKS3_EEEvPT_DpOT0_
FN:144,_ZN9__gnu_cxx13new_allocatorISt6vectorIS1_IiSaIiEESaIS3_EEE9constructIS5_JS5_EEEvPT_DpOT0_
FNDA:0,_ZN9__gnu_cxx13new_allocatorISt6vectorIS1_IiSaIiEESaIS3_EEE9constructIS5_JS5_EEEvPT_DpOT0_
FN:151,_ZN9__gnu_cxx13new_allocatorISt6vectorIiSaIiEEE7destroyIS3_EEvPT_
FNDA:0,_ZN9__gnu_cxx13new_allocatorISt6vectorIiSaIiEEE7destroyIS3_EEvPT_
FN:151,_ZN9__gnu_cxx13new_allocatorIiE7destroyIiEEvPT_
FNDA:0,_ZN9__gnu_cxx13new_allocatorIiE7destroyIiEEvPT_
FN:151,_ZN9__gnu_cxx13new_allocatorISt6vectorIS1_IiSaIiEESaIS3_EEE7destroyIS5_EEvPT_
FNDA:0,_ZN9__gnu_cxx13new_allocatorISt6vectorIS1_IiSaIiEESaIS3_EEE7destroyIS5_EEvPT_
DA:80,0
DA:80,0
DA:80,0
DA:83,0
DA:83,0
DA:89,0
DA:89,0
DA:89,0
DA:102,0
DA:104,0
DA:105,0
DA:114,0
DA:102,0
DA:104,0
DA:105,0
DA:114,0
DA:102,0
DA:104,0
DA:105,0
DA:114,0
DA:119,0
DA:128,0
DA:129,0
DA:119,0
DA:128,0
DA:129,0
DA:119,0
DA:128,0
DA:129,0
DA:132,0
DA:135,0
DA:132,0
DA:135,0
DA:132,0
DA:135,0
DA:144,0
DA:147,0
DA:144,0
DA:147,0
DA:144,0
DA:147,0
DA:144,63
DA:147,63
DA:144,1037
DA:147,1037
DA:151,0
DA:153,0
DA:151,0
DA:153,0
DA:151,0
DA:153,0
end_of_record
SF:/usr/include/c++/9/initializer_list
FN:71,_ZNKSt16initializer_listISt6vectorIiSaIiEEE4sizeEv
FNDA:205,_ZNKSt16initializer_listISt6vectorIiSaIiEEE4sizeEv
FN:71,_ZNKSt16initializer_listIiE4sizeEv
FNDA:0,_ZNKSt16initializer_listIiE4sizeEv
FN:75,_ZNKSt16initializer_listISt6vectorIiSaIiEEE5beginEv
FNDA:410,_ZNKSt16initializer_listISt6vectorIiSaIiEEE5beginEv
FN:75,_ZNKSt16initializer_listIiE5beginEv
FNDA:0,_ZNKSt16initializer_listIiE5beginEv
FN:79,_ZNKSt16initializer_listISt6vectorIiSaIiEEE3endEv
FNDA:205,_ZNKSt16initializer_listISt6vectorIiSaIiEEE3endEv
FN:79,_ZNKSt16initializer_listIiE3endEv
FNDA:0,_ZNKSt16initializer_listIiE3endEv
DA:71,205
DA:71,0
DA:75,410
DA:75,0
DA:79,205
DA:79,0
end_of_record
SF:/usr/include/c++/9/bits/stl_iterator_base_types.h
FN:205,_ZSt19__iterator_categoryIPKSt6vectorIiSaIiEEENSt15iterator_traitsIT_E17iterator_categoryERKS6_
FNDA:205,_ZSt19__iterator_categoryIPKSt6vectorIiSaIiEEENSt15iterator_traitsIT_E17iterator_categoryERKS6_
FN:205,_ZSt19__iterator_categoryIPKiENSt15iterator_traitsIT_E17iterator_categoryERKS3_
FNDA:0,_ZSt19__iterator_categoryIPKiENSt15iterator_traitsIT_E17iterator_categoryERKS3_
DA:205,205
DA:206,205
DA:205,0
DA:206,0
end_of_record
SF:/usr/include/c++/9/ext/alloc_traits.h
FN:97,_ZN9__gnu_cxx14__alloc_traitsISaIiEiE17_S_select_on_copyERKS1_
FNDA:0,_ZN9__gnu_cxx14__alloc_traitsISaIiEiE17_S_select_on_copyERKS1_
FN:97,_ZN9__gnu_cxx14__alloc_traitsISaISt6vectorIiSaIiEEES3_E17_S_select_on_copyERKS4_
FNDA:0,_ZN9__gnu_cxx14__alloc_traitsISaISt6vectorIiSaIiEEES3_E17_S_select_on_copyERKS4_
FN:103,_ZN9__gnu_cxx14__alloc_traitsISaIiEiE27_S_propagate_on_copy_assignEv
FNDA:0,_ZN9__gnu_cxx14__alloc_traitsISaIiEiE27_S_propagate_on_copy_assignEv
FN:103,_ZN9__gnu_cxx14__alloc_traitsISaISt6vectorIiSaIiEEES3_E27_S_propagate_on_copy_assignEv
FNDA:172,_ZN9__gnu_cxx14__alloc_traitsISaISt6vectorIiSaIiEEES3_E27_S_propagate_on_copy_assignEv
FN:112,_ZN9__gnu_cxx14__alloc_traitsISaIiEiE15_S_always_equalEv
FNDA:0,_ZN9__gnu_cxx14__alloc_traitsISaIiEiE15_S_always_equalEv
FN:112,_ZN9__gnu_cxx14__alloc_traitsISaISt6vectorIiSaIiEEES3_E15_S_always_equalEv
FNDA:0,_ZN9__gnu_cxx14__alloc_traitsISaISt6vectorIiSaIiEEES3_E15_S_always_equalEv
DA:97,0
DA:98,0
DA:97,0
DA:98,0
DA:103,0
DA:104,0
DA:103,172
DA:104,172
DA:112,0
DA:113,0
DA:112,0
DA:113,0
end_of_record
SF:/usr/include/c++/9/bits/move.h
FN:47,_ZSt11__addressofISt6vectorIS0_IiSaIiEESaIS2_EEEPT_RS5_
FNDA:0,_ZSt11__addressofISt6vectorIS0_IiSaIiEESaIS2_EEEPT_RS5_
FN:47,_ZSt11__addressofISt6vectorIiSaIiEEEPT_RS3_
FNDA:0,_ZSt11__addressofISt6vectorIiSaIiEEEPT_RS3_
FN:74,_ZSt7forwardIRSt6vectorIiSaIiEEEOT_RNSt16remove_referenceIS4_E4typeE
FNDA:0,_ZSt7forwardIRSt6vectorIiSaIiEEEOT_RNSt16remove_referenceIS4_E4typeE
FN:74,_ZSt7forwardIRKSt6vectorIS0_IiSaIiEESaIS2_EEEOT_RNSt16remove_referenceIS7_E4typeE
FNDA:0,_ZSt7forwardIRKSt6vectorIS0_IiSaIiEESaIS2_EEEOT_RNSt16remove_referenceIS7_E4typeE
FN:74,_ZSt7forwardIRKiEOT_RNSt16remove_referenceIS2_E4typeE
FNDA:156,_ZSt7forwardIRKiEOT_RNSt16remove_referenceIS2_E4typeE
FN:74,_ZSt7forwardISt6vectorIS0_IiSaIiEESaIS2_EEEOT_RNSt16remove_referenceIS5_E4typeE
FNDA:0,_ZSt7forwardISt6vectorIS0_IiSaIiEESaIS2_EEEOT_RNSt16remove_referenceIS5_E4typeE
FN:74,_ZSt7forwardISt6vectorIiSaIiEEEOT_RNSt16remove_referenceIS3_E4typeE
FNDA:0,_ZSt7forwardISt6vectorIiSaIiEEEOT_RNSt16remove_referenceIS3_E4typeE
FN:74,_ZSt7forwardIRKSt6vectorIiSaIiEEEOT_RNSt16remove_referenceIS5_E4typeE
FNDA:0,_ZSt7forwardIRKSt6vectorIiSaIiEEEOT_RNSt16remove_referenceIS5_E4typeE
FN:74,_ZSt7forwardIRSt6vectorIS0_IiSaIiEESaIS2_EEEOT_RNSt16remove_referenceIS6_E4typeE
FNDA:325,_ZSt7forwardIRSt6vectorIS0_IiSaIiEESaIS2_EEEOT_RNSt16remove_referenceIS6_E4typeE
FN:74,_ZSt7forwardIRiEOT_RNSt16remove_referenceIS1_E4typeE
FNDA:260,_ZSt7forwardIRiEOT_RNSt16remove_referenceIS1_E4typeE
FN:99,_ZSt4moveIRSaISt6vectorIiSaIiEEEEONSt16remove_referenceIT_E4typeEOS6_
FNDA:0,_ZSt4moveIRSaISt6vectorIiSaIiEEEEONSt16remove_referenceIT_E4typeEOS6_
FN:99,_ZSt4moveIRNSt12_Vector_baseIiSaIiEE12_Vector_implEEONSt16remove_referenceIT_E4typeEOS6_
FNDA:0,_ZSt4moveIRNSt12_Vector_baseIiSaIiEE12_Vector_implEEONSt16remove_referenceIT_E4typeEOS6_
FN:99,_ZSt4moveIRSt6vectorIS0_IiSaIiEESaIS2_EEEONSt16remove_referenceIT_E4typeEOS7_
FNDA:0,_ZSt4moveIRSt6vectorIS0_IiSaIiEESaIS2_EEEONSt16remove_referenceIT_E4typeEOS7_
FN:99,_ZSt4moveIRNSt12_Vector_baseISt6vectorIiSaIiEESaIS3_EE12_Vector_implEEONSt16remove_referenceIT_E4typeEOS9_
FNDA:0,_ZSt4moveIRNSt12_Vector_baseISt6vectorIiSaIiEESaIS3_EE12_Vector_implEEONSt16remove_referenceIT_E4typeEOS9_
FN:99,_ZSt4moveIRSt6vectorIiSaIiEEEONSt16remove_referenceIT_E4typeEOS5_
FNDA:0,_ZSt4moveIRSt6vectorIiSaIiEEEONSt16remove_referenceIT_E4typeEOS5_
DA:47,0
DA:48,0
DA:47,0
DA:48,0
DA:74,0
DA:75,0
DA:74,0
DA:75,0
DA:74,156
DA:75,156
DA:74,0
DA:75,0
DA:74,0
DA:75,0
DA:74,0
DA:75,0
DA:74,325
DA:75,325
DA:74,260
DA:75,260
DA:99,0
DA:100,0
DA:99,0
DA:100,0
DA:99,0
DA:100,0
DA:99,0
DA:100,0
DA:99,0
DA:100,0
end_of_record
SF:/usr/include/c++/9/tuple
FN:132,_ZNSt10_Head_baseILm1ESt6vectorIS0_IiSaIiEESaIS2_EELb0EEC2IRS4_EEOT_
FNDA:65,_ZNSt10_Head_baseILm1ESt6vectorIS0_IiSaIiEESaIS2_EELb0EEC2IRS4_EEOT_
FN:132,_ZNSt10_Head_baseILm0EiLb0EEC2IRiEEOT_
FNDA:65,_ZNSt10_Head_baseILm0EiLb0EEC2IRiEEOT_
FN:216,_ZNSt11_Tuple_implILm0EJiSt6vectorIS0_IiSaIiEESaIS2_EEEEC2IRiJRS4_EvEEOT_DpOT0_
FNDA:65,_ZNSt11_Tuple_implILm0EJiSt6vectorIS0_IiSaIiEESaIS2_EEEEC2IRiJRS4_EvEEOT_DpOT0_
FN:348,_ZNSt11_Tuple_implILm1EJSt6vectorIS0_IiSaIiEESaIS2_EEEEC2IRS4_EEOT_
FNDA:65,_ZNSt11_Tuple_implILm1EJSt6vectorIS0_IiSaIiEESaIS2_EEEEC2IRS4_EEOT_
FN:968,_ZNSt5tupleIJiSt6vectorIS0_IiSaIiEESaIS2_EEEEC2IRiRS4_Lb1EEEOT_OT0_
FNDA:65,_ZNSt5tupleIJiSt6vectorIS0_IiSaIiEESaIS2_EEEEC2IRiRS4_Lb1EEEOT_OT0_
FN:1470,_ZSt10make_tupleIJRiRSt6vectorIS1_IiSaIiEESaIS3_EEEESt5tupleIJDpNSt17__decay_and_stripIT_E6__typeEEEDpOS9_
FNDA:65,_ZSt10make_tupleIJRiRSt6vectorIS1_IiSaIiEESaIS3_EEEESt5tupleIJDpNSt17__decay_and_stripIT_E6__typeEEEDpOS9_
DA:132,65
DA:133,65
DA:132,65
DA:133,65
DA:216,65
DA:218,65
DA:348,65
DA:349,65
DA:968,65
DA:969,65
DA:1470,65
DA:1474,65
end_of_record
SF:/usr/include/c++/9/bits/stl_vector.h
FN:94,_ZNSt12_Vector_baseISt6vectorIiSaIiEESaIS2_EE17_Vector_impl_dataC2Ev
FNDA:0,_ZNSt12_Vector_baseISt6vectorIiSaIiEESaIS2_EE17_Vector_impl_dataC2Ev
FN:94,_ZNSt12_Vector_baseISt6vectorIS0_IiSaIiEESaIS2_EESaIS4_EE17_Vector_impl_dataC2Ev
FNDA:0,_ZNSt12_Vector_baseISt6vectorIS0_IiSaIiEESaIS2_EESaIS4_EE17_Vector_impl_dataC2Ev
FN:94,_ZNSt12_Vector_baseIiSaIiEE17_Vector_impl_dataC2Ev
FNDA:0,_ZNSt12_Vector_baseIiSaIiEE17_Vector_impl_dataC2Ev
FN:99,_ZNSt12_Vector_baseISt6vectorIiSaIiEESaIS2_EE17_Vector_impl_dataC2EOS5_
FNDA:0,_ZNSt12_Vector_baseISt6vectorIiSaIiEESaIS2_EE17_Vector_impl_dataC2EOS5_
FN:99,_ZNSt12_Vector_baseIiSaIiEE17_Vector_impl_dataC2EOS2_
FNDA:0,_ZNSt12_Vector_baseIiSaIiEE17_Vector_impl_dataC2EOS2_
FN:106,_ZNSt12_Vector_baseISt6vectorIiSaIiEESaIS2_EE17_Vector_impl_data12_M_copy_dataERKS5_
FNDA:0,_ZNSt12_Vector_baseISt6vectorIiSaIiEESaIS2_EE17_Vector_impl_data12_M_copy_dataERKS5_
FN:114,_ZNSt12_Vector_baseISt6vectorIiSaIiEESaIS2_EE17_Vector_impl_data12_M_swap_dataERS5_
FNDA:0,_ZNSt12_Vector_baseISt6vectorIiSaIiEESaIS2_EE17_Vector_impl_data12_M_swap_dataERS5_
FN:128,_ZNSt12_Vector_baseISt6vectorIiSaIiEESaIS2_EE12_Vector_implC2Ev
FNDA:0,_ZNSt12_Vector_baseISt6vectorIiSaIiEESaIS2_EE12_Vector_implC2Ev
FN:128,_ZNSt12_Vector_baseIiSaIiEE12_Vector_implC2Ev
FNDA:22,_ZNSt12_Vector_baseIiSaIiEE12_Vector_implC2Ev
FN:128,_ZNSt12_Vector_baseISt6vectorIS0_IiSaIiEESaIS2_EESaIS4_EE12_Vector_implC2Ev
FNDA:0,_ZNSt12_Vector_baseISt6vectorIS0_IiSaIiEESaIS2_EESaIS4_EE12_Vector_implC2Ev
FN:133,_ZNSt12_Vector_baseISt6vectorIiSaIiEESaIS2_EE12_Vector_implC2ERKS3_
FNDA:0,_ZNSt12_Vector_baseISt6vectorIiSaIiEESaIS2_EE12_Vector_implC2ERKS3_
FN:133,_ZNSt12_Vector_baseIiSaIiEE12_Vector_implC2ERKS0_
FNDA:0,_ZNSt12_Vector_baseIiSaIiEE12_Vector_implC2ERKS0_
FN:140,_ZNSt12_Vector_baseISt6vectorIiSaIiEESaIS2_EE12_Vector_implC2EOS5_
FNDA:0,_ZNSt12_Vector_baseISt6vectorIiSaIiEESaIS2_EE12_Vector_implC2EOS5_
FN:140,_ZNSt12_Vector_baseIiSaIiEE12_Vector_implC2EOS2_
FNDA:0,_ZNSt12_Vector_baseIiSaIiEE12_Vector_implC2EOS2_
FN:273,_ZNSt12_Vector_baseISt6vectorIS0_IiSaIiEESaIS2_EESaIS4_EE19_M_get_Tp_allocatorEv
FNDA:0,_ZNSt12_Vector_baseISt6vectorIS0_IiSaIiEESaIS2_EESaIS4_EE19_M_get_Tp_allocatorEv
FN:273,_ZNSt12_Vector_baseIiSaIiEE19_M_get_Tp_allocatorEv
FNDA:0,_ZNSt12_Vector_baseIiSaIiEE19_M_get_Tp_allocatorEv
FN:273,_ZNSt12_Vector_baseISt6vectorIiSaIiEESaIS2_EE19_M_get_Tp_allocatorEv
FNDA:0,_ZNSt12_Vector_baseISt6vectorIiSaIiEESaIS2_EE19_M_get_Tp_allocatorEv
FN:277,_ZNKSt12_Vector_baseISt6vectorIS0_IiSaIiEESaIS2_EESaIS4_EE19_M_get_Tp_allocatorEv
FNDA:0,_ZNKSt12_Vector_baseISt6vectorIS0_IiSaIiEESaIS2_EESaIS4_EE19_M_get_Tp_allocatorEv
FN:277,_ZNKSt12_Vector_baseISt6vectorIiSaIiEESaIS2_EE19_M_get_Tp_allocatorEv
FNDA:0,_ZNKSt12_Vector_baseISt6vectorIiSaIiEESaIS2_EE19_M_get_Tp_allocatorEv
FN:277,_ZNKSt12_Vector_baseIiSaIiEE19_M_get_Tp_allocatorEv
FNDA:0,_ZNKSt12_Vector_baseIiSaIiEE19_M_get_Tp_allocatorEv
FN:281,_ZNKSt12_Vector_baseISt6vectorIiSaIiEESaIS2_EE13get_allocatorEv
FNDA:0,_ZNKSt12_Vector_baseISt6vectorIiSaIiEESaIS2_EE13get_allocatorEv
FN:285,_ZNSt12_Vector_baseISt6vectorIiSaIiEESaIS2_EEC2Ev
FNDA:0,_ZNSt12_Vector_baseISt6vectorIiSaIiEESaIS2_EEC2Ev
FN:285,_ZNSt12_Vector_baseIiSaIiEEC2Ev
FNDA:22,_ZNSt12_Vector_baseIiSaIiEEC2Ev
FN:285,_ZNSt12_Vector_baseISt6vectorIS0_IiSaIiEESaIS2_EESaIS4_EEC2Ev
FNDA:0,_ZNSt12_Vector_baseISt6vectorIS0_IiSaIiEESaIS2_EESaIS4_EEC2Ev
FN:290,_ZNSt12_Vector_baseISt6vectorIiSaIiEESaIS2_EEC2ERKS3_
FNDA:0,_ZNSt12_Vector_baseISt6vectorIiSaIiEESaIS2_EEC2ERKS3_
FN:290,_ZNSt12_Vector_baseIiSaIiEEC2ERKS0_
FNDA:0,_ZNSt12_Vector_baseIiSaIiEEC2ERKS0_
FN:300,_ZNSt12_Vector_baseIiSaIiEEC2EmRKS0_
FNDA:0,_ZNSt12_Vector_baseIiSaIiEEC2EmRKS0_
FN:300,_ZNSt12_Vector_baseISt6vectorIiSaIiEESaIS2_EEC2EmRKS3_
FNDA:0,_ZNSt12_Vector_baseISt6vectorIiSaIiEESaIS2_EEC2EmRKS3_
FN:305,_ZNSt12_Vector_baseIiSaIiEEC2EOS1_
FNDA:0,_ZNSt12_Vector_baseIiSaIiEEC2EOS1_
FN:305,_ZNSt12_Vector_baseISt6vectorIiSaIiEESaIS2_EEC2EOS4_
FNDA:0,_ZNSt12_Vector_baseISt6vectorIiSaIiEESaIS2_EEC2EOS4_
FN:330,_ZNSt12_Vector_baseIiSaIiEED2Ev
FNDA:0,_ZNSt12_Vector_baseIiSaIiEED2Ev
FN:330,_ZNSt12_Vector_baseISt6vectorIiSaIiEESaIS2_EED2Ev
FNDA:0,_ZNSt12_Vector_baseISt6vectorIiSaIiEESaIS2_EED2Ev
FN:330,_ZNSt12_Vector_baseISt6vectorIS0_IiSaIiEESaIS2_EESaIS4_EED2Ev
FNDA:0,_ZNSt12_Vector_baseISt6vectorIS0_IiSaIiEESaIS2_EESaIS4_EED2Ev
FN:340,_ZNSt12_Vector_baseIiSaIiEE11_M_allocateEm
FNDA:0,_ZNSt12_Vector_baseIiSaIiEE11_M_allocateEm
FN:340,_ZNSt12_Vector_baseISt6vectorIiSaIiEESaIS2_EE11_M_allocateEm
FNDA:0,_ZNSt12_Vector_baseISt6vectorIiSaIiEESaIS2_EE11_M_allocateEm
FN:340,_ZNSt12_Vector_baseISt6vectorIS0_IiSaIiEESaIS2_EESaIS4_EE11_M_allocateEm
FNDA:0,_ZNSt12_Vector_baseISt6vectorIS0_IiSaIiEESaIS2_EESaIS4_EE11_M_allocateEm
FN:347,_ZNSt12_Vector_baseISt6vectorIiSaIiEESaIS2_EE13_M_deallocateEPS2_m
FNDA:0,_ZNSt12_Vector_baseISt6vectorIiSaIiEESaIS2_EE13_M_deallocateEPS2_m
FN:347,_ZNSt12_Vector_baseISt6vectorIS0_IiSaIiEESaIS2_EESaIS4_EE13_M_deallocateEPS4_m
FNDA:0,_ZNSt12_Vector_baseISt6vectorIS0_IiSaIiEESaIS2_EESaIS4_EE13_M_deallocateEPS4_m
FN:347,_ZNSt12_Vector_baseIiSaIiEE13_M_deallocateEPim
FNDA:0,_ZNSt12_Vector_baseIiSaIiEE13_M_deallocateEPim
FN:356,_ZNSt12_Vector_baseISt6vectorIiSaIiEESaIS2_EE17_M_create_storageEm
FNDA:0,_ZNSt12_Vector_baseISt6vectorIiSaIiEESaIS2_EE17_M_create_storageEm
FN:356,_ZNSt12_Vector_baseIiSaIiEE17_M_create_storageEm
FNDA:0,_ZNSt12_Vector_baseIiSaIiEE17_M_create_storageEm
FN:428,_ZNSt6vectorIS_IiSaIiEESaIS1_EE19_S_nothrow_relocateESt17integral_constantIbLb1EE
FNDA:0,_ZNSt6vectorIS_IiSaIiEESaIS1_EE19_S_nothrow_relocateESt17integral_constantIbLb1EE
FN:428,_ZNSt6vectorIS_IS_IiSaIiEESaIS1_EESaIS3_EE19_S_nothrow_relocateESt17integral_constantIbLb1EE
FNDA:0,_ZNSt6vectorIS_IS_IiSaIiEESaIS1_EESaIS3_EE19_S_nothrow_relocateESt17integral_constantIbLb1EE
FN:428,_ZNSt6vectorIiSaIiEE19_S_nothrow_relocateESt17integral_constantIbLb1EE
FNDA:120,_ZNSt6vectorIiSaIiEE19_S_nothrow_relocateESt17integral_constantIbLb1EE
FN:441,_ZNSt6vectorIiSaIiEE15_S_use_relocateEv
FNDA:120,_ZNSt6vectorIiSaIiEE15_S_use_relocateEv
FN:441,_ZNSt6vectorIS_IiSaIiEESaIS1_EE15_S_use_relocateEv
FNDA:0,_ZNSt6vectorIS_IiSaIiEESaIS1_EE15_S_use_relocateEv
FN:441,_ZNSt6vectorIS_IS_IiSaIiEESaIS1_EESaIS3_EE15_S_use_relocateEv
FNDA:0,_ZNSt6vectorIS_IS_IiSaIiEESaIS1_EESaIS3_EE15_S_use_relocateEv
FN:450,_ZNSt6vectorIiSaIiEE14_S_do_relocateEPiS2_S2_RS0_St17integral_constantIbLb1EE
FNDA:120,_ZNSt6vectorIiSaIiEE14_S_do_relocateEPiS2_S2_RS0_St17integral_constantIbLb1EE
FN:450,_ZNSt6vectorIS_IS_IiSaIiEESaIS1_EESaIS3_EE14_S_do_relocateEPS3_S6_S6_RS4_St17integral_constantIbLb1EE
FNDA:0,_ZNSt6vectorIS_IS_IiSaIiEESaIS1_EESaIS3_EE14_S_do_relocateEPS3_S6_S6_RS4_St17integral_constantIbLb1EE
FN:450,_ZNSt6vectorIS_IiSaIiEESaIS1_EE14_S_do_relocateEPS1_S4_S4_RS2_St17integral_constantIbLb1EE
FNDA:0,_ZNSt6vectorIS_IiSaIiEESaIS1_EE14_S_do_relocateEPS1_S4_S4_RS2_St17integral_constantIbLb1EE
FN:462,_ZNSt6vectorIS_IiSaIiEESaIS1_EE11_S_relocateEPS1_S4_S4_RS2_
FNDA:0,_ZNSt6vectorIS_IiSaIiEESaIS1_EE11_S_relocateEPS1_S4_S4_RS2_
FN:462,_ZNSt6vectorIiSaIiEE11_S_relocateEPiS2_S2_RS0_
FNDA:120,_ZNSt6vectorIiSaIiEE11_S_relocateEPiS2_S2_RS0_
FN:462,_ZNSt6vectorIS_IS_IiSaIiEESaIS1_EESaIS3_EE11_S_relocateEPS3_S6_S6_RS4_
FNDA:0,_ZNSt6vectorIS_IS_IiSaIiEESaIS1_EESaIS3_EE11_S_relocateEPS3_S6_S6_RS4_
FN:484,_ZNSt6vectorIiSaIiEEC2Ev
FNDA:22,_ZNSt6vectorIiSaIiEEC2Ev
FN:484,_ZNSt6vectorIS_IiSaIiEESaIS1_EEC2Ev
FNDA:0,_ZNSt6vectorIS_IiSaIiEESaIS1_EEC2Ev
FN:484,_ZNSt6vectorIS_IS_IiSaIiEESaIS1_EESaIS3_EEC2Ev
FNDA:0,_ZNSt6vectorIS_IS_IiSaIiEESaIS1_EESaIS3_EEC2Ev
FN:494,_ZNSt6vectorIS_IiSaIiEESaIS1_EEC2ERKS2_
FNDA:0,_ZNSt6vectorIS_IiSaIiEESaIS1_EEC2ERKS2_
FN:507,_ZNSt6vectorIiSaIiEEC2EmRKS0_
FNDA:4,_ZNSt6vectorIiSaIiEEC2EmRKS0_
FN:519,_ZNSt6vectorIS_IiSaIiEESaIS1_EEC2EmRKS1_RKS2_
FNDA:4,_ZNSt6vectorIS_IiSaIiEESaIS1_EEC2EmRKS1_RKS2_
FN:550,_ZNSt6vectorIS_IiSaIiEESaIS1_EEC2ERKS3_
FNDA:0,_ZNSt6vectorIS_IiSaIiEESaIS1_EEC2ERKS3_
FN:550,_ZNSt6vectorIiSaIiEEC2ERKS1_
FNDA:0,_ZNSt6vectorIiSaIiEEC2ERKS1_
FN:569,_ZNSt6vectorIS_IiSaIiEESaIS1_EEC2EOS3_
FNDA:0,_ZNSt6vectorIS_IiSaIiEESaIS1_EEC2EOS3_
FN:569,_ZNSt6vectorIiSaIiEEC2EOS1_
FNDA:0,_ZNSt6vectorIiSaIiEEC2EOS1_
FN:622,_ZNSt6vectorIiSaIiEEC2ESt16initializer_listIiERKS0_
FNDA:0,_ZNSt6vectorIiSaIiEEC2ESt16initializer_listIiERKS0_
FN:675,_ZNSt6vectorIS_IiSaIiEESaIS1_EED2Ev
FNDA:0,_ZNSt6vectorIS_IiSaIiEESaIS1_EED2Ev
FN:675,_ZNSt6vectorIiSaIiEED2Ev
FNDA:0,_ZNSt6vectorIiSaIiEED2Ev
FN:675,_ZNSt6vectorIS_IS_IiSaIiEESaIS1_EESaIS3_EED2Ev
FNDA:0,_ZNSt6vectorIS_IS_IiSaIiEESaIS1_EESaIS3_EED2Ev
FN:706,_ZNSt6vectorIS_IiSaIiEESaIS1_EEaSEOS3_
FNDA:0,_ZNSt6vectorIS_IiSaIiEESaIS1_EEaSEOS3_
FN:727,_ZNSt6vectorIS_IiSaIiEESaIS1_EEaSESt16initializer_listIS1_E
FNDA:130,_ZNSt6vectorIS_IiSaIiEESaIS1_EEaSESt16initializer_listIS1_E
FN:808,_ZNSt6vectorIS_IS_IiSaIiEESaIS1_EESaIS3_EE5beginEv
FNDA:0,_ZNSt6vectorIS_IS_IiSaIiEESaIS1_EESaIS3_EE5beginEv
FN:808,_ZNSt6vectorIiSaIiEE5beginEv
FNDA:60,_ZNSt6vectorIiSaIiEE5beginEv
FN:808,_ZNSt6vectorIS_IiSaIiEESaIS1_EE5beginEv
FNDA:0,_ZNSt6vectorIS_IiSaIiEESaIS1_EE5beginEv
FN:817,_ZNKSt6vectorIS_IiSaIiEESaIS1_EE5beginEv
FNDA:0,_ZNKSt6vectorIS_IiSaIiEESaIS1_EE5beginEv
FN:817,_ZNKSt6vectorIiSaIiEE5beginEv
FNDA:0,_ZNKSt6vectorIiSaIiEE5beginEv
FN:826,_ZNSt6vectorIS_IiSaIiEESaIS1_EE3endEv
FNDA:0,_ZNSt6vectorIS_IiSaIiEESaIS1_EE3endEv
FN:826,_ZNSt6vectorIS_IS_IiSaIiEESaIS1_EESaIS3_EE3endEv
FNDA:0,_ZNSt6vectorIS_IS_IiSaIiEESaIS1_EESaIS3_EE3endEv
FN:826,_ZNSt6vectorIiSaIiEE3endEv
FNDA:60,_ZNSt6vectorIiSaIiEE3endEv
FN:835,_ZNKSt6vectorIiSaIiEE3endEv
FNDA:0,_ZNKSt6vectorIiSaIiEE3endEv
FN:835,_ZNKSt6vectorIS_IiSaIiEESaIS1_EE3endEv
FNDA:0,_ZNKSt6vectorIS_IiSaIiEESaIS1_EE3endEv
FN:915,_ZNKSt6vectorIS_IS_IiSaIiEESaIS1_EESaIS3_EE4sizeEv
FNDA:0,_ZNKSt6vectorIS_IS_IiSaIiEESaIS1_EESaIS3_EE4sizeEv
FN:915,_ZNKSt6vectorIiSaIiEE4sizeEv
FNDA:0,_ZNKSt6vectorIiSaIiEE4sizeEv
FN:915,_ZNKSt6vectorIS_IiSaIiEESaIS1_EE4sizeEv
FNDA:0,_ZNKSt6vectorIS_IiSaIiEESaIS1_EE4sizeEv
FN:920,_ZNKSt6vectorIS_IiSaIiEESaIS1_EE8max_sizeEv
FNDA:0,_ZNKSt6vectorIS_IiSaIiEESaIS1_EE8max_sizeEv
FN:920,_ZNKSt6vectorIiSaIiEE8max_sizeEv
FNDA:120,_ZNKSt6vectorIiSaIiEE8max_sizeEv
FN:920,_ZNKSt6vectorIS_IS_IiSaIiEESaIS1_EESaIS3_EE8max_sizeEv
FNDA:0,_ZNKSt6vectorIS_IS_IiSaIiEESaIS1_EESaIS3_EE8max_sizeEv
FN:995,_ZNKSt6vectorIS_IiSaIiEESaIS1_EE8capacityEv
FNDA:302,_ZNKSt6vectorIS_IiSaIiEESaIS1_EE8capacityEv
FN:995,_ZNKSt6vectorIiSaIiEE8capacityEv
FNDA:0,_ZNKSt6vectorIiSaIiEE8capacityEv
FN:1040,_ZNSt6vectorIS_IiSaIiEESaIS1_EEixEm
FNDA:0,_ZNSt6vectorIS_IiSaIiEESaIS1_EEixEm
FN:1040,_ZNSt6vectorIiSaIiEEixEm
FNDA:0,_ZNSt6vectorIiSaIiEEixEm
FN:1058,_ZNKSt6vectorIiSaIiEEixEm
FNDA:0,_ZNKSt6vectorIiSaIiEEixEm
FN:1058,_ZNKSt6vectorIS_IS_IiSaIiEESaIS1_EESaIS3_EEixEm
FNDA:277,_ZNKSt6vectorIS_IS_IiSaIiEESaIS1_EESaIS3_EEixEm
FN:1058,_ZNKSt6vectorIS_IiSaIiEESaIS1_EEixEm
FNDA:0,_ZNKSt6vectorIS_IiSaIiEESaIS1_EEixEm
FN:1184,_ZNSt6vectorIiSaIiEE9push_backERKi
FNDA:63,_ZNSt6vectorIiSaIiEE9push_backERKi
FN:1184,_ZNSt6vectorIS_IS_IiSaIiEESaIS1_EESaIS3_EE9push_backERKS3_
FNDA:0,_ZNSt6vectorIS_IS_IiSaIiEESaIS1_EESaIS3_EE9push_backERKS3_
FN:1184,_ZNSt6vectorIS_IiSaIiEESaIS1_EE9push_backERKS1_
FNDA:1037,_ZNSt6vectorIS_IiSaIiEESaIS1_EE9push_backERKS1_
FN:1200,_ZNSt6vectorIS_IiSaIiEESaIS1_EE9push_backEOS1_
FNDA:0,_ZNSt6vectorIS_IiSaIiEESaIS1_EE9push_backEOS1_
FN:1495,_ZNSt6vectorIS_IiSaIiEESaIS1_EE5clearEv
FNDA:0,_ZNSt6vectorIS_IiSaIiEESaIS1_EE5clearEv
FN:1495,_ZNSt6vectorIiSaIiEE5clearEv
FNDA:0,_ZNSt6vectorIiSaIiEE5clearEv
FN:1505,_ZNSt6vectorIiSaIiEE20_M_allocate_and_copyIN9__gnu_cxx17__normal_iteratorIPKiS1_EEEEPimT_S9_
FNDA:0,_ZNSt6vectorIiSaIiEE20_M_allocate_and_copyIN9__gnu_cxx17__normal_iteratorIPKiS1_EEEEPimT_S9_
FN:1505,_ZNSt6vectorIS_IiSaIiEESaIS1_EE20_M_allocate_and_copyIPKS1_EEPS1_mT_S8_
FNDA:130,_ZNSt6vectorIS_IiSaIiEESaIS1_EE20_M_allocate_and_copyIPKS1_EEPS1_mT_S8_
FN:1505,_ZNSt6vectorIS_IiSaIiEESaIS1_EE20_M_allocate_and_copyIN9__gnu_cxx17__normal_iteratorIPKS1_S3_EEEEPS1_mT_SB_
FNDA:172,_ZNSt6vectorIS_IiSaIiEESaIS1_EE20_M_allocate_and_copyIN9__gnu_cxx17__normal_iteratorIPKS1_S3_EEEEPS1_mT_SB_
FN:1574,_ZNSt6vectorIiSaIiEE19_M_range_initializeIPKiEEvT_S5_St20forward_iterator_tag
FNDA:0,_ZNSt6vectorIiSaIiEE19_M_range_initializeIPKiEEvT_S5_St20forward_iterator_tag
FN:1590,_ZNSt6vectorIS_IiSaIiEESaIS1_EE18_M_fill_initializeEmRKS1_
FNDA:4,_ZNSt6vectorIS_IiSaIiEESaIS1_EE18_M_fill_initializeEmRKS1_
FN:1600,_ZNSt6vectorIiSaIiEE21_M_default_initializeEm
FNDA:4,_ZNSt6vectorIiSaIiEE21_M_default_initializeEm
FN:1753,_ZNKSt6vectorIS_IiSaIiEESaIS1_EE12_M_check_lenEmPKc
FNDA:0,_ZNKSt6vectorIS_IiSaIiEESaIS1_EE12_M_check_lenEmPKc
FN:1753,_ZNKSt6vectorIS_IS_IiSaIiEESaIS1_EESaIS3_EE12_M_check_lenEmPKc
FNDA:0,_ZNKSt6vectorIS_IS_IiSaIiEESaIS1_EESaIS3_EE12_M_check_lenEmPKc
FN:1753,_ZNKSt6vectorIiSaIiEE12_M_check_lenEmPKc
FNDA:60,_ZNKSt6vectorIiSaIiEE12_M_check_lenEmPKc
FN:1764,_ZNSt6vectorIS_IiSaIiEESaIS1_EE17_S_check_init_lenEmRKS2_
FNDA:209,_ZNSt6vectorIS_IiSaIiEESaIS1_EE17_S_check_init_lenEmRKS2_
FN:1764,_ZNSt6vectorIiSaIiEE17_S_check_init_lenEmRKS0_
FNDA:0,_ZNSt6vectorIiSaIiEE17_S_check_init_lenEmRKS0_
FN:1773,_ZNSt6vectorIiSaIiEE11_S_max_sizeERKS0_
FNDA:0,_ZNSt6vectorIiSaIiEE11_S_max_sizeERKS0_
FN:1773,_ZNSt6vectorIS_IiSaIiEESaIS1_EE11_S_max_sizeERKS2_
FNDA:0,_ZNSt6vectorIS_IiSaIiEESaIS1_EE11_S_max_sizeERKS2_
FN:1773,_ZNSt6vectorIS_IS_IiSaIiEESaIS1_EESaIS3_EE11_S_max_sizeERKS4_
FNDA:0,_ZNSt6vectorIS_IS_IiSaIiEESaIS1_EESaIS3_EE11_S_max_sizeERKS4_
FN:1789,_ZNSt6vectorIS_IiSaIiEESaIS1_EE15_M_erase_at_endEPS1_
FNDA:0,_ZNSt6vectorIS_IiSaIiEESaIS1_EE15_M_erase_at_endEPS1_
FN:1789,_ZNSt6vectorIiSaIiEE15_M_erase_at_endEPi
FNDA:0,_ZNSt6vectorIiSaIiEE15_M_erase_at_endEPi
FN:1812,_ZNSt6vectorIS_IiSaIiEESaIS1_EE14_M_move_assignEOS3_St17integral_constantIbLb1EE
FNDA:0,_ZNSt6vectorIS_IiSaIiEESaIS1_EE14_M_move_assignEOS3_St17integral_constantIbLb1EE
FN:1888,_ZSteqIiSaIiEEbRKSt6vectorIT_T0_ES6_
FNDA:198900,_ZSteqIiSaIiEEbRKSt6vectorIT_T0_ES6_
FN:1912,_ZStneIiSaIiEEbRKSt6vectorIT_T0_ES6_
FNDA:198765,_ZStneIiSaIiEEbRKSt6vectorIT_T0_ES6_
DA:94,0
DA:95,0
DA:96,0
DA:94,0
DA:95,0
DA:96,0
DA:94,0
DA:95,0
DA:96,0
DA:99,0
DA:100,0
DA:101,0
DA:102,0
DA:99,0
DA:100,0
DA:101,0
DA:102,0
DA:106,0
DA:108,0
DA:109,0
DA:110,0
DA:111,0
DA:114,0
DA:118,0
DA:119,0
DA:120,0
DA:121,0
DA:122,0
DA:128,22
DA:130,22
DA:131,22
DA:128,0
DA:130,0
DA:131,0
DA:128,0
DA:130,0
DA:131,0
DA:133,0
DA:134,0
DA:135,0
DA:133,0
DA:134,0
DA:135,0
DA:140,0
DA:141,0
DA:142,0
DA:140,0
DA:141,0
DA:142,0
DA:273,0
DA:274,0
DA:273,0
DA:274,0
DA:273,0
DA:274,0
DA:277,0
DA:278,0
DA:277,0
DA:278,0
DA:277,0
DA:278,0
DA:281,0
DA:282,0
DA:285,22
DA:285,0
DA:285,0
DA:290,0
DA:291,0
DA:290,0
DA:291,0
DA:300,0
DA:301,0
DA:302,0
DA:300,0
DA:301,0
DA:302,0
DA:305,0
DA:305,0
DA:330,0
DA:332,0
DA:333,0
DA:334,0
DA:330,0
DA:332,0
DA:333,0
DA:334,0
DA:330,0
DA:332,0
DA:333,0
DA:334,0
DA:340,0
DA:343,0
DA:340,0
DA:343,0
DA:340,0
DA:343,0
DA:347,0
DA:350,0
DA:351,0
DA:352,0
DA:347,0
DA:350,0
DA:351,0
DA:352,0
DA:347,0
DA:350,0
DA:351,0
DA:352,0
DA:356,0
DA:358,0
DA:359,0
DA:360,0
DA:361,0
DA:356,0
DA:358,0
DA:359,0
DA:360,0
DA:361,0
DA:428,0
DA:433,0
DA:428,120
DA:433,120
DA:428,0
DA:433,0
DA:441,0
DA:446,0
DA:441,120
DA:446,120
DA:441,0
DA:446,0
DA:450,0
DA:453,0
DA:450,120
DA:453,120
DA:450,0
DA:453,0
DA:462,0
DA:466,0
DA:462,120
DA:466,120
DA:462,0
DA:466,0
DA:484,22
DA:484,0
DA:484,0
DA:494,0
DA:495,0
DA:507,4
DA:508,4
DA:509,4
DA:519,4
DA:521,4
DA:522,4
DA:550,0
DA:552,0
DA:554,0
DA:555,0
DA:557,0
DA:558,0
DA:550,0
DA:552,0
DA:554,0
DA:555,0
DA:557,0
DA:558,0
DA:569,0
DA:569,0
DA:622,0
DA:624,0
DA:626,0
DA:628,0
DA:675,0
DA:677,0
DA:678,0
DA:680,0
DA:675,0
DA:677,0
DA:678,0
DA:680,0
DA:675,0
DA:677,0
DA:678,0
DA:680,0
DA:706,0
DA:708,0
DA:711,0
DA:712,0
DA:727,130
DA:729,130
DA:731,130
DA:808,0
DA:809,0
DA:808,60
DA:809,60
DA:808,0
DA:809,0
DA:817,0
DA:818,0
DA:817,0
DA:818,0
DA:826,0
DA:827,0
DA:826,60
DA:827,60
DA:826,0
DA:827,0
DA:835,0
DA:836,0
DA:835,0
DA:836,0
DA:915,0
DA:916,0
DA:915,0
DA:916,0
DA:915,0
DA:916,0
DA:920,0
DA:921,0
DA:920,120
DA:921,120
DA:920,0
DA:921,0
DA:995,0
DA:996,0
DA:997,0
DA:995,302
DA:996,302
DA:997,302
DA:1040,0
DA:1043,0
DA:1040,0
DA:1043,0
DA:1058,277
DA:1061,277
DA:1058,0
DA:1061,0
DA:1058,0
DA:1061,0
DA:1184,0
DA:1186,0
DA:1189,0
DA:1191,0
DA:1195,0
DA:1196,0
DA:1184,63
DA:1186,63
DA:1189,33
DA:1191,33
DA:1195,30
DA:1196,63
DA:1184,1037
DA:1186,1037
DA:1189,317
DA:1191,317
DA:1195,720
DA:1196,1037
DA:1200,0
DA:1201,0
DA:1495,0
DA:1496,0
DA:1495,0
DA:1496,0
DA:1505,0
DA:1508,0
DA:1511,0
DA:1512,0
DA:1513,0
DA:1515,0
DA:1517,0
DA:1518,0
DA:1505,130
DA:1508,130
DA:1511,130
DA:1512,130
DA:1513,130
DA:1515,0
DA:1517,0
DA:1518,0
DA:1505,172
DA:1508,172
DA:1511,172
DA:1512,172
DA:1513,172
DA:1515,0
DA:1517,0
DA:1518,0
DA:1574,0
DA:1577,0
DA:1578,0
DA:1579,0
DA:1580,0
DA:1581,0
DA:1582,0
DA:1584,0
DA:1585,0
DA:1590,4
DA:1592,4
DA:1593,4
DA:1594,4
DA:1595,4
DA:1600,4
DA:1602,4
DA:1603,4
DA:1604,4
DA:1605,4
DA:1753,0
DA:1755,0
DA:1756,0
DA:1758,0
DA:1759,0
DA:1753,60
DA:1755,60
DA:1756,0
DA:1758,60
DA:1759,60
DA:1753,0
DA:1755,0
DA:1756,0
DA:1758,0
DA:1759,0
DA:1764,209
DA:1766,209
DA:1767,0
DA:1769,209
DA:1764,0
DA:1766,0
DA:1767,0
DA:1769,0
DA:1773,0
DA:1778,0
DA:1780,0
DA:1781,0
DA:1773,0
DA:1778,0
DA:1780,0
DA:1781,0
DA:1773,0
DA:1778,0
DA:1780,0
DA:1781,0
DA:1789,0
DA:1791,0
DA:1793,0
DA:1794,0
DA:1795,0
DA:1798,0
DA:1789,0
DA:1791,0
DA:1793,0
DA:1794,0
DA:1795,0
DA:1798,0
DA:1812,0
DA:1814,0
DA:1815,0
DA:1816,0
DA:1817,0
DA:1818,0
DA:1888,198900
DA:1889,198900
DA:1890,198900
DA:1912,198765
DA:1913,198765
end_of_record
SF:/usr/include/c++/9/bits/stl_iterator.h
FN:806,_ZN9__gnu_cxx17__normal_iteratorIPSt6vectorIiSaIiEES1_IS3_SaIS3_EEEC2ERKS4_
FNDA:0,_ZN9__gnu_cxx17__normal_iteratorIPSt6vectorIiSaIiEES1_IS3_SaIS3_EEEC2ERKS4_
FN:806,_ZN9__gnu_cxx17__normal_iteratorIPKSt6vectorIiSaIiEES1_IS3_SaIS3_EEEC2ERKS5_
FNDA:0,_ZN9__gnu_cxx17__normal_iteratorIPKSt6vectorIiSaIiEES1_IS3_SaIS3_EEEC2ERKS5_
FN:806,_ZN9__gnu_cxx17__normal_iteratorIPKiSt6vectorIiSaIiEEEC2ERKS2_
FNDA:0,_ZN9__gnu_cxx17__normal_iteratorIPKiSt6vectorIiSaIiEEEC2ERKS2_
FN:806,_ZN9__gnu_cxx17__normal_iteratorIPiSt6vectorIiSaIiEEEC2ERKS1_
FNDA:120,_ZN9__gnu_cxx17__normal_iteratorIPiSt6vectorIiSaIiEEEC2ERKS1_
FN:806,_ZN9__gnu_cxx17__normal_iteratorIPSt6vectorIS1_IiSaIiEESaIS3_EES1_IS5_SaIS5_EEEC2ERKS6_
FNDA:0,_ZN9__gnu_cxx17__normal_iteratorIPSt6vectorIS1_IiSaIiEESaIS3_EES1_IS5_SaIS5_EEEC2ERKS6_
FN:819,_ZNK9__gnu_cxx17__normal_iteratorIPKSt6vectorIiSaIiEES1_IS3_SaIS3_EEEdeEv
FNDA:0,_ZNK9__gnu_cxx17__normal_iteratorIPKSt6vectorIiSaIiEES1_IS3_SaIS3_EEEdeEv
FN:819,_ZNK9__gnu_cxx17__normal_iteratorIPSt6vectorIiSaIiEES1_IS3_SaIS3_EEEdeEv
FNDA:1078,_ZNK9__gnu_cxx17__normal_iteratorIPSt6vectorIiSaIiEES1_IS3_SaIS3_EEEdeEv
FN:827,_ZN9__gnu_cxx17__normal_iteratorIPKSt6vectorIiSaIiEES1_IS3_SaIS3_EEEppEv
FNDA:0,_ZN9__gnu_cxx17__normal_iteratorIPKSt6vectorIiSaIiEES1_IS3_SaIS3_EEEppEv
FN:827,_ZN9__gnu_cxx17__normal_iteratorIPSt6vectorIiSaIiEES1_IS3_SaIS3_EEEppEv
FNDA:210,_ZN9__gnu_cxx17__normal_iteratorIPSt6vectorIiSaIiEES1_IS3_SaIS3_EEEppEv
FN:859,_ZNK9__gnu_cxx17__normal_iteratorIPiSt6vectorIiSaIiEEEplEl
FNDA:0,_ZNK9__gnu_cxx17__normal_iteratorIPiSt6vectorIiSaIiEEEplEl
FN:859,_ZNK9__gnu_cxx17__normal_iteratorIPSt6vectorIiSaIiEES1_IS3_SaIS3_EEEplEl
FNDA:34,_ZNK9__gnu_cxx17__normal_iteratorIPSt6vectorIiSaIiEES1_IS3_SaIS3_EEEplEl
FN:871,_ZNK9__gnu_cxx17__normal_iteratorIPKiSt6vectorIiSaIiEEE4baseEv
FNDA:0,_ZNK9__gnu_cxx17__normal_iteratorIPKiSt6vectorIiSaIiEEE4baseEv
FN:871,_ZNK9__gnu_cxx17__normal_iteratorIPSt6vectorIiSaIiEES1_IS3_SaIS3_EEE4baseEv
FNDA:0,_ZNK9__gnu_cxx17__normal_iteratorIPSt6vectorIiSaIiEES1_IS3_SaIS3_EEE4baseEv
FN:871,_ZNK9__gnu_cxx17__normal_iteratorIPiSt6vectorIiSaIiEEE4baseEv
FNDA:240,_ZNK9__gnu_cxx17__normal_iteratorIPiSt6vectorIiSaIiEEE4baseEv
FN:871,_ZNK9__gnu_cxx17__normal_iteratorIPSt6vectorIS1_IiSaIiEESaIS3_EES1_IS5_SaIS5_EEE4baseEv
FNDA:0,_ZNK9__gnu_cxx17__normal_iteratorIPSt6vectorIS1_IiSaIiEESaIS3_EES1_IS5_SaIS5_EEE4baseEv
FN:871,_ZNK9__gnu_cxx17__normal_iteratorIPKSt6vectorIiSaIiEES1_IS3_SaIS3_EEE4baseEv
FNDA:0,_ZNK9__gnu_cxx17__normal_iteratorIPKSt6vectorIiSaIiEES1_IS3_SaIS3_EEE4baseEv
FN:907,_ZN9__gnu_cxxneIPSt6vectorIiSaIiEES1_IS3_SaIS3_EEEEbRKNS_17__normal_iteratorIT_T0_EESC_
FNDA:226,_ZN9__gnu_cxxneIPSt6vectorIiSaIiEES1_IS3_SaIS3_EEEEbRKNS_17__normal_iteratorIT_T0_EESC_
FN:907,_ZN9__gnu_cxxneIPKSt6vectorIiSaIiEES1_IS3_SaIS3_EEEEbRKNS_17__normal_iteratorIT_T0_EESD_
FNDA:0,_ZN9__gnu_cxxneIPKSt6vectorIiSaIiEES1_IS3_SaIS3_EEEEbRKNS_17__normal_iteratorIT_T0_EESD_
FN:989,_ZN9__gnu_cxxmiIPSt6vectorIiSaIiEES1_IS3_SaIS3_EEEENS_17__normal_iteratorIT_T0_E15difference_typeERKSA_SD_
FNDA:0,_ZN9__gnu_cxxmiIPSt6vectorIiSaIiEES1_IS3_SaIS3_EEEENS_17__normal_iteratorIT_T0_E15difference_typeERKSA_SD_
FN:989,_ZN9__gnu_cxxmiIPiSt6vectorIiSaIiEEEENS_17__normal_iteratorIT_T0_E15difference_typeERKS8_SB_
FNDA:60,_ZN9__gnu_cxxmiIPiSt6vectorIiSaIiEEEENS_17__normal_iteratorIT_T0_E15difference_typeERKS8_SB_
FN:989,_ZN9__gnu_cxxmiIPSt6vectorIS1_IiSaIiEESaIS3_EES1_IS5_SaIS5_EEEENS_17__normal_iteratorIT_T0_E15difference_typeERKSC_SF_
FNDA:0,_ZN9__gnu_cxxmiIPSt6vectorIS1_IiSaIiEESaIS3_EES1_IS5_SaIS5_EEEENS_17__normal_iteratorIT_T0_E15difference_typeERKSC_SF_
FN:1010,_ZSt12__niter_baseIPiSt6vectorIiSaIiEEET_N9__gnu_cxx17__normal_iteratorIS4_T0_EE
FNDA:0,_ZSt12__niter_baseIPiSt6vectorIiSaIiEEET_N9__gnu_cxx17__normal_iteratorIS4_T0_EE
FN:1010,_ZSt12__niter_baseIPKiSt6vectorIiSaIiEEET_N9__gnu_cxx17__normal_iteratorIS5_T0_EE
FNDA:0,_ZSt12__niter_baseIPKiSt6vectorIiSaIiEEET_N9__gnu_cxx17__normal_iteratorIS5_T0_EE
FN:1010,_ZSt12__niter_baseIPKSt6vectorIiSaIiEES0_IS2_SaIS2_EEET_N9__gnu_cxx17__normal_iteratorIS7_T0_EE
FNDA:36,_ZSt12__niter_baseIPKSt6vectorIiSaIiEES0_IS2_SaIS2_EEET_N9__gnu_cxx17__normal_iteratorIS7_T0_EE
FN:1010,_ZSt12__niter_baseIPSt6vectorIiSaIiEES0_IS2_SaIS2_EEET_N9__gnu_cxx17__normal_iteratorIS6_T0_EE
FNDA:16,_ZSt12__niter_baseIPSt6vectorIiSaIiEES0_IS2_SaIS2_EEET_N9__gnu_cxx17__normal_iteratorIS6_T0_EE
FN:1057,_ZNSt13move_iteratorIPSt6vectorIS0_IiSaIiEESaIS2_EEEC2ES5_
FNDA:0,_ZNSt13move_iteratorIPSt6vectorIS0_IiSaIiEESaIS2_EEEC2ES5_
FN:1057,_ZNSt13move_iteratorIPSt6vectorIiSaIiEEEC2ES3_
FNDA:0,_ZNSt13move_iteratorIPSt6vectorIiSaIiEEEC2ES3_
FN:1057,_ZNSt13move_iteratorIPiEC2ES0_
FNDA:0,_ZNSt13move_iteratorIPiEC2ES0_
FN:1066,_ZNKSt13move_iteratorIPSt6vectorIS0_IiSaIiEESaIS2_EEE4baseEv
FNDA:0,_ZNKSt13move_iteratorIPSt6vectorIS0_IiSaIiEESaIS2_EEE4baseEv
FN:1066,_ZNKSt13move_iteratorIPiE4baseEv
FNDA:0,_ZNKSt13move_iteratorIPiE4baseEv
FN:1066,_ZNKSt13move_iteratorIPSt6vectorIiSaIiEEE4baseEv
FNDA:0,_ZNKSt13move_iteratorIPSt6vectorIiSaIiEEE4baseEv
FN:1070,_ZNKSt13move_iteratorIPSt6vectorIS0_IiSaIiEESaIS2_EEEdeEv
FNDA:0,_ZNKSt13move_iteratorIPSt6vectorIS0_IiSaIiEESaIS2_EEEdeEv
FN:1070,_ZNKSt13move_iteratorIPSt6vectorIiSaIiEEEdeEv
FNDA:0,_ZNKSt13move_iteratorIPSt6vectorIiSaIiEEEdeEv
FN:1078,_ZNSt13move_iteratorIPSt6vectorIS0_IiSaIiEESaIS2_EEEppEv
FNDA:0,_ZNSt13move_iteratorIPSt6vectorIS0_IiSaIiEESaIS2_EEEppEv
FN:1078,_ZNSt13move_iteratorIPSt6vectorIiSaIiEEEppEv
FNDA:0,_ZNSt13move_iteratorIPSt6vectorIiSaIiEEEppEv
FN:1145,_ZSteqIPSt6vectorIiSaIiEEEbRKSt13move_iteratorIT_ES8_
FNDA:0,_ZSteqIPSt6vectorIiSaIiEEEbRKSt13move_iteratorIT_ES8_
FN:1145,_ZSteqIPSt6vectorIS0_IiSaIiEESaIS2_EEEbRKSt13move_iteratorIT_ESA_
FNDA:0,_ZSteqIPSt6vectorIS0_IiSaIiEESaIS2_EEEbRKSt13move_iteratorIT_ESA_
FN:1157,_ZStneIPSt6vectorIiSaIiEEEbRKSt13move_iteratorIT_ES8_
FNDA:0,_ZStneIPSt6vectorIiSaIiEEEbRKSt13move_iteratorIT_ES8_
FN:1157,_ZStneIPSt6vectorIS0_IiSaIiEESaIS2_EEEbRKSt13move_iteratorIT_ESA_
FNDA:0,_ZStneIPSt6vectorIS0_IiSaIiEESaIS2_EEEbRKSt13move_iteratorIT_ESA_
FN:1242,_ZSt32__make_move_if_noexcept_iteratorISt6vectorIS0_IiSaIiEESaIS2_EESt13move_iteratorIPS4_EET0_PT_
FNDA:0,_ZSt32__make_move_if_noexcept_iteratorISt6vectorIS0_IiSaIiEESaIS2_EESt13move_iteratorIPS4_EET0_PT_
FN:1242,_ZSt32__make_move_if_noexcept_iteratorISt6vectorIiSaIiEESt13move_iteratorIPS2_EET0_PT_
FNDA:0,_ZSt32__make_move_if_noexcept_iteratorISt6vectorIiSaIiEESt13move_iteratorIPS2_EET0_PT_
FN:1242,_ZSt32__make_move_if_noexcept_iteratorIiSt13move_iteratorIPiEET0_PT_
FNDA:0,_ZSt32__make_move_if_noexcept_iteratorIiSt13move_iteratorIPiEET0_PT_
FN:1262,_ZSt12__miter_baseIPiEDTcl12__miter_basecldtfp_4baseEEESt13move_iteratorIT_E
FNDA:0,_ZSt12__miter_baseIPiEDTcl12__miter_basecldtfp_4baseEEESt13move_iteratorIT_E
DA:806,0
DA:807,0
DA:806,120
DA:807,120
DA:806,0
DA:807,0
DA:806,0
DA:807,0
DA:806,0
DA:807,0
DA:819,1078
DA:820,1078
DA:819,0
DA:820,0
DA:827,210
DA:829,210
DA:830,210
DA:827,0
DA:829,0
DA:830,0
DA:859,0
DA:860,0
DA:859,34
DA:860,34
DA:871,0
DA:872,0
DA:871,0
DA:872,0
DA:871,0
DA:872,0
DA:871,240
DA:872,240
DA:871,0
DA:872,0
DA:907,226
DA:910,226
DA:907,0
DA:910,0
DA:989,0
DA:992,0
DA:989,60
DA:992,60
DA:989,0
DA:992,0
DA:1010,0
DA:1012,0
DA:1010,16
DA:1012,16
DA:1010,36
DA:1012,36
DA:1010,0
DA:1012,0
DA:1057,0
DA:1058,0
DA:1057,0
DA:1058,0
DA:1057,0
DA:1058,0
DA:1066,0
DA:1067,0
DA:1066,0
DA:1067,0
DA:1066,0
DA:1067,0
DA:1070,0
DA:1071,0
DA:1070,0
DA:1071,0
DA:1078,0
DA:1080,0
DA:1081,0
DA:1078,0
DA:1080,0
DA:1081,0
DA:1145,0
DA:1147,0
DA:1145,0
DA:1147,0
DA:1157,0
DA:1159,0
DA:1157,0
DA:1159,0
DA:1242,0
DA:1243,0
DA:1242,0
DA:1243,0
DA:1242,0
DA:1243,0
DA:1262,0
DA:1264,0
end_of_record
SF:/usr/include/c++/9/bits/allocator.h
FN:138,_ZNSaISt6vectorIS_IiSaIiEESaIS1_EEEC2Ev
FNDA:0,_ZNSaISt6vectorIS_IiSaIiEESaIS1_EEEC2Ev
FN:138,_ZNSaISt6vectorIiSaIiEEEC2Ev
FNDA:0,_ZNSaISt6vectorIiSaIiEEEC2Ev
FN:138,_ZNSaIiEC2Ev
FNDA:0,_ZNSaIiEC2Ev
FN:141,_ZNSaIiEC2ERKS_
FNDA:0,_ZNSaIiEC2ERKS_
FN:141,_ZNSaISt6vectorIiSaIiEEEC2ERKS2_
FNDA:0,_ZNSaISt6vectorIiSaIiEEEC2ERKS2_
FN:153,_ZNSaISt6vectorIS_IiSaIiEESaIS1_EEED2Ev
FNDA:0,_ZNSaISt6vectorIS_IiSaIiEESaIS1_EEED2Ev
FN:153,_ZNSaISt6vectorIiSaIiEEED2Ev
FNDA:0,_ZNSaISt6vectorIiSaIiEEED2Ev
FN:153,_ZNSaIiED2Ev
FNDA:0,_ZNSaIiED2Ev
FN:160,_ZStneRKSaIiES1_
FNDA:0,_ZStneRKSaIiES1_
FN:160,_ZStneRKSaISt6vectorIiSaIiEEES4_
FNDA:0,_ZStneRKSaISt6vectorIiSaIiEEES4_
DA:138,0
DA:138,0
DA:138,0
DA:141,0
DA:142,0
DA:141,0
DA:142,0
DA:153,0
DA:153,0
DA:153,0
DA:160,0
DA:161,0
DA:160,0
DA:161,0
end_of_record
SF:/usr/include/c++/9/bits/vector.tcc
FN:109,_ZNSt6vectorIS_IiSaIiEESaIS1_EE12emplace_backIJS1_EEEvDpOT_
FNDA:0,_ZNSt6vectorIS_IiSaIiEESaIS1_EE12emplace_backIJS1_EEEvDpOT_
FN:198,_ZNSt6vectorIiSaIiEEaSERKS1_
FNDA:0,_ZNSt6vectorIiSaIiEEaSERKS1_
FN:198,_ZNSt6vectorIS_IiSaIiEESaIS1_EEaSERKS3_
FNDA:172,_ZNSt6vectorIS_IiSaIiEESaIS1_EEaSERKS3_
FN:300,_ZNSt6vectorIS_IiSaIiEESaIS1_EE13_M_assign_auxIPKS1_EEvT_S7_St20forward_iterator_tag
FNDA:130,_ZNSt6vectorIS_IiSaIiEESaIS1_EE13_M_assign_auxIPKS1_EEvT_S7_St20forward_iterator_tag
FN:426,_ZNSt6vectorIS_IiSaIiEESaIS1_EE17_M_realloc_insertIJS1_EEEvN9__gnu_cxx17__normal_iteratorIPS1_S3_EEDpOT_
FNDA:0,_ZNSt6vectorIS_IiSaIiEESaIS1_EE17_M_realloc_insertIJS1_EEEvN9__gnu_cxx17__normal_iteratorIPS1_S3_EEDpOT_
FN:426,_ZNSt6vectorIS_IS_IiSaIiEESaIS1_EESaIS3_EE17_M_realloc_insertIJRKS3_EEEvN9__gnu_cxx17__normal_iteratorIPS3_S5_EEDpOT_
FNDA:0,_ZNSt6vectorIS_IS_IiSaIiEESaIS1_EESaIS3_EE17_M_realloc_insertIJRKS3_EEEvN9__gnu_cxx17__normal_iteratorIPS3_S5_EEDpOT_
FN:426,_ZNSt6vectorIiSaIiEE17_M_realloc_insertIJRKiEEEvN9__gnu_cxx17__normal_iteratorIPiS1_EEDpOT_
FNDA:30,_ZNSt6vectorIiSaIiEE17_M_realloc_insertIJRKiEEEvN9__gnu_cxx17__normal_iteratorIPiS1_EEDpOT_
FN:426,_ZNSt6vectorIS_IiSaIiEESaIS1_EE17_M_realloc_insertIJRKS1_EEEvN9__gnu_cxx17__normal_iteratorIPS1_S3_EEDpOT_
FNDA:720,_ZNSt6vectorIS_IiSaIiEESaIS1_EE17_M_realloc_insertIJRKS1_EEEvN9__gnu_cxx17__normal_iteratorIPS1_S3_EEDpOT_
DA:109,0
DA:112,0
DA:115,0
DA:117,0
DA:121,0
DA:125,0
DA:198,0
DA:201,0
DA:205,0
DA:207,0
DA:208,0
DA:211,0
DA:212,0
DA:213,0
DA:214,0
DA:215,0
DA:216,0
DA:217,0
DA:219,0
DA:223,0
DA:224,0
DA:226,0
DA:228,0
DA:229,0
DA:230,0
DA:231,0
DA:232,0
DA:233,0
DA:234,0
DA:236,0
DA:238,0
DA:239,0
DA:243,0
DA:245,0
DA:246,0
DA:248,0
DA:250,0
DA:252,0
DA:198,172
DA:201,172
DA:205,172
DA:207,0
DA:208,0
DA:211,0
DA:212,0
DA:213,0
DA:214,0
DA:215,0
DA:216,0
DA:217,0
DA:219,0
DA:223,172
DA:224,172
DA:226,172
DA:228,172
DA:229,172
DA:230,172
DA:231,172
DA:232,172
DA:233,172
DA:234,172
DA:236,0
DA:238,0
DA:239,0
DA:243,0
DA:245,0
DA:246,0
DA:248,0
DA:250,172
DA:252,172
DA:300,130
DA:304,130
DA:306,130
DA:308,130
DA:309,130
DA:310,130
DA:311,130
DA:313,130
DA:314,130
DA:315,130
DA:316,130
DA:317,130
DA:318,130
DA:320,0
DA:321,0
DA:324,0
DA:325,0
DA:326,0
DA:327,0
DA:329,0
DA:330,0
DA:332,0
DA:335,130
DA:426,0
DA:435,0
DA:437,0
DA:438,0
DA:439,0
DA:440,0
DA:441,0
DA:449,0
DA:450,0
DA:456,0
DA:459,0
DA:461,0
DA:462,0
DA:464,0
DA:466,0
DA:467,0
DA:474,0
DA:475,0
DA:477,0
DA:481,0
DA:482,0
DA:485,0
DA:487,0
DA:488,0
DA:489,0
DA:491,0
DA:492,0
DA:493,0
DA:496,0
DA:498,0
DA:500,0
DA:501,0
DA:502,0
DA:503,0
DA:504,0
DA:505,0
DA:426,0
DA:435,0
DA:437,0
DA:438,0
DA:439,0
DA:440,0
DA:441,0
DA:449,0
DA:450,0
DA:456,0
DA:459,0
DA:461,0
DA:462,0
DA:464,0
DA:466,0
DA:467,0
DA:474,0
DA:475,0
DA:477,0
DA:481,0
DA:482,0
DA:485,0
DA:487,0
DA:488,0
DA:489,0
DA:491,0
DA:492,0
DA:493,0
DA:496,0
DA:498,0
DA:500,0
DA:501,0
DA:502,0
DA:503,0
DA:504,0
DA:505,0
DA:426,30
DA:435,30
DA:437,30
DA:438,30
DA:439,30
DA:440,30
DA:441,30
DA:449,30
DA:450,30
DA:456,30
DA:459,30
DA:461,30
DA:462,30
DA:464,30
DA:466,30
DA:467,30
DA:474,0
DA:475,0
DA:477,0
DA:481,0
DA:482,0
DA:485,0
DA:487,0
DA:488,0
DA:489,0
DA:491,0
DA:492,0
DA:493,0
DA:496,30
DA:498,0
DA:500,30
DA:501,30
DA:502,30
DA:503,30
DA:504,30
DA:505,30
DA:426,720
DA:435,720
DA:437,720
DA:438,720
DA:439,720
DA:440,720
DA:441,720
DA:449,720
DA:450,720
DA:456,720
DA:459,720
DA:461,720
DA:462,720
DA:464,720
DA:466,720
DA:467,720
DA:474,0
DA:475,0
DA:477,0
DA:481,0
DA:482,0
DA:485,0
DA:487,0
DA:488,0
DA:489,0
DA:491,0
DA:492,0
DA:493,0
DA:496,720
DA:498,0
DA:500,720
DA:501,720
DA:502,720
DA:503,720
DA:504,720
DA:505,720
end_of_record
SF:/usr/include/c++/9/bits/alloc_traits.h
FN:443,_ZNSt16allocator_traitsISaISt6vectorIS0_IiSaIiEESaIS2_EEEE8allocateERS5_m
FNDA:0,_ZNSt16allocator_traitsISaISt6vectorIS0_IiSaIiEESaIS2_EEEE8allocateERS5_m
FN:443,_ZNSt16allocator_traitsISaIiEE8allocateERS0_m
FNDA:0,_ZNSt16allocator_traitsISaIiEE8allocateERS0_m
FN:443,_ZNSt16allocator_traitsISaISt6vectorIiSaIiEEEE8allocateERS3_m
FNDA:0,_ZNSt16allocator_traitsISaISt6vectorIiSaIiEEEE8allocateERS3_m
FN:469,_ZNSt16allocator_traitsISaISt6vectorIiSaIiEEEE10deallocateERS3_PS2_m
FNDA:0,_ZNSt16allocator_traitsISaISt6vectorIiSaIiEEEE10deallocateERS3_PS2_m
FN:469,_ZNSt16allocator_traitsISaIiEE10deallocateERS0_Pim
FNDA:0,_ZNSt16allocator_traitsISaIiEE10deallocateERS0_Pim
FN:469,_ZNSt16allocator_traitsISaISt6vectorIS0_IiSaIiEESaIS2_EEEE10deallocateERS5_PS4_m
FNDA:0,_ZNSt16allocator_traitsISaISt6vectorIS0_IiSaIiEESaIS2_EEEE10deallocateERS5_PS4_m
FN:482,_ZNSt16allocator_traitsISaISt6vectorIiSaIiEEEE9constructIS2_JRKS2_EEEvRS3_PT_DpOT0_
FNDA:1037,_ZNSt16allocator_traitsISaISt6vectorIiSaIiEEEE9constructIS2_JRKS2_EEEvRS3_PT_DpOT0_
FN:482,_ZNSt16allocator_traitsISaISt6vectorIS0_IiSaIiEESaIS2_EEEE9constructIS4_JS4_EEEvRS5_PT_DpOT0_
FNDA:0,_ZNSt16allocator_traitsISaISt6vectorIS0_IiSaIiEESaIS2_EEEE9constructIS4_JS4_EEEvRS5_PT_DpOT0_
FN:482,_ZNSt16allocator_traitsISaIiEE9constructIiJRKiEEEvRS0_PT_DpOT0_
FNDA:63,_ZNSt16allocator_traitsISaIiEE9constructIiJRKiEEEvRS0_PT_DpOT0_
FN:482,_ZNSt16allocator_traitsISaISt6vectorIS0_IiSaIiEESaIS2_EEEE9constructIS4_JRKS4_EEEvRS5_PT_DpOT0_
FNDA:0,_ZNSt16allocator_traitsISaISt6vectorIS0_IiSaIiEESaIS2_EEEE9constructIS4_JRKS4_EEEvRS5_PT_DpOT0_
FN:482,_ZNSt16allocator_traitsISaISt6vectorIiSaIiEEEE9constructIS2_JS2_EEEvRS3_PT_DpOT0_
FNDA:0,_ZNSt16allocator_traitsISaISt6vectorIiSaIiEEEE9constructIS2_JS2_EEEvRS3_PT_DpOT0_
FN:495,_ZNSt16allocator_traitsISaIiEE7destroyIiEEvRS0_PT_
FNDA:0,_ZNSt16allocator_traitsISaIiEE7destroyIiEEvRS0_PT_
FN:495,_ZNSt16allocator_traitsISaISt6vectorIS0_IiSaIiEESaIS2_EEEE7destroyIS4_EEvRS5_PT_
FNDA:0,_ZNSt16allocator_traitsISaISt6vectorIS0_IiSaIiEESaIS2_EEEE7destroyIS4_EEvRS5_PT_
FN:495,_ZNSt16allocator_traitsISaISt6vectorIiSaIiEEEE7destroyIS2_EEvRS3_PT_
FNDA:0,_ZNSt16allocator_traitsISaISt6vectorIiSaIiEEEE7destroyIS2_EEvRS3_PT_
FN:505,_ZNSt16allocator_traitsISaIiEE8max_sizeERKS0_
FNDA:0,_ZNSt16allocator_traitsISaIiEE8max_sizeERKS0_
FN:505,_ZNSt16allocator_traitsISaISt6vectorIiSaIiEEEE8max_sizeERKS3_
FNDA:0,_ZNSt16allocator_traitsISaISt6vectorIiSaIiEEEE8max_sizeERKS3_
FN:505,_ZNSt16allocator_traitsISaISt6vectorIS0_IiSaIiEESaIS2_EEEE8max_sizeERKS5_
FNDA:0,_ZNSt16allocator_traitsISaISt6vectorIS0_IiSaIiEESaIS2_EEEE8max_sizeERKS5_
FN:514,_ZNSt16allocator_traitsISaIiEE37select_on_container_copy_constructionERKS0_
FNDA:0,_ZNSt16allocator_traitsISaIiEE37select_on_container_copy_constructionERKS0_
FN:514,_ZNSt16allocator_traitsISaISt6vectorIiSaIiEEEE37select_on_container_copy_constructionERKS3_
FNDA:0,_ZNSt16allocator_traitsISaISt6vectorIiSaIiEEEE37select_on_container_copy_constructionERKS3_
FN:526,_ZSt18__do_alloc_on_copyISaISt6vectorIiSaIiEEEEvRT_RKS4_St17integral_constantIbLb0EE
FNDA:0,_ZSt18__do_alloc_on_copyISaISt6vectorIiSaIiEEEEvRT_RKS4_St17integral_constantIbLb0EE
FN:526,_ZSt18__do_alloc_on_copyISaIiEEvRT_RKS1_St17integral_constantIbLb0EE
FNDA:0,_ZSt18__do_alloc_on_copyISaIiEEvRT_RKS1_St17integral_constantIbLb0EE
FN:530,_ZSt15__alloc_on_copyISaIiEEvRT_RKS1_
FNDA:0,_ZSt15__alloc_on_copyISaIiEEvRT_RKS1_
FN:530,_ZSt15__alloc_on_copyISaISt6vectorIiSaIiEEEEvRT_RKS4_
FNDA:0,_ZSt15__alloc_on_copyISaISt6vectorIiSaIiEEEEvRT_RKS4_
FN:545,_ZSt18__do_alloc_on_moveISaISt6vectorIiSaIiEEEEvRT_S5_St17integral_constantIbLb1EE
FNDA:0,_ZSt18__do_alloc_on_moveISaISt6vectorIiSaIiEEEEvRT_S5_St17integral_constantIbLb1EE
FN:553,_ZSt15__alloc_on_moveISaISt6vectorIiSaIiEEEEvRT_S5_
FNDA:0,_ZSt15__alloc_on_moveISaISt6vectorIiSaIiEEEEvRT_S5_
DA:443,0
DA:444,0
DA:443,0
DA:444,0
DA:443,0
DA:444,0
DA:469,0
DA:470,0
DA:469,0
DA:470,0
DA:469,0
DA:470,0
DA:482,0
DA:484,0
DA:482,0
DA:484,0
DA:482,0
DA:484,0
DA:482,63
DA:484,63
DA:482,1037
DA:484,1037
DA:495,0
DA:497,0
DA:495,0
DA:497,0
DA:495,0
DA:497,0
DA:505,0
DA:506,0
DA:505,0
DA:506,0
DA:505,0
DA:506,0
DA:514,0
DA:515,0
DA:514,0
DA:515,0
DA:526,0
DA:527,0
DA:526,0
DA:527,0
DA:530,0
DA:534,0
DA:535,0
DA:530,0
DA:534,0
DA:535,0
DA:545,0
DA:546,0
DA:553,0
DA:557,0
DA:558,0
end_of_record
SF:/usr/include/c++/9/bits/stl_iterator_base_funcs.h
FN:98,_ZSt10__distanceIPKSt6vectorIiSaIiEEENSt15iterator_traitsIT_E15difference_typeES6_S6_St26random_access_iterator_tag
FNDA:205,_ZSt10__distanceIPKSt6vectorIiSaIiEEENSt15iterator_traitsIT_E15difference_typeES6_S6_St26random_access_iterator_tag
FN:98,_ZSt10__distanceIPKiENSt15iterator_traitsIT_E15difference_typeES3_S3_St26random_access_iterator_tag
FNDA:0,_ZSt10__distanceIPKiENSt15iterator_traitsIT_E15difference_typeES3_S3_St26random_access_iterator_tag
FN:138,_ZSt8distanceIPKSt6vectorIiSaIiEEENSt15iterator_traitsIT_E15difference_typeES6_S6_
FNDA:205,_ZSt8distanceIPKSt6vectorIiSaIiEEENSt15iterator_traitsIT_E15difference_typeES6_S6_
FN:138,_ZSt8distanceIPKiENSt15iterator_traitsIT_E15difference_typeES3_S3_
FNDA:0,_ZSt8distanceIPKiENSt15iterator_traitsIT_E15difference_typeES3_S3_
FN:174,_ZSt9__advanceIPKSt6vectorIiSaIiEElEvRT_T0_St26random_access_iterator_tag
FNDA:0,_ZSt9__advanceIPKSt6vectorIiSaIiEElEvRT_T0_St26random_access_iterator_tag
FN:202,_ZSt7advanceIPKSt6vectorIiSaIiEEmEvRT_T0_
FNDA:0,_ZSt7advanceIPKSt6vectorIiSaIiEEmEvRT_T0_
DA:98,205
DA:104,205
DA:98,0
DA:104,0
DA:138,205
DA:141,205
DA:142,410
DA:138,0
DA:141,0
DA:142,0
DA:174,0
DA:185,0
DA:186,0
DA:202,0
DA:205,0
DA:206,0
DA:207,0
end_of_record
TN:
SF:/home/pato/TPIMorfMat/template-alumnos/lib/googletest-master/googletest/include/gtest/gtest.h
FN:2326,_Z13RUN_ALL_TESTSv
FNDA:1,_Z13RUN_ALL_TESTSv
DA:2326,1
DA:2327,1
end_of_record
SF:/usr/include/c++/9/iostream
end_of_record
SF:/home/pato/TPIMorfMat/template-alumnos/main.cpp
FN:4,main
FNDA:1,main
DA:4,1
DA:5,1
DA:6,1
DA:7,1
end_of_record
